Archive member included to satisfy reference by file (symbol)

d:/gcc-arm-none-eabi-7-2017-q4-major-win32/bin/../lib/gcc/arm-none-eabi/7.2.1/../../../../arm-none-eabi/lib/thumb/v7e-m/fpv4-sp/hard\libc_nano.a(lib_a-atoi.o)
                              obj/main/BETAFLIGHTF3/interface/cli.o (symbol from plugin) (atoi)
d:/gcc-arm-none-eabi-7-2017-q4-major-win32/bin/../lib/gcc/arm-none-eabi/7.2.1/../../../../arm-none-eabi/lib/thumb/v7e-m/fpv4-sp/hard\libc_nano.a(lib_a-memcpy-stub.o)
                              obj/main/BETAFLIGHTF3/io/ledstrip.o (symbol from plugin) (memcpy)
d:/gcc-arm-none-eabi-7-2017-q4-major-win32/bin/../lib/gcc/arm-none-eabi/7.2.1/../../../../arm-none-eabi/lib/thumb/v7e-m/fpv4-sp/hard\libc_nano.a(lib_a-strtok.o)
                              obj/main/BETAFLIGHTF3/io/rcdevice.o (symbol from plugin) (strtok)
d:/gcc-arm-none-eabi-7-2017-q4-major-win32/bin/../lib/gcc/arm-none-eabi/7.2.1/../../../../arm-none-eabi/lib/thumb/v7e-m/fpv4-sp/hard\libc_nano.a(lib_a-strtok_r.o)
                              d:/gcc-arm-none-eabi-7-2017-q4-major-win32/bin/../lib/gcc/arm-none-eabi/7.2.1/../../../../arm-none-eabi/lib/thumb/v7e-m/fpv4-sp/hard\libc_nano.a(lib_a-strtok.o) (__strtok_r)
d:/gcc-arm-none-eabi-7-2017-q4-major-win32/bin/../lib/gcc/arm-none-eabi/7.2.1/../../../../arm-none-eabi/lib/thumb/v7e-m/fpv4-sp/hard\libc_nano.a(lib_a-strtol.o)
                              d:/gcc-arm-none-eabi-7-2017-q4-major-win32/bin/../lib/gcc/arm-none-eabi/7.2.1/../../../../arm-none-eabi/lib/thumb/v7e-m/fpv4-sp/hard\libc_nano.a(lib_a-atoi.o) (_strtol_r)
d:/gcc-arm-none-eabi-7-2017-q4-major-win32/bin/../lib/gcc/arm-none-eabi/7.2.1/../../../../arm-none-eabi/lib/thumb/v7e-m/fpv4-sp/hard\libc_nano.a(lib_a-impure.o)
                              d:/gcc-arm-none-eabi-7-2017-q4-major-win32/bin/../lib/gcc/arm-none-eabi/7.2.1/../../../../arm-none-eabi/lib/thumb/v7e-m/fpv4-sp/hard\libc_nano.a(lib_a-strtok.o) (_impure_ptr)
d:/gcc-arm-none-eabi-7-2017-q4-major-win32/bin/../lib/gcc/arm-none-eabi/7.2.1/../../../../arm-none-eabi/lib/thumb/v7e-m/fpv4-sp/hard\libc_nano.a(lib_a-locale.o)
                              d:/gcc-arm-none-eabi-7-2017-q4-major-win32/bin/../lib/gcc/arm-none-eabi/7.2.1/../../../../arm-none-eabi/lib/thumb/v7e-m/fpv4-sp/hard\libc_nano.a(lib_a-strtol.o) (__locale_ctype_ptr_l)
d:/gcc-arm-none-eabi-7-2017-q4-major-win32/bin/../lib/gcc/arm-none-eabi/7.2.1/../../../../arm-none-eabi/lib/thumb/v7e-m/fpv4-sp/hard\libc_nano.a(lib_a-malloc.o)
                              d:/gcc-arm-none-eabi-7-2017-q4-major-win32/bin/../lib/gcc/arm-none-eabi/7.2.1/../../../../arm-none-eabi/lib/thumb/v7e-m/fpv4-sp/hard\libc_nano.a(lib_a-strtok.o) (malloc)
d:/gcc-arm-none-eabi-7-2017-q4-major-win32/bin/../lib/gcc/arm-none-eabi/7.2.1/../../../../arm-none-eabi/lib/thumb/v7e-m/fpv4-sp/hard\libc_nano.a(lib_a-mbtowc_r.o)
                              d:/gcc-arm-none-eabi-7-2017-q4-major-win32/bin/../lib/gcc/arm-none-eabi/7.2.1/../../../../arm-none-eabi/lib/thumb/v7e-m/fpv4-sp/hard\libc_nano.a(lib_a-locale.o) (__ascii_mbtowc)
d:/gcc-arm-none-eabi-7-2017-q4-major-win32/bin/../lib/gcc/arm-none-eabi/7.2.1/../../../../arm-none-eabi/lib/thumb/v7e-m/fpv4-sp/hard\libc_nano.a(lib_a-nano-freer.o)
                              d:/gcc-arm-none-eabi-7-2017-q4-major-win32/bin/../lib/gcc/arm-none-eabi/7.2.1/../../../../arm-none-eabi/lib/thumb/v7e-m/fpv4-sp/hard\libc_nano.a(lib_a-malloc.o) (_free_r)
d:/gcc-arm-none-eabi-7-2017-q4-major-win32/bin/../lib/gcc/arm-none-eabi/7.2.1/../../../../arm-none-eabi/lib/thumb/v7e-m/fpv4-sp/hard\libc_nano.a(lib_a-nano-mallocr.o)
                              d:/gcc-arm-none-eabi-7-2017-q4-major-win32/bin/../lib/gcc/arm-none-eabi/7.2.1/../../../../arm-none-eabi/lib/thumb/v7e-m/fpv4-sp/hard\libc_nano.a(lib_a-malloc.o) (_malloc_r)
d:/gcc-arm-none-eabi-7-2017-q4-major-win32/bin/../lib/gcc/arm-none-eabi/7.2.1/../../../../arm-none-eabi/lib/thumb/v7e-m/fpv4-sp/hard\libc_nano.a(lib_a-sbrkr.o)
                              d:/gcc-arm-none-eabi-7-2017-q4-major-win32/bin/../lib/gcc/arm-none-eabi/7.2.1/../../../../arm-none-eabi/lib/thumb/v7e-m/fpv4-sp/hard\libc_nano.a(lib_a-nano-mallocr.o) (_sbrk_r)
d:/gcc-arm-none-eabi-7-2017-q4-major-win32/bin/../lib/gcc/arm-none-eabi/7.2.1/../../../../arm-none-eabi/lib/thumb/v7e-m/fpv4-sp/hard\libc_nano.a(lib_a-strcmp.o)
                              d:/gcc-arm-none-eabi-7-2017-q4-major-win32/bin/../lib/gcc/arm-none-eabi/7.2.1/../../../../arm-none-eabi/lib/thumb/v7e-m/fpv4-sp/hard\libc_nano.a(lib_a-locale.o) (strcmp)
d:/gcc-arm-none-eabi-7-2017-q4-major-win32/bin/../lib/gcc/arm-none-eabi/7.2.1/../../../../arm-none-eabi/lib/thumb/v7e-m/fpv4-sp/hard\libc_nano.a(lib_a-wctomb_r.o)
                              d:/gcc-arm-none-eabi-7-2017-q4-major-win32/bin/../lib/gcc/arm-none-eabi/7.2.1/../../../../arm-none-eabi/lib/thumb/v7e-m/fpv4-sp/hard\libc_nano.a(lib_a-locale.o) (__ascii_wctomb)
d:/gcc-arm-none-eabi-7-2017-q4-major-win32/bin/../lib/gcc/arm-none-eabi/7.2.1/../../../../arm-none-eabi/lib/thumb/v7e-m/fpv4-sp/hard\libc_nano.a(lib_a-ctype_.o)
                              d:/gcc-arm-none-eabi-7-2017-q4-major-win32/bin/../lib/gcc/arm-none-eabi/7.2.1/../../../../arm-none-eabi/lib/thumb/v7e-m/fpv4-sp/hard\libc_nano.a(lib_a-locale.o) (_ctype_)
d:/gcc-arm-none-eabi-7-2017-q4-major-win32/bin/../lib/gcc/arm-none-eabi/7.2.1/../../../../arm-none-eabi/lib/thumb/v7e-m/fpv4-sp/hard\libc_nano.a(lib_a-mlock.o)
                              d:/gcc-arm-none-eabi-7-2017-q4-major-win32/bin/../lib/gcc/arm-none-eabi/7.2.1/../../../../arm-none-eabi/lib/thumb/v7e-m/fpv4-sp/hard\libc_nano.a(lib_a-nano-freer.o) (__malloc_lock)
d:/gcc-arm-none-eabi-7-2017-q4-major-win32/bin/../lib/gcc/arm-none-eabi/7.2.1/../../../../arm-none-eabi/lib/thumb/v7e-m/fpv4-sp/hard\libc_nano.a(lib_a-reent.o)
                              d:/gcc-arm-none-eabi-7-2017-q4-major-win32/bin/../lib/gcc/arm-none-eabi/7.2.1/../../../../arm-none-eabi/lib/thumb/v7e-m/fpv4-sp/hard\libc_nano.a(lib_a-sbrkr.o) (errno)
d:/gcc-arm-none-eabi-7-2017-q4-major-win32/bin/../lib/gcc/arm-none-eabi/7.2.1/../../../../arm-none-eabi/lib/thumb/v7e-m/fpv4-sp/hard\libnosys.a(sbrk.o)
                              d:/gcc-arm-none-eabi-7-2017-q4-major-win32/bin/../lib/gcc/arm-none-eabi/7.2.1/../../../../arm-none-eabi/lib/thumb/v7e-m/fpv4-sp/hard\libc_nano.a(lib_a-sbrkr.o) (_sbrk)
d:/gcc-arm-none-eabi-7-2017-q4-major-win32/bin/../lib/gcc/arm-none-eabi/7.2.1/../../../../arm-none-eabi/lib/thumb/v7e-m/fpv4-sp/hard\libm.a(lib_a-s_ceil.o)
                              C:\cygwin64\tmp\ccTUqUH8.ltrans5.ltrans.o (ceil)
d:/gcc-arm-none-eabi-7-2017-q4-major-win32/bin/../lib/gcc/arm-none-eabi/7.2.1/../../../../arm-none-eabi/lib/thumb/v7e-m/fpv4-sp/hard\libm.a(lib_a-sf_ceil.o)
                              C:\cygwin64\tmp\ccTUqUH8.ltrans6.ltrans.o (ceilf)
d:/gcc-arm-none-eabi-7-2017-q4-major-win32/bin/../lib/gcc/arm-none-eabi/7.2.1/../../../../arm-none-eabi/lib/thumb/v7e-m/fpv4-sp/hard\libm.a(lib_a-sf_log2.o)
                              C:\cygwin64\tmp\ccTUqUH8.ltrans3.ltrans.o (log2f)
d:/gcc-arm-none-eabi-7-2017-q4-major-win32/bin/../lib/gcc/arm-none-eabi/7.2.1/../../../../arm-none-eabi/lib/thumb/v7e-m/fpv4-sp/hard\libm.a(lib_a-sf_log2_data.o)
                              d:/gcc-arm-none-eabi-7-2017-q4-major-win32/bin/../lib/gcc/arm-none-eabi/7.2.1/../../../../arm-none-eabi/lib/thumb/v7e-m/fpv4-sp/hard\libm.a(lib_a-sf_log2.o) (__log2f_data)
d:/gcc-arm-none-eabi-7-2017-q4-major-win32/bin/../lib/gcc/arm-none-eabi/7.2.1/../../../../arm-none-eabi/lib/thumb/v7e-m/fpv4-sp/hard\libm.a(lib_a-sf_lrint.o)
                              C:\cygwin64\tmp\ccTUqUH8.ltrans0.ltrans.o (lrintf)
d:/gcc-arm-none-eabi-7-2017-q4-major-win32/bin/../lib/gcc/arm-none-eabi/7.2.1/../../../../arm-none-eabi/lib/thumb/v7e-m/fpv4-sp/hard\libm.a(lib_a-sf_pow.o)
                              C:\cygwin64\tmp\ccTUqUH8.ltrans3.ltrans.o (powf)
d:/gcc-arm-none-eabi-7-2017-q4-major-win32/bin/../lib/gcc/arm-none-eabi/7.2.1/../../../../arm-none-eabi/lib/thumb/v7e-m/fpv4-sp/hard\libm.a(lib_a-sf_pow_log2_data.o)
                              d:/gcc-arm-none-eabi-7-2017-q4-major-win32/bin/../lib/gcc/arm-none-eabi/7.2.1/../../../../arm-none-eabi/lib/thumb/v7e-m/fpv4-sp/hard\libm.a(lib_a-sf_pow.o) (__powf_log2_data)
d:/gcc-arm-none-eabi-7-2017-q4-major-win32/bin/../lib/gcc/arm-none-eabi/7.2.1/../../../../arm-none-eabi/lib/thumb/v7e-m/fpv4-sp/hard\libm.a(lib_a-math_errf.o)
                              d:/gcc-arm-none-eabi-7-2017-q4-major-win32/bin/../lib/gcc/arm-none-eabi/7.2.1/../../../../arm-none-eabi/lib/thumb/v7e-m/fpv4-sp/hard\libm.a(lib_a-sf_pow.o) (__math_uflowf)
d:/gcc-arm-none-eabi-7-2017-q4-major-win32/bin/../lib/gcc/arm-none-eabi/7.2.1/../../../../arm-none-eabi/lib/thumb/v7e-m/fpv4-sp/hard\libm.a(lib_a-sf_exp2_data.o)
                              d:/gcc-arm-none-eabi-7-2017-q4-major-win32/bin/../lib/gcc/arm-none-eabi/7.2.1/../../../../arm-none-eabi/lib/thumb/v7e-m/fpv4-sp/hard\libm.a(lib_a-sf_pow.o) (__exp2f_data)
d:/gcc-arm-none-eabi-7-2017-q4-major-win32/bin/../lib/gcc/arm-none-eabi/7.2.1/../../../../arm-none-eabi/lib/thumb/v7e-m/fpv4-sp/hard\libc_nano.a(lib_a-errno.o)
                              d:/gcc-arm-none-eabi-7-2017-q4-major-win32/bin/../lib/gcc/arm-none-eabi/7.2.1/../../../../arm-none-eabi/lib/thumb/v7e-m/fpv4-sp/hard\libm.a(lib_a-math_errf.o) (__errno)
d:/gcc-arm-none-eabi-7-2017-q4-major-win32/bin/../lib/gcc/arm-none-eabi/7.2.1/../../../../arm-none-eabi/lib/thumb/v7e-m/fpv4-sp/hard\libc_nano.a(lib_a-memcmp.o)
                              C:\cygwin64\tmp\ccTUqUH8.ltrans1.ltrans.o (memcmp)
d:/gcc-arm-none-eabi-7-2017-q4-major-win32/bin/../lib/gcc/arm-none-eabi/7.2.1/../../../../arm-none-eabi/lib/thumb/v7e-m/fpv4-sp/hard\libc_nano.a(lib_a-memmove.o)
                              C:\cygwin64\tmp\ccTUqUH8.ltrans4.ltrans.o (memmove)
d:/gcc-arm-none-eabi-7-2017-q4-major-win32/bin/../lib/gcc/arm-none-eabi/7.2.1/../../../../arm-none-eabi/lib/thumb/v7e-m/fpv4-sp/hard\libc_nano.a(lib_a-memset.o)
                              C:\cygwin64\tmp\ccTUqUH8.ltrans0.ltrans.o (memset)
d:/gcc-arm-none-eabi-7-2017-q4-major-win32/bin/../lib/gcc/arm-none-eabi/7.2.1/../../../../arm-none-eabi/lib/thumb/v7e-m/fpv4-sp/hard\libc_nano.a(lib_a-strcat.o)
                              C:\cygwin64\tmp\ccTUqUH8.ltrans1.ltrans.o (strcat)
d:/gcc-arm-none-eabi-7-2017-q4-major-win32/bin/../lib/gcc/arm-none-eabi/7.2.1/../../../../arm-none-eabi/lib/thumb/v7e-m/fpv4-sp/hard\libc_nano.a(lib_a-strchr.o)
                              C:\cygwin64\tmp\ccTUqUH8.ltrans0.ltrans.o (strchr)
d:/gcc-arm-none-eabi-7-2017-q4-major-win32/bin/../lib/gcc/arm-none-eabi/7.2.1/../../../../arm-none-eabi/lib/thumb/v7e-m/fpv4-sp/hard\libc_nano.a(lib_a-strcpy.o)
                              C:\cygwin64\tmp\ccTUqUH8.ltrans1.ltrans.o (strcpy)
d:/gcc-arm-none-eabi-7-2017-q4-major-win32/bin/../lib/gcc/arm-none-eabi/7.2.1/../../../../arm-none-eabi/lib/thumb/v7e-m/fpv4-sp/hard\libc_nano.a(lib_a-strlen.o)
                              C:\cygwin64\tmp\ccTUqUH8.ltrans0.ltrans.o (strlen)
d:/gcc-arm-none-eabi-7-2017-q4-major-win32/bin/../lib/gcc/arm-none-eabi/7.2.1/../../../../arm-none-eabi/lib/thumb/v7e-m/fpv4-sp/hard\libc_nano.a(lib_a-strncmp.o)
                              C:\cygwin64\tmp\ccTUqUH8.ltrans1.ltrans.o (strncmp)
d:/gcc-arm-none-eabi-7-2017-q4-major-win32/bin/../lib/gcc/arm-none-eabi/7.2.1/../../../../arm-none-eabi/lib/thumb/v7e-m/fpv4-sp/hard\libc_nano.a(lib_a-strncpy.o)
                              C:\cygwin64\tmp\ccTUqUH8.ltrans1.ltrans.o (strncpy)
d:/gcc-arm-none-eabi-7-2017-q4-major-win32/bin/../lib/gcc/arm-none-eabi/7.2.1/../../../../arm-none-eabi/lib/thumb/v7e-m/fpv4-sp/hard\libc_nano.a(lib_a-strstr.o)
                              C:\cygwin64\tmp\ccTUqUH8.ltrans3.ltrans.o (strstr)
d:/gcc-arm-none-eabi-7-2017-q4-major-win32/bin/../lib/gcc/arm-none-eabi/7.2.1/thumb/v7e-m/fpv4-sp/hard\libgcc.a(_arm_addsubdf3.o)
                              d:/gcc-arm-none-eabi-7-2017-q4-major-win32/bin/../lib/gcc/arm-none-eabi/7.2.1/../../../../arm-none-eabi/lib/thumb/v7e-m/fpv4-sp/hard\libm.a(lib_a-sf_log2.o) (__aeabi_dsub)
d:/gcc-arm-none-eabi-7-2017-q4-major-win32/bin/../lib/gcc/arm-none-eabi/7.2.1/thumb/v7e-m/fpv4-sp/hard\libgcc.a(_arm_muldivdf3.o)
                              d:/gcc-arm-none-eabi-7-2017-q4-major-win32/bin/../lib/gcc/arm-none-eabi/7.2.1/../../../../arm-none-eabi/lib/thumb/v7e-m/fpv4-sp/hard\libm.a(lib_a-sf_log2.o) (__aeabi_dmul)
d:/gcc-arm-none-eabi-7-2017-q4-major-win32/bin/../lib/gcc/arm-none-eabi/7.2.1/thumb/v7e-m/fpv4-sp/hard\libgcc.a(_arm_cmpdf2.o)
                              d:/gcc-arm-none-eabi-7-2017-q4-major-win32/bin/../lib/gcc/arm-none-eabi/7.2.1/../../../../arm-none-eabi/lib/thumb/v7e-m/fpv4-sp/hard\libm.a(lib_a-sf_pow.o) (__aeabi_dcmplt)
d:/gcc-arm-none-eabi-7-2017-q4-major-win32/bin/../lib/gcc/arm-none-eabi/7.2.1/thumb/v7e-m/fpv4-sp/hard\libgcc.a(_arm_fixunsdfsi.o)
                              C:\cygwin64\tmp\ccTUqUH8.ltrans5.ltrans.o (__aeabi_d2uiz)
d:/gcc-arm-none-eabi-7-2017-q4-major-win32/bin/../lib/gcc/arm-none-eabi/7.2.1/thumb/v7e-m/fpv4-sp/hard\libgcc.a(_arm_truncdfsf2.o)
                              d:/gcc-arm-none-eabi-7-2017-q4-major-win32/bin/../lib/gcc/arm-none-eabi/7.2.1/../../../../arm-none-eabi/lib/thumb/v7e-m/fpv4-sp/hard\libm.a(lib_a-sf_log2.o) (__aeabi_d2f)
d:/gcc-arm-none-eabi-7-2017-q4-major-win32/bin/../lib/gcc/arm-none-eabi/7.2.1/thumb/v7e-m/fpv4-sp/hard\libgcc.a(_aeabi_ldivmod.o)
                              C:\cygwin64\tmp\ccTUqUH8.ltrans5.ltrans.o (__aeabi_ldivmod)
d:/gcc-arm-none-eabi-7-2017-q4-major-win32/bin/../lib/gcc/arm-none-eabi/7.2.1/thumb/v7e-m/fpv4-sp/hard\libgcc.a(_popcountsi2.o)
                              C:\cygwin64\tmp\ccTUqUH8.ltrans0.ltrans.o (__popcountsi2)
d:/gcc-arm-none-eabi-7-2017-q4-major-win32/bin/../lib/gcc/arm-none-eabi/7.2.1/thumb/v7e-m/fpv4-sp/hard\libgcc.a(_udivmoddi4.o)
                              d:/gcc-arm-none-eabi-7-2017-q4-major-win32/bin/../lib/gcc/arm-none-eabi/7.2.1/thumb/v7e-m/fpv4-sp/hard\libgcc.a(_aeabi_ldivmod.o) (__udivmoddi4)
d:/gcc-arm-none-eabi-7-2017-q4-major-win32/bin/../lib/gcc/arm-none-eabi/7.2.1/thumb/v7e-m/fpv4-sp/hard\libgcc.a(_dvmd_tls.o)
                              d:/gcc-arm-none-eabi-7-2017-q4-major-win32/bin/../lib/gcc/arm-none-eabi/7.2.1/thumb/v7e-m/fpv4-sp/hard\libgcc.a(_aeabi_ldivmod.o) (__aeabi_ldiv0)

Allocating common symbols
Common symbol       size              file

sendLength          0x4               obj/main/BETAFLIGHTF3/vcp/hw_config.o (symbol from plugin)
tricopterMixerConfig_System
                    0x1               obj/main/BETAFLIGHTF3/flight/mixer_tricopter.o (symbol from plugin)
timerChannelInfo    0xa               obj/main/BETAFLIGHTF3/drivers/timer.o (symbol from plugin)
colors              0x4               obj/main/BETAFLIGHTF3/fc/config.o (symbol from plugin)
spiPinConfig_Copy   0x9               obj/main/BETAFLIGHTF3/pg/bus_spi.o (symbol from plugin)
HSEStartUpStatus    0x1               obj/main/BETAFLIGHTF3/vcp/hw_config.o (symbol from plugin)
rssi_channel        0x1               obj/main/BETAFLIGHTF3/rx/spektrum.o (symbol from plugin)
receiveLength       0x4               obj/main/BETAFLIGHTF3/vcp/usb_endp.o (symbol from plugin)
barometerConfig_Copy
                    0xe               obj/main/BETAFLIGHTF3/sensors/barometer.o (symbol from plugin)
tricopterMixerConfig_Copy
                    0x1               obj/main/BETAFLIGHTF3/flight/mixer_tricopter.o (symbol from plugin)
trampRFFreqMin      0x4               obj/main/BETAFLIGHTF3/io/vtx_tramp.o (symbol from plugin)
SaveState           0x2               obj/main/BETAFLIGHTF3/usb_init.o (symbol from plugin)
adcConfig_Copy      0x9               obj/main/BETAFLIGHTF3/pg/adc.o (symbol from plugin)
currentSensorVirtualConfig_System
                    0x4               obj/main/BETAFLIGHTF3/sensors/current.o (symbol from plugin)
airmodeWasActivated
                    0x1               obj/main/BETAFLIGHTF3/io/osd.o (symbol from plugin)
errno               0x4               d:/gcc-arm-none-eabi-7-2017-q4-major-win32/bin/../lib/gcc/arm-none-eabi/7.2.1/../../../../arm-none-eabi/lib/thumb/v7e-m/fpv4-sp/hard\libc_nano.a(lib_a-reent.o)
packetSent          0x4               obj/main/BETAFLIGHTF3/vcp/hw_config.o (symbol from plugin)
sdcardConfig_Copy   0x7               obj/main/BETAFLIGHTF3/pg/sdcard.o (symbol from plugin)
displayPortProfileMax7456_Copy
                    0x5               obj/main/BETAFLIGHTF3/io/displayport_max7456.o (symbol from plugin)
smartAudioCommand_e
                    0x1               obj/main/BETAFLIGHTF3/io/vtx_smartaudio.o (symbol from plugin)
beeperConfig_Copy   0xc               obj/main/BETAFLIGHTF3/pg/beeper.o (symbol from plugin)
gyroConfig_Copy     0x1c              obj/main/BETAFLIGHTF3/sensors/gyro.o (symbol from plugin)
escSensorConfig_Copy
                    0x1               obj/main/BETAFLIGHTF3/sensors/esc_sensor.o (symbol from plugin)
saCmsORFreqNew      0x2               obj/main/BETAFLIGHTF3/cms/cms_menu_vtx_smartaudio.o (symbol from plugin)
gimbalConfig_Copy   0x1               obj/main/BETAFLIGHTF3/flight/servos.o (symbol from plugin)
statusLedConfig_Copy
                    0x4               obj/main/BETAFLIGHTF3/drivers/light_led.o (symbol from plugin)
resolution          0x4               obj/main/BETAFLIGHTF3/rx/spektrum.o (symbol from plugin)
timerAlarm          0x2               obj/main/BETAFLIGHTF3/cms/cms_menu_osd.o (symbol from plugin)
servoConfig_Copy    0x10              obj/main/BETAFLIGHTF3/flight/servos.o (symbol from plugin)
currentMeterESCState
                    0x8               obj/main/BETAFLIGHTF3/sensors/current.o (symbol from plugin)
wIstr               0x2               obj/main/BETAFLIGHTF3/vcp/usb_istr.o (symbol from plugin)
currentMeterVirtualState
                    0xc               obj/main/BETAFLIGHTF3/sensors/current.o (symbol from plugin)
accelerometerConfig_Copy
                    0x10              obj/main/BETAFLIGHTF3/sensors/acceleration.o (symbol from plugin)
servoParams_CopyArray
                    0x60              obj/main/BETAFLIGHTF3/flight/servos.o (symbol from plugin)
imuConfig_Copy      0x8               obj/main/BETAFLIGHTF3/flight/imu.o (symbol from plugin)
inputSource_e       0x1               obj/main/BETAFLIGHTF3/fc/config.o (symbol from plugin)
voltageMeterADCStates
                    0x28              obj/main/BETAFLIGHTF3/sensors/voltage.o (symbol from plugin)
currentMeterADCState
                    0x10              obj/main/BETAFLIGHTF3/sensors/current.o (symbol from plugin)
EPindex             0x1               obj/main/BETAFLIGHTF3/usb_init.o (symbol from plugin)
accSum              0xc               obj/main/BETAFLIGHTF3/flight/imu.o (symbol from plugin)
displayPortProfileMsp_Copy
                    0x5               obj/main/BETAFLIGHTF3/io/displayport_msp.o (symbol from plugin)
accVelScale         0x4               obj/main/BETAFLIGHTF3/flight/imu.o (symbol from plugin)
armingConfig_Copy   0x3               obj/main/BETAFLIGHTF3/fc/rc_controls.o (symbol from plugin)
timerInfo           0x8               obj/main/BETAFLIGHTF3/drivers/timer.o (symbol from plugin)
cameraControlConfig_Copy
                    0xa               obj/main/BETAFLIGHTF3/drivers/camera_control.o (symbol from plugin)
saCmsUserFreqNew    0x2               obj/main/BETAFLIGHTF3/cms/cms_menu_vtx_smartaudio.o (symbol from plugin)
currentSensorADCConfig_Copy
                    0x4               obj/main/BETAFLIGHTF3/sensors/current.o (symbol from plugin)
vtxSettingsConfig_Copy
                    0xa               obj/main/BETAFLIGHTF3/io/vtx.o (symbol from plugin)
blackboxConfig_Copy
                    0x6               obj/main/BETAFLIGHTF3/blackbox/blackbox.o (symbol from plugin)
saCmsPitFMode       0x1               obj/main/BETAFLIGHTF3/cms/cms_menu_vtx_smartaudio.o (symbol from plugin)
pwmConfig_Copy      0x9               obj/main/BETAFLIGHTF3/pg/rx_pwm.o (symbol from plugin)
currentSensorVirtualConfig_Copy
                    0x4               obj/main/BETAFLIGHTF3/sensors/current.o (symbol from plugin)
osdConfig_Copy      0x6e              obj/main/BETAFLIGHTF3/io/osd.o (symbol from plugin)
timerSource         0x2               obj/main/BETAFLIGHTF3/cms/cms_menu_osd.o (symbol from plugin)
DeviceInfo          0x4               obj/main/BETAFLIGHTF3/io/serial_4way.o (symbol from plugin)
uartDevice          0x720             obj/main/BETAFLIGHTF3/drivers/serial_uart_pinconfig.o (symbol from plugin)
flight3DConfig_Copy
                    0x8               obj/main/BETAFLIGHTF3/fc/rc_controls.o (symbol from plugin)
specialColors       0xb               obj/main/BETAFLIGHTF3/fc/config.o (symbol from plugin)
mpuResetFn          0x4               obj/main/BETAFLIGHTF3/drivers/accgyro/accgyro_mpu.o (symbol from plugin)
switchStates        0x3               obj/main/BETAFLIGHTF3/fc/fc_tasks.o (symbol from plugin)
beeperDevConfig_System
                    0x6               obj/main/BETAFLIGHTF3/pg/beeper_dev.o (symbol from plugin)
adjustmentRanges_CopyArray
                    0x5a              obj/main/BETAFLIGHTF3/fc/rc_adjustments.o (symbol from plugin)
pidProfiles_CopyArray
                    0xea              obj/main/BETAFLIGHTF3/flight/pid.o (symbol from plugin)
axisPIDSum          0xc               obj/main/BETAFLIGHTF3/flight/pid.o (symbol from plugin)
baro                0x30              obj/main/BETAFLIGHTF3/sensors/barometer.o (symbol from plugin)
customServoMixers_CopyArray
                    0x70              obj/main/BETAFLIGHTF3/flight/servos.o (symbol from plugin)
jetiExBusRequestFrame
                    0x9               obj/main/BETAFLIGHTF3/rx/jetiexbus.o (symbol from plugin)
StatusInfo          0x2               obj/main/BETAFLIGHTF3/usb_core.o (symbol from plugin)
pidConfig_Copy      0x1               obj/main/BETAFLIGHTF3/flight/pid.o (symbol from plugin)
ResumeS             0x2               obj/main/BETAFLIGHTF3/vcp/usb_pwr.o (symbol from plugin)
max7456DisplayPort  0x10              obj/main/BETAFLIGHTF3/io/displayport_max7456.o (symbol from plugin)
motorConfig_Copy    0x16              obj/main/BETAFLIGHTF3/flight/mixer.o (symbol from plugin)
throttleCorrectionConfig_Copy
                    0x4               obj/main/BETAFLIGHTF3/fc/fc_core.o (symbol from plugin)
telemetryConfig_Copy
                    0x1c              obj/main/BETAFLIGHTF3/telemetry/telemetry.o (symbol from plugin)
modeColors          0x4               obj/main/BETAFLIGHTF3/fc/config.o (symbol from plugin)
magDev              0x20              obj/main/BETAFLIGHTF3/sensors/compass.o (symbol from plugin)
AltHold             0x4               obj/main/BETAFLIGHTF3/flight/altitude.o (symbol from plugin)
extiChannelRecs     0x40              obj/main/BETAFLIGHTF3/drivers/exti.o (symbol from plugin)
spekChannelData     0x30              obj/main/BETAFLIGHTF3/rx/spektrum.o (symbol from plugin)
max7456Config_System
                    0x1               obj/main/BETAFLIGHTF3/pg/max7456.o (symbol from plugin)
serialPinConfig_Copy
                    0x24              obj/main/BETAFLIGHTF3/drivers/serial_pinconfig.o (symbol from plugin)
blackboxHeaderBudget
                    0x4               obj/main/BETAFLIGHTF3/blackbox/blackbox_io.o (symbol from plugin)
escSerialConfig_System
                    0x1               obj/main/BETAFLIGHTF3/drivers/serial_escserial.o (symbol from plugin)
compassConfig_Copy  0x10              obj/main/BETAFLIGHTF3/sensors/compass.o (symbol from plugin)
controlRateProfiles_CopyArray
                    0x30              obj/main/BETAFLIGHTF3/fc/controlrate_profile.o (symbol from plugin)
rcdeviceOSDDisplayPort
                    0x10              obj/main/BETAFLIGHTF3/io/displayport_rcdevice.o (symbol from plugin)
sectionTimes        0x20              obj/main/BETAFLIGHTF3/build/debug.o (symbol from plugin)
rcControlsConfig_Copy
                    0x5               obj/main/BETAFLIGHTF3/fc/rc_controls.o (symbol from plugin)
timeConfig_Copy     0x2               obj/main/BETAFLIGHTF3/common/time.o (symbol from plugin)
timerPrecision      0x2               obj/main/BETAFLIGHTF3/cms/cms_menu_osd.o (symbol from plugin)
ppmConfig_Copy      0x1               obj/main/BETAFLIGHTF3/pg/rx_pwm.o (symbol from plugin)
selected_esc        0x1               obj/main/BETAFLIGHTF3/io/serial_4way.o (symbol from plugin)
trampRFPowerMax     0x4               obj/main/BETAFLIGHTF3/io/vtx_tramp.o (symbol from plugin)
failsafeConfig_Copy
                    0x8               obj/main/BETAFLIGHTF3/flight/failsafe.o (symbol from plugin)
beeperDevConfig_Copy
                    0x6               obj/main/BETAFLIGHTF3/pg/beeper_dev.o (symbol from plugin)
vcdProfile_Copy     0x3               obj/main/BETAFLIGHTF3/pg/vcd.o (symbol from plugin)
EP                  0x20              obj/main/BETAFLIGHTF3/vcp/usb_pwr.o (symbol from plugin)
trampCmsFreqRef     0x2               obj/main/BETAFLIGHTF3/cms/cms_menu_vtx_tramp.o (symbol from plugin)
spiPinConfig_System
                    0x9               obj/main/BETAFLIGHTF3/pg/bus_spi.o (symbol from plugin)
batteryConfig_Copy  0x10              obj/main/BETAFLIGHTF3/sensors/battery.o (symbol from plugin)
voltageSensorADCConfig_CopyArray
                    0x3               obj/main/BETAFLIGHTF3/sensors/voltage.o (symbol from plugin)
EXTI_InitStructure  0x8               obj/main/BETAFLIGHTF3/vcp/hw_config.o (symbol from plugin)
saCmsRFState        0x1               obj/main/BETAFLIGHTF3/cms/cms_menu_vtx_smartaudio.o (symbol from plugin)
trampRFFreqMax      0x4               obj/main/BETAFLIGHTF3/io/vtx_tramp.o (symbol from plugin)
vtxConfig_Copy      0x33              obj/main/BETAFLIGHTF3/io/vtx_control.o (symbol from plugin)
receiveBuffer       0x40              obj/main/BETAFLIGHTF3/vcp/hw_config.o (symbol from plugin)
escSensorConfig_System
                    0x1               obj/main/BETAFLIGHTF3/sensors/esc_sensor.o (symbol from plugin)
max7456Config_Copy  0x1               obj/main/BETAFLIGHTF3/pg/max7456.o (symbol from plugin)
gimbalConfig_System
                    0x1               obj/main/BETAFLIGHTF3/flight/servos.o (symbol from plugin)
boardAlignment_Copy
                    0xc               obj/main/BETAFLIGHTF3/sensors/boardalignment.o (symbol from plugin)
escSerialConfig_Copy
                    0x1               obj/main/BETAFLIGHTF3/drivers/serial_escserial.o (symbol from plugin)
wInterrupt_Mask     0x2               obj/main/BETAFLIGHTF3/usb_init.o (symbol from plugin)
jetiExBusPort       0x4               obj/main/BETAFLIGHTF3/rx/jetiexbus.o (symbol from plugin)

Discarded input sections

 .text          0x00000000       0x14 obj/main/BETAFLIGHTF3/startup_stm32f30x_md_gcc.o
 .data          0x00000000        0x0 obj/main/BETAFLIGHTF3/startup_stm32f30x_md_gcc.o
 .bss           0x00000000        0x0 obj/main/BETAFLIGHTF3/startup_stm32f30x_md_gcc.o
 .data          0x00000000        0x0 obj/main/BETAFLIGHTF3/./lib/main/DSP_Lib/Source/TransformFunctions/arm_bitreversal2.o
 .bss           0x00000000        0x0 obj/main/BETAFLIGHTF3/./lib/main/DSP_Lib/Source/TransformFunctions/arm_bitreversal2.o
 .text          0x00000000        0x0 d:/gcc-arm-none-eabi-7-2017-q4-major-win32/bin/../lib/gcc/arm-none-eabi/7.2.1/../../../../arm-none-eabi/lib/thumb/v7e-m/fpv4-sp/hard\libc_nano.a(lib_a-atoi.o)
 .data          0x00000000        0x0 d:/gcc-arm-none-eabi-7-2017-q4-major-win32/bin/../lib/gcc/arm-none-eabi/7.2.1/../../../../arm-none-eabi/lib/thumb/v7e-m/fpv4-sp/hard\libc_nano.a(lib_a-atoi.o)
 .bss           0x00000000        0x0 d:/gcc-arm-none-eabi-7-2017-q4-major-win32/bin/../lib/gcc/arm-none-eabi/7.2.1/../../../../arm-none-eabi/lib/thumb/v7e-m/fpv4-sp/hard\libc_nano.a(lib_a-atoi.o)
 .text._atoi_r  0x00000000        0x8 d:/gcc-arm-none-eabi-7-2017-q4-major-win32/bin/../lib/gcc/arm-none-eabi/7.2.1/../../../../arm-none-eabi/lib/thumb/v7e-m/fpv4-sp/hard\libc_nano.a(lib_a-atoi.o)
 .text          0x00000000        0x0 d:/gcc-arm-none-eabi-7-2017-q4-major-win32/bin/../lib/gcc/arm-none-eabi/7.2.1/../../../../arm-none-eabi/lib/thumb/v7e-m/fpv4-sp/hard\libc_nano.a(lib_a-memcpy-stub.o)
 .data          0x00000000        0x0 d:/gcc-arm-none-eabi-7-2017-q4-major-win32/bin/../lib/gcc/arm-none-eabi/7.2.1/../../../../arm-none-eabi/lib/thumb/v7e-m/fpv4-sp/hard\libc_nano.a(lib_a-memcpy-stub.o)
 .bss           0x00000000        0x0 d:/gcc-arm-none-eabi-7-2017-q4-major-win32/bin/../lib/gcc/arm-none-eabi/7.2.1/../../../../arm-none-eabi/lib/thumb/v7e-m/fpv4-sp/hard\libc_nano.a(lib_a-memcpy-stub.o)
 .text          0x00000000        0x0 d:/gcc-arm-none-eabi-7-2017-q4-major-win32/bin/../lib/gcc/arm-none-eabi/7.2.1/../../../../arm-none-eabi/lib/thumb/v7e-m/fpv4-sp/hard\libc_nano.a(lib_a-strtok.o)
 .data          0x00000000        0x0 d:/gcc-arm-none-eabi-7-2017-q4-major-win32/bin/../lib/gcc/arm-none-eabi/7.2.1/../../../../arm-none-eabi/lib/thumb/v7e-m/fpv4-sp/hard\libc_nano.a(lib_a-strtok.o)
 .bss           0x00000000        0x0 d:/gcc-arm-none-eabi-7-2017-q4-major-win32/bin/../lib/gcc/arm-none-eabi/7.2.1/../../../../arm-none-eabi/lib/thumb/v7e-m/fpv4-sp/hard\libc_nano.a(lib_a-strtok.o)
 .text.strtok   0x00000000       0x54 d:/gcc-arm-none-eabi-7-2017-q4-major-win32/bin/../lib/gcc/arm-none-eabi/7.2.1/../../../../arm-none-eabi/lib/thumb/v7e-m/fpv4-sp/hard\libc_nano.a(lib_a-strtok.o)
 .debug_frame   0x00000000       0x38 d:/gcc-arm-none-eabi-7-2017-q4-major-win32/bin/../lib/gcc/arm-none-eabi/7.2.1/../../../../arm-none-eabi/lib/thumb/v7e-m/fpv4-sp/hard\libc_nano.a(lib_a-strtok.o)
 .ARM.attributes
                0x00000000       0x34 d:/gcc-arm-none-eabi-7-2017-q4-major-win32/bin/../lib/gcc/arm-none-eabi/7.2.1/../../../../arm-none-eabi/lib/thumb/v7e-m/fpv4-sp/hard\libc_nano.a(lib_a-strtok.o)
 .text          0x00000000        0x0 d:/gcc-arm-none-eabi-7-2017-q4-major-win32/bin/../lib/gcc/arm-none-eabi/7.2.1/../../../../arm-none-eabi/lib/thumb/v7e-m/fpv4-sp/hard\libc_nano.a(lib_a-strtok_r.o)
 .data          0x00000000        0x0 d:/gcc-arm-none-eabi-7-2017-q4-major-win32/bin/../lib/gcc/arm-none-eabi/7.2.1/../../../../arm-none-eabi/lib/thumb/v7e-m/fpv4-sp/hard\libc_nano.a(lib_a-strtok_r.o)
 .bss           0x00000000        0x0 d:/gcc-arm-none-eabi-7-2017-q4-major-win32/bin/../lib/gcc/arm-none-eabi/7.2.1/../../../../arm-none-eabi/lib/thumb/v7e-m/fpv4-sp/hard\libc_nano.a(lib_a-strtok_r.o)
 .text          0x00000000        0x0 d:/gcc-arm-none-eabi-7-2017-q4-major-win32/bin/../lib/gcc/arm-none-eabi/7.2.1/../../../../arm-none-eabi/lib/thumb/v7e-m/fpv4-sp/hard\libc_nano.a(lib_a-strtol.o)
 .data          0x00000000        0x0 d:/gcc-arm-none-eabi-7-2017-q4-major-win32/bin/../lib/gcc/arm-none-eabi/7.2.1/../../../../arm-none-eabi/lib/thumb/v7e-m/fpv4-sp/hard\libc_nano.a(lib_a-strtol.o)
 .bss           0x00000000        0x0 d:/gcc-arm-none-eabi-7-2017-q4-major-win32/bin/../lib/gcc/arm-none-eabi/7.2.1/../../../../arm-none-eabi/lib/thumb/v7e-m/fpv4-sp/hard\libc_nano.a(lib_a-strtol.o)
 .text._strtol_r
                0x00000000       0x24 d:/gcc-arm-none-eabi-7-2017-q4-major-win32/bin/../lib/gcc/arm-none-eabi/7.2.1/../../../../arm-none-eabi/lib/thumb/v7e-m/fpv4-sp/hard\libc_nano.a(lib_a-strtol.o)
 .text.strtol_l
                0x00000000       0x1c d:/gcc-arm-none-eabi-7-2017-q4-major-win32/bin/../lib/gcc/arm-none-eabi/7.2.1/../../../../arm-none-eabi/lib/thumb/v7e-m/fpv4-sp/hard\libc_nano.a(lib_a-strtol.o)
 .text          0x00000000        0x0 d:/gcc-arm-none-eabi-7-2017-q4-major-win32/bin/../lib/gcc/arm-none-eabi/7.2.1/../../../../arm-none-eabi/lib/thumb/v7e-m/fpv4-sp/hard\libc_nano.a(lib_a-impure.o)
 .data          0x00000000        0x0 d:/gcc-arm-none-eabi-7-2017-q4-major-win32/bin/../lib/gcc/arm-none-eabi/7.2.1/../../../../arm-none-eabi/lib/thumb/v7e-m/fpv4-sp/hard\libc_nano.a(lib_a-impure.o)
 .bss           0x00000000        0x0 d:/gcc-arm-none-eabi-7-2017-q4-major-win32/bin/../lib/gcc/arm-none-eabi/7.2.1/../../../../arm-none-eabi/lib/thumb/v7e-m/fpv4-sp/hard\libc_nano.a(lib_a-impure.o)
 .rodata._global_impure_ptr
                0x00000000        0x4 d:/gcc-arm-none-eabi-7-2017-q4-major-win32/bin/../lib/gcc/arm-none-eabi/7.2.1/../../../../arm-none-eabi/lib/thumb/v7e-m/fpv4-sp/hard\libc_nano.a(lib_a-impure.o)
 .text          0x00000000        0x0 d:/gcc-arm-none-eabi-7-2017-q4-major-win32/bin/../lib/gcc/arm-none-eabi/7.2.1/../../../../arm-none-eabi/lib/thumb/v7e-m/fpv4-sp/hard\libc_nano.a(lib_a-locale.o)
 .data          0x00000000        0x0 d:/gcc-arm-none-eabi-7-2017-q4-major-win32/bin/../lib/gcc/arm-none-eabi/7.2.1/../../../../arm-none-eabi/lib/thumb/v7e-m/fpv4-sp/hard\libc_nano.a(lib_a-locale.o)
 .bss           0x00000000        0x0 d:/gcc-arm-none-eabi-7-2017-q4-major-win32/bin/../lib/gcc/arm-none-eabi/7.2.1/../../../../arm-none-eabi/lib/thumb/v7e-m/fpv4-sp/hard\libc_nano.a(lib_a-locale.o)
 .text._setlocale_r
                0x00000000       0x38 d:/gcc-arm-none-eabi-7-2017-q4-major-win32/bin/../lib/gcc/arm-none-eabi/7.2.1/../../../../arm-none-eabi/lib/thumb/v7e-m/fpv4-sp/hard\libc_nano.a(lib_a-locale.o)
 .text.__locale_mb_cur_max
                0x00000000       0x1c d:/gcc-arm-none-eabi-7-2017-q4-major-win32/bin/../lib/gcc/arm-none-eabi/7.2.1/../../../../arm-none-eabi/lib/thumb/v7e-m/fpv4-sp/hard\libc_nano.a(lib_a-locale.o)
 .text.__locale_ctype_ptr
                0x00000000       0x1c d:/gcc-arm-none-eabi-7-2017-q4-major-win32/bin/../lib/gcc/arm-none-eabi/7.2.1/../../../../arm-none-eabi/lib/thumb/v7e-m/fpv4-sp/hard\libc_nano.a(lib_a-locale.o)
 .text.setlocale
                0x00000000       0x10 d:/gcc-arm-none-eabi-7-2017-q4-major-win32/bin/../lib/gcc/arm-none-eabi/7.2.1/../../../../arm-none-eabi/lib/thumb/v7e-m/fpv4-sp/hard\libc_nano.a(lib_a-locale.o)
 .bss._PathLocale
                0x00000000        0x4 d:/gcc-arm-none-eabi-7-2017-q4-major-win32/bin/../lib/gcc/arm-none-eabi/7.2.1/../../../../arm-none-eabi/lib/thumb/v7e-m/fpv4-sp/hard\libc_nano.a(lib_a-locale.o)
 .text          0x00000000        0x0 d:/gcc-arm-none-eabi-7-2017-q4-major-win32/bin/../lib/gcc/arm-none-eabi/7.2.1/../../../../arm-none-eabi/lib/thumb/v7e-m/fpv4-sp/hard\libc_nano.a(lib_a-malloc.o)
 .data          0x00000000        0x0 d:/gcc-arm-none-eabi-7-2017-q4-major-win32/bin/../lib/gcc/arm-none-eabi/7.2.1/../../../../arm-none-eabi/lib/thumb/v7e-m/fpv4-sp/hard\libc_nano.a(lib_a-malloc.o)
 .bss           0x00000000        0x0 d:/gcc-arm-none-eabi-7-2017-q4-major-win32/bin/../lib/gcc/arm-none-eabi/7.2.1/../../../../arm-none-eabi/lib/thumb/v7e-m/fpv4-sp/hard\libc_nano.a(lib_a-malloc.o)
 .text.malloc   0x00000000       0x10 d:/gcc-arm-none-eabi-7-2017-q4-major-win32/bin/../lib/gcc/arm-none-eabi/7.2.1/../../../../arm-none-eabi/lib/thumb/v7e-m/fpv4-sp/hard\libc_nano.a(lib_a-malloc.o)
 .text.free     0x00000000       0x10 d:/gcc-arm-none-eabi-7-2017-q4-major-win32/bin/../lib/gcc/arm-none-eabi/7.2.1/../../../../arm-none-eabi/lib/thumb/v7e-m/fpv4-sp/hard\libc_nano.a(lib_a-malloc.o)
 .debug_frame   0x00000000       0x30 d:/gcc-arm-none-eabi-7-2017-q4-major-win32/bin/../lib/gcc/arm-none-eabi/7.2.1/../../../../arm-none-eabi/lib/thumb/v7e-m/fpv4-sp/hard\libc_nano.a(lib_a-malloc.o)
 .ARM.attributes
                0x00000000       0x34 d:/gcc-arm-none-eabi-7-2017-q4-major-win32/bin/../lib/gcc/arm-none-eabi/7.2.1/../../../../arm-none-eabi/lib/thumb/v7e-m/fpv4-sp/hard\libc_nano.a(lib_a-malloc.o)
 .text          0x00000000        0x0 d:/gcc-arm-none-eabi-7-2017-q4-major-win32/bin/../lib/gcc/arm-none-eabi/7.2.1/../../../../arm-none-eabi/lib/thumb/v7e-m/fpv4-sp/hard\libc_nano.a(lib_a-mbtowc_r.o)
 .data          0x00000000        0x0 d:/gcc-arm-none-eabi-7-2017-q4-major-win32/bin/../lib/gcc/arm-none-eabi/7.2.1/../../../../arm-none-eabi/lib/thumb/v7e-m/fpv4-sp/hard\libc_nano.a(lib_a-mbtowc_r.o)
 .bss           0x00000000        0x0 d:/gcc-arm-none-eabi-7-2017-q4-major-win32/bin/../lib/gcc/arm-none-eabi/7.2.1/../../../../arm-none-eabi/lib/thumb/v7e-m/fpv4-sp/hard\libc_nano.a(lib_a-mbtowc_r.o)
 .text._mbtowc_r
                0x00000000       0x24 d:/gcc-arm-none-eabi-7-2017-q4-major-win32/bin/../lib/gcc/arm-none-eabi/7.2.1/../../../../arm-none-eabi/lib/thumb/v7e-m/fpv4-sp/hard\libc_nano.a(lib_a-mbtowc_r.o)
 .text          0x00000000        0x0 d:/gcc-arm-none-eabi-7-2017-q4-major-win32/bin/../lib/gcc/arm-none-eabi/7.2.1/../../../../arm-none-eabi/lib/thumb/v7e-m/fpv4-sp/hard\libc_nano.a(lib_a-nano-freer.o)
 .data          0x00000000        0x0 d:/gcc-arm-none-eabi-7-2017-q4-major-win32/bin/../lib/gcc/arm-none-eabi/7.2.1/../../../../arm-none-eabi/lib/thumb/v7e-m/fpv4-sp/hard\libc_nano.a(lib_a-nano-freer.o)
 .bss           0x00000000        0x0 d:/gcc-arm-none-eabi-7-2017-q4-major-win32/bin/../lib/gcc/arm-none-eabi/7.2.1/../../../../arm-none-eabi/lib/thumb/v7e-m/fpv4-sp/hard\libc_nano.a(lib_a-nano-freer.o)
 .text._free_r  0x00000000       0x9c d:/gcc-arm-none-eabi-7-2017-q4-major-win32/bin/../lib/gcc/arm-none-eabi/7.2.1/../../../../arm-none-eabi/lib/thumb/v7e-m/fpv4-sp/hard\libc_nano.a(lib_a-nano-freer.o)
 .debug_frame   0x00000000       0x38 d:/gcc-arm-none-eabi-7-2017-q4-major-win32/bin/../lib/gcc/arm-none-eabi/7.2.1/../../../../arm-none-eabi/lib/thumb/v7e-m/fpv4-sp/hard\libc_nano.a(lib_a-nano-freer.o)
 .ARM.attributes
                0x00000000       0x34 d:/gcc-arm-none-eabi-7-2017-q4-major-win32/bin/../lib/gcc/arm-none-eabi/7.2.1/../../../../arm-none-eabi/lib/thumb/v7e-m/fpv4-sp/hard\libc_nano.a(lib_a-nano-freer.o)
 .text          0x00000000        0x0 d:/gcc-arm-none-eabi-7-2017-q4-major-win32/bin/../lib/gcc/arm-none-eabi/7.2.1/../../../../arm-none-eabi/lib/thumb/v7e-m/fpv4-sp/hard\libc_nano.a(lib_a-nano-mallocr.o)
 .data          0x00000000        0x0 d:/gcc-arm-none-eabi-7-2017-q4-major-win32/bin/../lib/gcc/arm-none-eabi/7.2.1/../../../../arm-none-eabi/lib/thumb/v7e-m/fpv4-sp/hard\libc_nano.a(lib_a-nano-mallocr.o)
 .bss           0x00000000        0x0 d:/gcc-arm-none-eabi-7-2017-q4-major-win32/bin/../lib/gcc/arm-none-eabi/7.2.1/../../../../arm-none-eabi/lib/thumb/v7e-m/fpv4-sp/hard\libc_nano.a(lib_a-nano-mallocr.o)
 .text._malloc_r
                0x00000000       0xb4 d:/gcc-arm-none-eabi-7-2017-q4-major-win32/bin/../lib/gcc/arm-none-eabi/7.2.1/../../../../arm-none-eabi/lib/thumb/v7e-m/fpv4-sp/hard\libc_nano.a(lib_a-nano-mallocr.o)
 .bss.__malloc_free_list
                0x00000000        0x4 d:/gcc-arm-none-eabi-7-2017-q4-major-win32/bin/../lib/gcc/arm-none-eabi/7.2.1/../../../../arm-none-eabi/lib/thumb/v7e-m/fpv4-sp/hard\libc_nano.a(lib_a-nano-mallocr.o)
 .bss.__malloc_sbrk_start
                0x00000000        0x4 d:/gcc-arm-none-eabi-7-2017-q4-major-win32/bin/../lib/gcc/arm-none-eabi/7.2.1/../../../../arm-none-eabi/lib/thumb/v7e-m/fpv4-sp/hard\libc_nano.a(lib_a-nano-mallocr.o)
 .debug_frame   0x00000000       0x2c d:/gcc-arm-none-eabi-7-2017-q4-major-win32/bin/../lib/gcc/arm-none-eabi/7.2.1/../../../../arm-none-eabi/lib/thumb/v7e-m/fpv4-sp/hard\libc_nano.a(lib_a-nano-mallocr.o)
 .ARM.attributes
                0x00000000       0x34 d:/gcc-arm-none-eabi-7-2017-q4-major-win32/bin/../lib/gcc/arm-none-eabi/7.2.1/../../../../arm-none-eabi/lib/thumb/v7e-m/fpv4-sp/hard\libc_nano.a(lib_a-nano-mallocr.o)
 .text          0x00000000        0x0 d:/gcc-arm-none-eabi-7-2017-q4-major-win32/bin/../lib/gcc/arm-none-eabi/7.2.1/../../../../arm-none-eabi/lib/thumb/v7e-m/fpv4-sp/hard\libc_nano.a(lib_a-sbrkr.o)
 .data          0x00000000        0x0 d:/gcc-arm-none-eabi-7-2017-q4-major-win32/bin/../lib/gcc/arm-none-eabi/7.2.1/../../../../arm-none-eabi/lib/thumb/v7e-m/fpv4-sp/hard\libc_nano.a(lib_a-sbrkr.o)
 .bss           0x00000000        0x0 d:/gcc-arm-none-eabi-7-2017-q4-major-win32/bin/../lib/gcc/arm-none-eabi/7.2.1/../../../../arm-none-eabi/lib/thumb/v7e-m/fpv4-sp/hard\libc_nano.a(lib_a-sbrkr.o)
 .text._sbrk_r  0x00000000       0x20 d:/gcc-arm-none-eabi-7-2017-q4-major-win32/bin/../lib/gcc/arm-none-eabi/7.2.1/../../../../arm-none-eabi/lib/thumb/v7e-m/fpv4-sp/hard\libc_nano.a(lib_a-sbrkr.o)
 .debug_frame   0x00000000       0x2c d:/gcc-arm-none-eabi-7-2017-q4-major-win32/bin/../lib/gcc/arm-none-eabi/7.2.1/../../../../arm-none-eabi/lib/thumb/v7e-m/fpv4-sp/hard\libc_nano.a(lib_a-sbrkr.o)
 .ARM.attributes
                0x00000000       0x34 d:/gcc-arm-none-eabi-7-2017-q4-major-win32/bin/../lib/gcc/arm-none-eabi/7.2.1/../../../../arm-none-eabi/lib/thumb/v7e-m/fpv4-sp/hard\libc_nano.a(lib_a-sbrkr.o)
 .data          0x00000000        0x0 d:/gcc-arm-none-eabi-7-2017-q4-major-win32/bin/../lib/gcc/arm-none-eabi/7.2.1/../../../../arm-none-eabi/lib/thumb/v7e-m/fpv4-sp/hard\libc_nano.a(lib_a-strcmp.o)
 .bss           0x00000000        0x0 d:/gcc-arm-none-eabi-7-2017-q4-major-win32/bin/../lib/gcc/arm-none-eabi/7.2.1/../../../../arm-none-eabi/lib/thumb/v7e-m/fpv4-sp/hard\libc_nano.a(lib_a-strcmp.o)
 .text          0x00000000        0x0 d:/gcc-arm-none-eabi-7-2017-q4-major-win32/bin/../lib/gcc/arm-none-eabi/7.2.1/../../../../arm-none-eabi/lib/thumb/v7e-m/fpv4-sp/hard\libc_nano.a(lib_a-wctomb_r.o)
 .data          0x00000000        0x0 d:/gcc-arm-none-eabi-7-2017-q4-major-win32/bin/../lib/gcc/arm-none-eabi/7.2.1/../../../../arm-none-eabi/lib/thumb/v7e-m/fpv4-sp/hard\libc_nano.a(lib_a-wctomb_r.o)
 .bss           0x00000000        0x0 d:/gcc-arm-none-eabi-7-2017-q4-major-win32/bin/../lib/gcc/arm-none-eabi/7.2.1/../../../../arm-none-eabi/lib/thumb/v7e-m/fpv4-sp/hard\libc_nano.a(lib_a-wctomb_r.o)
 .text._wctomb_r
                0x00000000       0x24 d:/gcc-arm-none-eabi-7-2017-q4-major-win32/bin/../lib/gcc/arm-none-eabi/7.2.1/../../../../arm-none-eabi/lib/thumb/v7e-m/fpv4-sp/hard\libc_nano.a(lib_a-wctomb_r.o)
 .text          0x00000000        0x0 d:/gcc-arm-none-eabi-7-2017-q4-major-win32/bin/../lib/gcc/arm-none-eabi/7.2.1/../../../../arm-none-eabi/lib/thumb/v7e-m/fpv4-sp/hard\libc_nano.a(lib_a-ctype_.o)
 .data          0x00000000        0x0 d:/gcc-arm-none-eabi-7-2017-q4-major-win32/bin/../lib/gcc/arm-none-eabi/7.2.1/../../../../arm-none-eabi/lib/thumb/v7e-m/fpv4-sp/hard\libc_nano.a(lib_a-ctype_.o)
 .bss           0x00000000        0x0 d:/gcc-arm-none-eabi-7-2017-q4-major-win32/bin/../lib/gcc/arm-none-eabi/7.2.1/../../../../arm-none-eabi/lib/thumb/v7e-m/fpv4-sp/hard\libc_nano.a(lib_a-ctype_.o)
 .text          0x00000000        0x0 d:/gcc-arm-none-eabi-7-2017-q4-major-win32/bin/../lib/gcc/arm-none-eabi/7.2.1/../../../../arm-none-eabi/lib/thumb/v7e-m/fpv4-sp/hard\libc_nano.a(lib_a-mlock.o)
 .data          0x00000000        0x0 d:/gcc-arm-none-eabi-7-2017-q4-major-win32/bin/../lib/gcc/arm-none-eabi/7.2.1/../../../../arm-none-eabi/lib/thumb/v7e-m/fpv4-sp/hard\libc_nano.a(lib_a-mlock.o)
 .bss           0x00000000        0x0 d:/gcc-arm-none-eabi-7-2017-q4-major-win32/bin/../lib/gcc/arm-none-eabi/7.2.1/../../../../arm-none-eabi/lib/thumb/v7e-m/fpv4-sp/hard\libc_nano.a(lib_a-mlock.o)
 .text.__malloc_lock
                0x00000000        0x2 d:/gcc-arm-none-eabi-7-2017-q4-major-win32/bin/../lib/gcc/arm-none-eabi/7.2.1/../../../../arm-none-eabi/lib/thumb/v7e-m/fpv4-sp/hard\libc_nano.a(lib_a-mlock.o)
 .text.__malloc_unlock
                0x00000000        0x2 d:/gcc-arm-none-eabi-7-2017-q4-major-win32/bin/../lib/gcc/arm-none-eabi/7.2.1/../../../../arm-none-eabi/lib/thumb/v7e-m/fpv4-sp/hard\libc_nano.a(lib_a-mlock.o)
 .debug_frame   0x00000000       0x30 d:/gcc-arm-none-eabi-7-2017-q4-major-win32/bin/../lib/gcc/arm-none-eabi/7.2.1/../../../../arm-none-eabi/lib/thumb/v7e-m/fpv4-sp/hard\libc_nano.a(lib_a-mlock.o)
 .ARM.attributes
                0x00000000       0x34 d:/gcc-arm-none-eabi-7-2017-q4-major-win32/bin/../lib/gcc/arm-none-eabi/7.2.1/../../../../arm-none-eabi/lib/thumb/v7e-m/fpv4-sp/hard\libc_nano.a(lib_a-mlock.o)
 .text          0x00000000        0x0 d:/gcc-arm-none-eabi-7-2017-q4-major-win32/bin/../lib/gcc/arm-none-eabi/7.2.1/../../../../arm-none-eabi/lib/thumb/v7e-m/fpv4-sp/hard\libc_nano.a(lib_a-reent.o)
 .data          0x00000000        0x0 d:/gcc-arm-none-eabi-7-2017-q4-major-win32/bin/../lib/gcc/arm-none-eabi/7.2.1/../../../../arm-none-eabi/lib/thumb/v7e-m/fpv4-sp/hard\libc_nano.a(lib_a-reent.o)
 .bss           0x00000000        0x0 d:/gcc-arm-none-eabi-7-2017-q4-major-win32/bin/../lib/gcc/arm-none-eabi/7.2.1/../../../../arm-none-eabi/lib/thumb/v7e-m/fpv4-sp/hard\libc_nano.a(lib_a-reent.o)
 .text.cleanup_glue
                0x00000000       0x1a d:/gcc-arm-none-eabi-7-2017-q4-major-win32/bin/../lib/gcc/arm-none-eabi/7.2.1/../../../../arm-none-eabi/lib/thumb/v7e-m/fpv4-sp/hard\libc_nano.a(lib_a-reent.o)
 .text._reclaim_reent
                0x00000000       0xb8 d:/gcc-arm-none-eabi-7-2017-q4-major-win32/bin/../lib/gcc/arm-none-eabi/7.2.1/../../../../arm-none-eabi/lib/thumb/v7e-m/fpv4-sp/hard\libc_nano.a(lib_a-reent.o)
 .debug_frame   0x00000000       0x5c d:/gcc-arm-none-eabi-7-2017-q4-major-win32/bin/../lib/gcc/arm-none-eabi/7.2.1/../../../../arm-none-eabi/lib/thumb/v7e-m/fpv4-sp/hard\libc_nano.a(lib_a-reent.o)
 .ARM.attributes
                0x00000000       0x34 d:/gcc-arm-none-eabi-7-2017-q4-major-win32/bin/../lib/gcc/arm-none-eabi/7.2.1/../../../../arm-none-eabi/lib/thumb/v7e-m/fpv4-sp/hard\libc_nano.a(lib_a-reent.o)
 COMMON         0x00000000        0x4 d:/gcc-arm-none-eabi-7-2017-q4-major-win32/bin/../lib/gcc/arm-none-eabi/7.2.1/../../../../arm-none-eabi/lib/thumb/v7e-m/fpv4-sp/hard\libc_nano.a(lib_a-reent.o)
 .text          0x00000000        0x0 d:/gcc-arm-none-eabi-7-2017-q4-major-win32/bin/../lib/gcc/arm-none-eabi/7.2.1/../../../../arm-none-eabi/lib/thumb/v7e-m/fpv4-sp/hard\libc_nano.a(lib_a-errno.o)
 .data          0x00000000        0x0 d:/gcc-arm-none-eabi-7-2017-q4-major-win32/bin/../lib/gcc/arm-none-eabi/7.2.1/../../../../arm-none-eabi/lib/thumb/v7e-m/fpv4-sp/hard\libc_nano.a(lib_a-errno.o)
 .bss           0x00000000        0x0 d:/gcc-arm-none-eabi-7-2017-q4-major-win32/bin/../lib/gcc/arm-none-eabi/7.2.1/../../../../arm-none-eabi/lib/thumb/v7e-m/fpv4-sp/hard\libc_nano.a(lib_a-errno.o)
 .text          0x00000000        0x0 d:/gcc-arm-none-eabi-7-2017-q4-major-win32/bin/../lib/gcc/arm-none-eabi/7.2.1/../../../../arm-none-eabi/lib/thumb/v7e-m/fpv4-sp/hard\libc_nano.a(lib_a-memcmp.o)
 .data          0x00000000        0x0 d:/gcc-arm-none-eabi-7-2017-q4-major-win32/bin/../lib/gcc/arm-none-eabi/7.2.1/../../../../arm-none-eabi/lib/thumb/v7e-m/fpv4-sp/hard\libc_nano.a(lib_a-memcmp.o)
 .bss           0x00000000        0x0 d:/gcc-arm-none-eabi-7-2017-q4-major-win32/bin/../lib/gcc/arm-none-eabi/7.2.1/../../../../arm-none-eabi/lib/thumb/v7e-m/fpv4-sp/hard\libc_nano.a(lib_a-memcmp.o)
 .text          0x00000000        0x0 d:/gcc-arm-none-eabi-7-2017-q4-major-win32/bin/../lib/gcc/arm-none-eabi/7.2.1/../../../../arm-none-eabi/lib/thumb/v7e-m/fpv4-sp/hard\libc_nano.a(lib_a-memmove.o)
 .data          0x00000000        0x0 d:/gcc-arm-none-eabi-7-2017-q4-major-win32/bin/../lib/gcc/arm-none-eabi/7.2.1/../../../../arm-none-eabi/lib/thumb/v7e-m/fpv4-sp/hard\libc_nano.a(lib_a-memmove.o)
 .bss           0x00000000        0x0 d:/gcc-arm-none-eabi-7-2017-q4-major-win32/bin/../lib/gcc/arm-none-eabi/7.2.1/../../../../arm-none-eabi/lib/thumb/v7e-m/fpv4-sp/hard\libc_nano.a(lib_a-memmove.o)
 .text          0x00000000        0x0 d:/gcc-arm-none-eabi-7-2017-q4-major-win32/bin/../lib/gcc/arm-none-eabi/7.2.1/../../../../arm-none-eabi/lib/thumb/v7e-m/fpv4-sp/hard\libc_nano.a(lib_a-memset.o)
 .data          0x00000000        0x0 d:/gcc-arm-none-eabi-7-2017-q4-major-win32/bin/../lib/gcc/arm-none-eabi/7.2.1/../../../../arm-none-eabi/lib/thumb/v7e-m/fpv4-sp/hard\libc_nano.a(lib_a-memset.o)
 .bss           0x00000000        0x0 d:/gcc-arm-none-eabi-7-2017-q4-major-win32/bin/../lib/gcc/arm-none-eabi/7.2.1/../../../../arm-none-eabi/lib/thumb/v7e-m/fpv4-sp/hard\libc_nano.a(lib_a-memset.o)
 .text          0x00000000        0x0 d:/gcc-arm-none-eabi-7-2017-q4-major-win32/bin/../lib/gcc/arm-none-eabi/7.2.1/../../../../arm-none-eabi/lib/thumb/v7e-m/fpv4-sp/hard\libc_nano.a(lib_a-strcat.o)
 .data          0x00000000        0x0 d:/gcc-arm-none-eabi-7-2017-q4-major-win32/bin/../lib/gcc/arm-none-eabi/7.2.1/../../../../arm-none-eabi/lib/thumb/v7e-m/fpv4-sp/hard\libc_nano.a(lib_a-strcat.o)
 .bss           0x00000000        0x0 d:/gcc-arm-none-eabi-7-2017-q4-major-win32/bin/../lib/gcc/arm-none-eabi/7.2.1/../../../../arm-none-eabi/lib/thumb/v7e-m/fpv4-sp/hard\libc_nano.a(lib_a-strcat.o)
 .text          0x00000000        0x0 d:/gcc-arm-none-eabi-7-2017-q4-major-win32/bin/../lib/gcc/arm-none-eabi/7.2.1/../../../../arm-none-eabi/lib/thumb/v7e-m/fpv4-sp/hard\libc_nano.a(lib_a-strchr.o)
 .data          0x00000000        0x0 d:/gcc-arm-none-eabi-7-2017-q4-major-win32/bin/../lib/gcc/arm-none-eabi/7.2.1/../../../../arm-none-eabi/lib/thumb/v7e-m/fpv4-sp/hard\libc_nano.a(lib_a-strchr.o)
 .bss           0x00000000        0x0 d:/gcc-arm-none-eabi-7-2017-q4-major-win32/bin/../lib/gcc/arm-none-eabi/7.2.1/../../../../arm-none-eabi/lib/thumb/v7e-m/fpv4-sp/hard\libc_nano.a(lib_a-strchr.o)
 .text          0x00000000        0x0 d:/gcc-arm-none-eabi-7-2017-q4-major-win32/bin/../lib/gcc/arm-none-eabi/7.2.1/../../../../arm-none-eabi/lib/thumb/v7e-m/fpv4-sp/hard\libc_nano.a(lib_a-strcpy.o)
 .data          0x00000000        0x0 d:/gcc-arm-none-eabi-7-2017-q4-major-win32/bin/../lib/gcc/arm-none-eabi/7.2.1/../../../../arm-none-eabi/lib/thumb/v7e-m/fpv4-sp/hard\libc_nano.a(lib_a-strcpy.o)
 .bss           0x00000000        0x0 d:/gcc-arm-none-eabi-7-2017-q4-major-win32/bin/../lib/gcc/arm-none-eabi/7.2.1/../../../../arm-none-eabi/lib/thumb/v7e-m/fpv4-sp/hard\libc_nano.a(lib_a-strcpy.o)
 .data          0x00000000        0x0 d:/gcc-arm-none-eabi-7-2017-q4-major-win32/bin/../lib/gcc/arm-none-eabi/7.2.1/../../../../arm-none-eabi/lib/thumb/v7e-m/fpv4-sp/hard\libc_nano.a(lib_a-strlen.o)
 .bss           0x00000000        0x0 d:/gcc-arm-none-eabi-7-2017-q4-major-win32/bin/../lib/gcc/arm-none-eabi/7.2.1/../../../../arm-none-eabi/lib/thumb/v7e-m/fpv4-sp/hard\libc_nano.a(lib_a-strlen.o)
 .text          0x00000000        0x0 d:/gcc-arm-none-eabi-7-2017-q4-major-win32/bin/../lib/gcc/arm-none-eabi/7.2.1/../../../../arm-none-eabi/lib/thumb/v7e-m/fpv4-sp/hard\libc_nano.a(lib_a-strncmp.o)
 .data          0x00000000        0x0 d:/gcc-arm-none-eabi-7-2017-q4-major-win32/bin/../lib/gcc/arm-none-eabi/7.2.1/../../../../arm-none-eabi/lib/thumb/v7e-m/fpv4-sp/hard\libc_nano.a(lib_a-strncmp.o)
 .bss           0x00000000        0x0 d:/gcc-arm-none-eabi-7-2017-q4-major-win32/bin/../lib/gcc/arm-none-eabi/7.2.1/../../../../arm-none-eabi/lib/thumb/v7e-m/fpv4-sp/hard\libc_nano.a(lib_a-strncmp.o)
 .text          0x00000000        0x0 d:/gcc-arm-none-eabi-7-2017-q4-major-win32/bin/../lib/gcc/arm-none-eabi/7.2.1/../../../../arm-none-eabi/lib/thumb/v7e-m/fpv4-sp/hard\libc_nano.a(lib_a-strncpy.o)
 .data          0x00000000        0x0 d:/gcc-arm-none-eabi-7-2017-q4-major-win32/bin/../lib/gcc/arm-none-eabi/7.2.1/../../../../arm-none-eabi/lib/thumb/v7e-m/fpv4-sp/hard\libc_nano.a(lib_a-strncpy.o)
 .bss           0x00000000        0x0 d:/gcc-arm-none-eabi-7-2017-q4-major-win32/bin/../lib/gcc/arm-none-eabi/7.2.1/../../../../arm-none-eabi/lib/thumb/v7e-m/fpv4-sp/hard\libc_nano.a(lib_a-strncpy.o)
 .text          0x00000000        0x0 d:/gcc-arm-none-eabi-7-2017-q4-major-win32/bin/../lib/gcc/arm-none-eabi/7.2.1/../../../../arm-none-eabi/lib/thumb/v7e-m/fpv4-sp/hard\libc_nano.a(lib_a-strstr.o)
 .data          0x00000000        0x0 d:/gcc-arm-none-eabi-7-2017-q4-major-win32/bin/../lib/gcc/arm-none-eabi/7.2.1/../../../../arm-none-eabi/lib/thumb/v7e-m/fpv4-sp/hard\libc_nano.a(lib_a-strstr.o)
 .bss           0x00000000        0x0 d:/gcc-arm-none-eabi-7-2017-q4-major-win32/bin/../lib/gcc/arm-none-eabi/7.2.1/../../../../arm-none-eabi/lib/thumb/v7e-m/fpv4-sp/hard\libc_nano.a(lib_a-strstr.o)
 .text          0x00000000        0x0 d:/gcc-arm-none-eabi-7-2017-q4-major-win32/bin/../lib/gcc/arm-none-eabi/7.2.1/../../../../arm-none-eabi/lib/thumb/v7e-m/fpv4-sp/hard\libnosys.a(sbrk.o)
 .data          0x00000000        0x0 d:/gcc-arm-none-eabi-7-2017-q4-major-win32/bin/../lib/gcc/arm-none-eabi/7.2.1/../../../../arm-none-eabi/lib/thumb/v7e-m/fpv4-sp/hard\libnosys.a(sbrk.o)
 .bss           0x00000000        0x0 d:/gcc-arm-none-eabi-7-2017-q4-major-win32/bin/../lib/gcc/arm-none-eabi/7.2.1/../../../../arm-none-eabi/lib/thumb/v7e-m/fpv4-sp/hard\libnosys.a(sbrk.o)
 .text._sbrk    0x00000000       0x1c d:/gcc-arm-none-eabi-7-2017-q4-major-win32/bin/../lib/gcc/arm-none-eabi/7.2.1/../../../../arm-none-eabi/lib/thumb/v7e-m/fpv4-sp/hard\libnosys.a(sbrk.o)
 .bss.heap_end.5377
                0x00000000        0x4 d:/gcc-arm-none-eabi-7-2017-q4-major-win32/bin/../lib/gcc/arm-none-eabi/7.2.1/../../../../arm-none-eabi/lib/thumb/v7e-m/fpv4-sp/hard\libnosys.a(sbrk.o)
 .debug_frame   0x00000000       0x20 d:/gcc-arm-none-eabi-7-2017-q4-major-win32/bin/../lib/gcc/arm-none-eabi/7.2.1/../../../../arm-none-eabi/lib/thumb/v7e-m/fpv4-sp/hard\libnosys.a(sbrk.o)
 .ARM.attributes
                0x00000000       0x34 d:/gcc-arm-none-eabi-7-2017-q4-major-win32/bin/../lib/gcc/arm-none-eabi/7.2.1/../../../../arm-none-eabi/lib/thumb/v7e-m/fpv4-sp/hard\libnosys.a(sbrk.o)
 .text          0x00000000        0x0 d:/gcc-arm-none-eabi-7-2017-q4-major-win32/bin/../lib/gcc/arm-none-eabi/7.2.1/../../../../arm-none-eabi/lib/thumb/v7e-m/fpv4-sp/hard\libm.a(lib_a-s_ceil.o)
 .data          0x00000000        0x0 d:/gcc-arm-none-eabi-7-2017-q4-major-win32/bin/../lib/gcc/arm-none-eabi/7.2.1/../../../../arm-none-eabi/lib/thumb/v7e-m/fpv4-sp/hard\libm.a(lib_a-s_ceil.o)
 .bss           0x00000000        0x0 d:/gcc-arm-none-eabi-7-2017-q4-major-win32/bin/../lib/gcc/arm-none-eabi/7.2.1/../../../../arm-none-eabi/lib/thumb/v7e-m/fpv4-sp/hard\libm.a(lib_a-s_ceil.o)
 .text          0x00000000        0x0 d:/gcc-arm-none-eabi-7-2017-q4-major-win32/bin/../lib/gcc/arm-none-eabi/7.2.1/../../../../arm-none-eabi/lib/thumb/v7e-m/fpv4-sp/hard\libm.a(lib_a-sf_ceil.o)
 .data          0x00000000        0x0 d:/gcc-arm-none-eabi-7-2017-q4-major-win32/bin/../lib/gcc/arm-none-eabi/7.2.1/../../../../arm-none-eabi/lib/thumb/v7e-m/fpv4-sp/hard\libm.a(lib_a-sf_ceil.o)
 .bss           0x00000000        0x0 d:/gcc-arm-none-eabi-7-2017-q4-major-win32/bin/../lib/gcc/arm-none-eabi/7.2.1/../../../../arm-none-eabi/lib/thumb/v7e-m/fpv4-sp/hard\libm.a(lib_a-sf_ceil.o)
 .text          0x00000000        0x0 d:/gcc-arm-none-eabi-7-2017-q4-major-win32/bin/../lib/gcc/arm-none-eabi/7.2.1/../../../../arm-none-eabi/lib/thumb/v7e-m/fpv4-sp/hard\libm.a(lib_a-sf_log2.o)
 .data          0x00000000        0x0 d:/gcc-arm-none-eabi-7-2017-q4-major-win32/bin/../lib/gcc/arm-none-eabi/7.2.1/../../../../arm-none-eabi/lib/thumb/v7e-m/fpv4-sp/hard\libm.a(lib_a-sf_log2.o)
 .bss           0x00000000        0x0 d:/gcc-arm-none-eabi-7-2017-q4-major-win32/bin/../lib/gcc/arm-none-eabi/7.2.1/../../../../arm-none-eabi/lib/thumb/v7e-m/fpv4-sp/hard\libm.a(lib_a-sf_log2.o)
 .text          0x00000000        0x0 d:/gcc-arm-none-eabi-7-2017-q4-major-win32/bin/../lib/gcc/arm-none-eabi/7.2.1/../../../../arm-none-eabi/lib/thumb/v7e-m/fpv4-sp/hard\libm.a(lib_a-sf_log2_data.o)
 .data          0x00000000        0x0 d:/gcc-arm-none-eabi-7-2017-q4-major-win32/bin/../lib/gcc/arm-none-eabi/7.2.1/../../../../arm-none-eabi/lib/thumb/v7e-m/fpv4-sp/hard\libm.a(lib_a-sf_log2_data.o)
 .bss           0x00000000        0x0 d:/gcc-arm-none-eabi-7-2017-q4-major-win32/bin/../lib/gcc/arm-none-eabi/7.2.1/../../../../arm-none-eabi/lib/thumb/v7e-m/fpv4-sp/hard\libm.a(lib_a-sf_log2_data.o)
 .text          0x00000000        0x0 d:/gcc-arm-none-eabi-7-2017-q4-major-win32/bin/../lib/gcc/arm-none-eabi/7.2.1/../../../../arm-none-eabi/lib/thumb/v7e-m/fpv4-sp/hard\libm.a(lib_a-sf_lrint.o)
 .data          0x00000000        0x0 d:/gcc-arm-none-eabi-7-2017-q4-major-win32/bin/../lib/gcc/arm-none-eabi/7.2.1/../../../../arm-none-eabi/lib/thumb/v7e-m/fpv4-sp/hard\libm.a(lib_a-sf_lrint.o)
 .bss           0x00000000        0x0 d:/gcc-arm-none-eabi-7-2017-q4-major-win32/bin/../lib/gcc/arm-none-eabi/7.2.1/../../../../arm-none-eabi/lib/thumb/v7e-m/fpv4-sp/hard\libm.a(lib_a-sf_lrint.o)
 .text          0x00000000        0x0 d:/gcc-arm-none-eabi-7-2017-q4-major-win32/bin/../lib/gcc/arm-none-eabi/7.2.1/../../../../arm-none-eabi/lib/thumb/v7e-m/fpv4-sp/hard\libm.a(lib_a-sf_pow.o)
 .data          0x00000000        0x0 d:/gcc-arm-none-eabi-7-2017-q4-major-win32/bin/../lib/gcc/arm-none-eabi/7.2.1/../../../../arm-none-eabi/lib/thumb/v7e-m/fpv4-sp/hard\libm.a(lib_a-sf_pow.o)
 .bss           0x00000000        0x0 d:/gcc-arm-none-eabi-7-2017-q4-major-win32/bin/../lib/gcc/arm-none-eabi/7.2.1/../../../../arm-none-eabi/lib/thumb/v7e-m/fpv4-sp/hard\libm.a(lib_a-sf_pow.o)
 .text          0x00000000        0x0 d:/gcc-arm-none-eabi-7-2017-q4-major-win32/bin/../lib/gcc/arm-none-eabi/7.2.1/../../../../arm-none-eabi/lib/thumb/v7e-m/fpv4-sp/hard\libm.a(lib_a-sf_pow_log2_data.o)
 .data          0x00000000        0x0 d:/gcc-arm-none-eabi-7-2017-q4-major-win32/bin/../lib/gcc/arm-none-eabi/7.2.1/../../../../arm-none-eabi/lib/thumb/v7e-m/fpv4-sp/hard\libm.a(lib_a-sf_pow_log2_data.o)
 .bss           0x00000000        0x0 d:/gcc-arm-none-eabi-7-2017-q4-major-win32/bin/../lib/gcc/arm-none-eabi/7.2.1/../../../../arm-none-eabi/lib/thumb/v7e-m/fpv4-sp/hard\libm.a(lib_a-sf_pow_log2_data.o)
 .text          0x00000000        0x0 d:/gcc-arm-none-eabi-7-2017-q4-major-win32/bin/../lib/gcc/arm-none-eabi/7.2.1/../../../../arm-none-eabi/lib/thumb/v7e-m/fpv4-sp/hard\libm.a(lib_a-math_errf.o)
 .data          0x00000000        0x0 d:/gcc-arm-none-eabi-7-2017-q4-major-win32/bin/../lib/gcc/arm-none-eabi/7.2.1/../../../../arm-none-eabi/lib/thumb/v7e-m/fpv4-sp/hard\libm.a(lib_a-math_errf.o)
 .bss           0x00000000        0x0 d:/gcc-arm-none-eabi-7-2017-q4-major-win32/bin/../lib/gcc/arm-none-eabi/7.2.1/../../../../arm-none-eabi/lib/thumb/v7e-m/fpv4-sp/hard\libm.a(lib_a-math_errf.o)
 .text          0x00000000        0x0 d:/gcc-arm-none-eabi-7-2017-q4-major-win32/bin/../lib/gcc/arm-none-eabi/7.2.1/../../../../arm-none-eabi/lib/thumb/v7e-m/fpv4-sp/hard\libm.a(lib_a-sf_exp2_data.o)
 .data          0x00000000        0x0 d:/gcc-arm-none-eabi-7-2017-q4-major-win32/bin/../lib/gcc/arm-none-eabi/7.2.1/../../../../arm-none-eabi/lib/thumb/v7e-m/fpv4-sp/hard\libm.a(lib_a-sf_exp2_data.o)
 .bss           0x00000000        0x0 d:/gcc-arm-none-eabi-7-2017-q4-major-win32/bin/../lib/gcc/arm-none-eabi/7.2.1/../../../../arm-none-eabi/lib/thumb/v7e-m/fpv4-sp/hard\libm.a(lib_a-sf_exp2_data.o)
 .data          0x00000000        0x0 d:/gcc-arm-none-eabi-7-2017-q4-major-win32/bin/../lib/gcc/arm-none-eabi/7.2.1/thumb/v7e-m/fpv4-sp/hard\libgcc.a(_arm_addsubdf3.o)
 .bss           0x00000000        0x0 d:/gcc-arm-none-eabi-7-2017-q4-major-win32/bin/../lib/gcc/arm-none-eabi/7.2.1/thumb/v7e-m/fpv4-sp/hard\libgcc.a(_arm_addsubdf3.o)
 .data          0x00000000        0x0 d:/gcc-arm-none-eabi-7-2017-q4-major-win32/bin/../lib/gcc/arm-none-eabi/7.2.1/thumb/v7e-m/fpv4-sp/hard\libgcc.a(_arm_muldivdf3.o)
 .bss           0x00000000        0x0 d:/gcc-arm-none-eabi-7-2017-q4-major-win32/bin/../lib/gcc/arm-none-eabi/7.2.1/thumb/v7e-m/fpv4-sp/hard\libgcc.a(_arm_muldivdf3.o)
 .data          0x00000000        0x0 d:/gcc-arm-none-eabi-7-2017-q4-major-win32/bin/../lib/gcc/arm-none-eabi/7.2.1/thumb/v7e-m/fpv4-sp/hard\libgcc.a(_arm_cmpdf2.o)
 .bss           0x00000000        0x0 d:/gcc-arm-none-eabi-7-2017-q4-major-win32/bin/../lib/gcc/arm-none-eabi/7.2.1/thumb/v7e-m/fpv4-sp/hard\libgcc.a(_arm_cmpdf2.o)
 .data          0x00000000        0x0 d:/gcc-arm-none-eabi-7-2017-q4-major-win32/bin/../lib/gcc/arm-none-eabi/7.2.1/thumb/v7e-m/fpv4-sp/hard\libgcc.a(_arm_fixunsdfsi.o)
 .bss           0x00000000        0x0 d:/gcc-arm-none-eabi-7-2017-q4-major-win32/bin/../lib/gcc/arm-none-eabi/7.2.1/thumb/v7e-m/fpv4-sp/hard\libgcc.a(_arm_fixunsdfsi.o)
 .data          0x00000000        0x0 d:/gcc-arm-none-eabi-7-2017-q4-major-win32/bin/../lib/gcc/arm-none-eabi/7.2.1/thumb/v7e-m/fpv4-sp/hard\libgcc.a(_arm_truncdfsf2.o)
 .bss           0x00000000        0x0 d:/gcc-arm-none-eabi-7-2017-q4-major-win32/bin/../lib/gcc/arm-none-eabi/7.2.1/thumb/v7e-m/fpv4-sp/hard\libgcc.a(_arm_truncdfsf2.o)
 .data          0x00000000        0x0 d:/gcc-arm-none-eabi-7-2017-q4-major-win32/bin/../lib/gcc/arm-none-eabi/7.2.1/thumb/v7e-m/fpv4-sp/hard\libgcc.a(_aeabi_ldivmod.o)
 .bss           0x00000000        0x0 d:/gcc-arm-none-eabi-7-2017-q4-major-win32/bin/../lib/gcc/arm-none-eabi/7.2.1/thumb/v7e-m/fpv4-sp/hard\libgcc.a(_aeabi_ldivmod.o)
 .data          0x00000000        0x0 d:/gcc-arm-none-eabi-7-2017-q4-major-win32/bin/../lib/gcc/arm-none-eabi/7.2.1/thumb/v7e-m/fpv4-sp/hard\libgcc.a(_popcountsi2.o)
 .bss           0x00000000        0x0 d:/gcc-arm-none-eabi-7-2017-q4-major-win32/bin/../lib/gcc/arm-none-eabi/7.2.1/thumb/v7e-m/fpv4-sp/hard\libgcc.a(_popcountsi2.o)
 .data          0x00000000        0x0 d:/gcc-arm-none-eabi-7-2017-q4-major-win32/bin/../lib/gcc/arm-none-eabi/7.2.1/thumb/v7e-m/fpv4-sp/hard\libgcc.a(_udivmoddi4.o)
 .bss           0x00000000        0x0 d:/gcc-arm-none-eabi-7-2017-q4-major-win32/bin/../lib/gcc/arm-none-eabi/7.2.1/thumb/v7e-m/fpv4-sp/hard\libgcc.a(_udivmoddi4.o)
 .ARM.extab     0x00000000        0x0 d:/gcc-arm-none-eabi-7-2017-q4-major-win32/bin/../lib/gcc/arm-none-eabi/7.2.1/thumb/v7e-m/fpv4-sp/hard\libgcc.a(_udivmoddi4.o)
 .data          0x00000000        0x0 d:/gcc-arm-none-eabi-7-2017-q4-major-win32/bin/../lib/gcc/arm-none-eabi/7.2.1/thumb/v7e-m/fpv4-sp/hard\libgcc.a(_dvmd_tls.o)
 .bss           0x00000000        0x0 d:/gcc-arm-none-eabi-7-2017-q4-major-win32/bin/../lib/gcc/arm-none-eabi/7.2.1/thumb/v7e-m/fpv4-sp/hard\libgcc.a(_dvmd_tls.o)

Memory Configuration

Name             Origin             Length             Attributes
FLASH            0x08000000         0x0003f000         xr
FLASH_CONFIG     0x0803f000         0x00001000         r
RAM              0x20000000         0x0000a000         xrw
CCM              0x10000000         0x00002000         xrw
MEMORY_B1        0x60000000         0x00000000         xr
*default*        0x00000000         0xffffffff

Linker script and memory map

LOAD obj/main/BETAFLIGHTF3/startup_stm32f30x_md_gcc.o
LOAD C:\cygwin64\tmp\ccTUqUH8.ltrans0.ltrans.o
LOAD C:\cygwin64\tmp\ccTUqUH8.ltrans1.ltrans.o
LOAD C:\cygwin64\tmp\ccTUqUH8.ltrans2.ltrans.o
LOAD C:\cygwin64\tmp\ccTUqUH8.ltrans3.ltrans.o
LOAD C:\cygwin64\tmp\ccTUqUH8.ltrans4.ltrans.o
LOAD C:\cygwin64\tmp\ccTUqUH8.ltrans5.ltrans.o
LOAD C:\cygwin64\tmp\ccTUqUH8.ltrans6.ltrans.o
LOAD obj/main/BETAFLIGHTF3/./lib/main/DSP_Lib/Source/TransformFunctions/arm_bitreversal2.o
LOAD d:/gcc-arm-none-eabi-7-2017-q4-major-win32/bin/../lib/gcc/arm-none-eabi/7.2.1/../../../../arm-none-eabi/lib/thumb/v7e-m/fpv4-sp/hard\libm.a
LOAD d:/gcc-arm-none-eabi-7-2017-q4-major-win32/bin/../lib/gcc/arm-none-eabi/7.2.1/../../../../arm-none-eabi/lib/thumb/v7e-m/fpv4-sp/hard\libc_nano.a
LOAD d:/gcc-arm-none-eabi-7-2017-q4-major-win32/bin/../lib/gcc/arm-none-eabi/7.2.1/../../../../arm-none-eabi/lib/thumb/v7e-m/fpv4-sp/hard\libnosys.a
START GROUP
LOAD d:/gcc-arm-none-eabi-7-2017-q4-major-win32/bin/../lib/gcc/arm-none-eabi/7.2.1/thumb/v7e-m/fpv4-sp/hard\libgcc.a
LOAD d:/gcc-arm-none-eabi-7-2017-q4-major-win32/bin/../lib/gcc/arm-none-eabi/7.2.1/../../../../arm-none-eabi/lib/thumb/v7e-m/fpv4-sp/hard\libc_nano.a
END GROUP
START GROUP
LOAD d:/gcc-arm-none-eabi-7-2017-q4-major-win32/bin/../lib/gcc/arm-none-eabi/7.2.1/thumb/v7e-m/fpv4-sp/hard\libgcc.a
LOAD d:/gcc-arm-none-eabi-7-2017-q4-major-win32/bin/../lib/gcc/arm-none-eabi/7.2.1/../../../../arm-none-eabi/lib/thumb/v7e-m/fpv4-sp/hard\libc_nano.a
END GROUP
                0x10002000                _estack = (ORIGIN (STACKRAM) + LENGTH (STACKRAM))
                0x0803f000                __config_start = ORIGIN (FLASH_CONFIG)
                0x08040000                __config_end = (ORIGIN (FLASH_CONFIG) + LENGTH (FLASH_CONFIG))
                0x00000000                _Min_Heap_Size = 0x0
                0x00000800                _Min_Stack_Size = 0x800

.isr_vector     0x08000000      0x188
                0x08000000                . = ALIGN (0x4)
                [!provide]                PROVIDE (isr_vector_table_base, .)
 *(.isr_vector)
 .isr_vector    0x08000000      0x188 obj/main/BETAFLIGHTF3/startup_stm32f30x_md_gcc.o
                0x08000000                g_pfnVectors
                0x08000188                . = ALIGN (0x4)

.text           0x08000188    0x3acb8
                0x08000188                . = ALIGN (0x4)
 *(.text)
 .text          0x08000188     0x7420 C:\cygwin64\tmp\ccTUqUH8.ltrans0.ltrans.o
                0x08000188                taskCameraControl
                0x080001fc                dispatchProcess
                0x08000230                uartWrite.lto_priv.697
                0x080002b8                uartRead.lto_priv.700
                0x080002f0                isUartTransmitBufferEmpty.lto_priv.701
                0x08000308                uartTotalTxBytesFree.lto_priv.699
                0x0800032c                uartTotalRxBytesWaiting.lto_priv.698
                0x08000354                mspRebootFn.lto_priv.502
                0x0800036c                mspEscPassthroughFn.lto_priv.500
                0x08000380                taskBatteryAlerts
                0x080005f0                uartSetMode.lto_priv.702
                0x0800069c                mspProcessOutCommand.lto_priv.552
                0x080016cc                enableFlightMode
                0x080016fc                setArmingDisabled
                0x0800170c                fcTasksInit
                0x080018b8                changePidProfile
                0x080018f0                HardFault_Handler
                0x08001924                writeEEPROM
                0x08001938                validateAndFixGyroConfig
                0x08001a74                resetConfigs
                0x08001ac4                resetEEPROM
                0x08001adc                timerOCInit
                0x08001cb4                timerInit
                0x08001ef0                TIM1_TRG_COM_TIM17_IRQHandler
                0x08001fbc                TIM1_BRK_TIM15_IRQHandler
                0x08002088                TIM8_UP_IRQHandler
                0x08002154                TIM8_CC_IRQHandler
                0x08002220                TIM4_IRQHandler
                0x080022e8                TIM3_IRQHandler
                0x080023a4                TIM2_IRQHandler
                0x08002460                TIM1_UP_TIM16_IRQHandler
                0x080025dc                TIM1_CC_IRQHandler
                0x08002698                timerChConfigCallbacks
                0x080027f0                timerConfigure
                0x0800297c                timerRCC
                0x08002a08                failureMode
                0x08002c58                readEEPROM
                0x08002fa4                saveConfigAndNotify
                0x08002fc0                taskUpdateAccelerometer.lto_priv.443
                0x080034d0                indicateFailure
                0x08003724                micros
                0x080037bc                taskTelemetry.lto_priv.446
                0x080044b4                taskUpdateRxMain.lto_priv.444
                0x08006c74                delayMicroseconds
                0x08006d28                delay
                0x08006dec                SysTick_Handler
                0x08006e20                systemBeep
                0x08006e74                USART3_IRQHandler
                0x08006ef0                USART2_IRQHandler
                0x08006f6c                USART1_IRQHandler
                0x08006fe8                taskHandleSerial.lto_priv.445
 .text          0x080075a8     0x8970 C:\cygwin64\tmp\ccTUqUH8.ltrans1.ltrans.o
                0x080075a8                escSerialTotalBytesWaiting.lto_priv.327
                0x080075ee                isEscSerialTransmitBufferEmpty.lto_priv.328
                0x08009a04                rxUpdateCheck
                0x0800a158                onSerialRxPinChangeEsc.lto_priv.325
                0x0800a23c                onSerialRxPinChangeBL.lto_priv.274
                0x0800ab30                cmsHandler
                0x0800b998                pgResetFn_rxConfig
                0x0800bd9c                escSerialOutputPortConfig.lto_priv.331
                0x0800bdbe                escSerialInputPortConfig.lto_priv.329
                0x0800bde4                setTxSignalEsc.lto_priv.330
                0x0800be70                onSerialTimerEsc.lto_priv.324
                0x0800bfa0                onSerialTimerBL.lto_priv.275
                0x0800c0de                ws2811UpdateStrip
                0x0800c2b4                saUpdateStatusString
                0x0800c420                cmsDisplayPortRegister
                0x0800c444                blackboxWriteString
                0x0800c49c                blackboxWrite
                0x0800c848                blackboxWriteUnsignedVB
                0x0800c884                blackboxWriteSignedVB
                0x0800cf24                blackboxInit
                0x0800cfac                blackboxGetRateNum
                0x0800cfd4                blackboxUpdate
                0x0800ddc8                gyroInit
                0x0800e5f8                alignSensors
                0x0800e71c                accInitFilters
                0x0800e9ac                accInit
                0x0800ea6c                parseRcChannels
                0x0800eaac                resumeRxSignal
                0x0800eb60                suspendRxSignal
                0x0800ec1c                rxInit
                0x0800f4a4                StkRcvPacket.lto_priv.295
                0x0800f5d8                StkSendByte.lto_priv.293
                0x0800f67c                StkSendPacketFooter.lto_priv.294
                0x0800f6b8                StkSendPacketHeader.lto_priv.292
                0x0800f880                esc4wayProcess
 .text          0x0800ff18     0x7118 C:\cygwin64\tmp\ccTUqUH8.ltrans2.ltrans.o
                0x0800ff18                afatfs_freeFileCreated.lto_priv.424
                0x0800ffec                Standard_GetStatus
                0x08010074                Standard_GetInterface
                0x0801009c                Standard_GetConfiguration
                0x080100c4                vtxTrampGetFreq
                0x080100dc                vtxTrampGetPitMode
                0x080100f4                vtxTrampGetPowerIndex
                0x08010138                vtxTrampGetBandAndChannel
                0x08010160                vtxTrampIsReady
                0x08010174                vtxTrampGetDeviceType
                0x08010178                vtxSAGetPitMode
                0x08010198                vtxSAGetPowerIndex
                0x080101d8                vtxSAGetBandAndChannel
                0x08010220                vtxSAIsReady
                0x08010234                vtxSAGetDeviceType
                0x0801028e                vtxSASetPowerByIndex
                0x080102fc                escSensorProcess
                0x08010b48                srxlGrab.lto_priv.503
                0x08010b50                txBytesFree.lto_priv.288
                0x08010b58                srxlTxBytesFree.lto_priv.513
                0x08010b60                srxlResync.lto_priv.512
                0x08010b64                release.lto_priv.279
                0x08010b68                srxlHeartbeat.lto_priv.511
                0x08010b6c                isTransferInProgress.lto_priv.521
                0x08010b70                srxlIsTransferInProgress.lto_priv.510
                0x08010b74                srxlClearScreen.lto_priv.505
                0x08010c64                srxlRelease.lto_priv.504
                0x08010c74                srxlWriteString.lto_priv.508
                0x08010cb0                srxlWriteChar.lto_priv.509
                0x08010ce4                screenSize.lto_priv.518
                0x08010cf0                srxlScreenSize.lto_priv.507
                0x08010cfc                srxlDrawScreen.lto_priv.506
                0x08010d00                resync.lto_priv.523
                0x08010d18                heartbeat.lto_priv.286
                0x08010d1c                isTransferInProgress.lto_priv.285
                0x08010d20                writeChar.lto_priv.284
                0x08010d3c                writeString.lto_priv.283
                0x08010d6c                screenSize.lto_priv.282
                0x08010d78                grab.lto_priv.278
                0x08010e08                escSerialSetBaudRate.lto_priv.277
                0x080110cc                srxlFrameText
                0x08011170                srxlFrameFlightPackCurrent
                0x08011224                srxlFrameRpm
                0x0801129c                srxlFrameQos
                0x0801146c                ledStripUpdate
                0x080118e4                txBytesFree.lto_priv.524
                0x08011914                writeString.lto_priv.519
                0x08011968                writeChar.lto_priv.520
                0x08011980                drawScreen.lto_priv.517
                0x080119b0                clearScreen.lto_priv.516
                0x080119dc                release.lto_priv.515
                0x08011a08                heartbeat.lto_priv.522
                0x08011a2c                grab.lto_priv.514
                0x08011a30                resync.lto_priv.287
                0x08011a68                drawScreen.lto_priv.281
                0x08011c6c                clearScreen.lto_priv.280
                0x08011ce8                afatfs_assert.part.0.lto_priv.458
                0x08011ecc                afatfs_fseekInternal.lto_priv.291
                0x08011f00                afatfs_cacheSector.lto_priv.289
                0x08012170                afatfs_findNext
                0x08012248                afatfs_saveDirectoryEntry.lto_priv.456
                0x08012398                afatfs_fclose
                0x080123cc                afatfs_FATFillWithPattern.lto_priv.457
                0x08012608                afatfs_findClusterWithCondition.lto_priv.460
                0x080129a0                afatfs_fwrite.part.20
                0x080130f8                afatfs_fileOperationContinue.part.18.lto_priv.459
                0x080131ec                sdcard_isInserted
                0x08013258                sdcard_poll.part.5
                0x08013734                mixerTricopterInit
                0x08013734                NOP_Process
                0x08013738                SetEPRxCount
                0x08013780                Post0_Process
                0x080137c4                SetEPTxCount
                0x080137e4                DataStageIn.lto_priv.296
                0x080138c4                DMA_StructInit
                0x080138e0                DMA_Init
                0x08013920                DMA_DeInit
                0x08013a48                afatfs_flush.part.13
                0x08013c84                FLASH_GetStatus
                0x08013cac                NVIC_Init.part.0
                0x08013cf4                NVIC_Init
                0x08013d18                TIM_CCxCmd
                0x08013d34                TIM_DeInit
                0x08013e74                RCC_GetClocksFreq
                0x0801425c                USART_Init
                0x08014310                GPIO_Init
                0x0801439c                Set_System
                0x08014450                trampCommitChanges
                0x08014468                vtxTrampSetFreq
                0x08014494                vtxTrampSetPowerByIndex
                0x080144c8                trampCmdU16
                0x08014524                vtxTrampSetPitMode
                0x08014540                vtxTrampProcess
                0x08014830                saSetMode
                0x08014860                vtxSASetPitMode
                0x08014888                saDevSetBandAndChannel.lto_priv.404
                0x080148b4                vtxSASetBandAndChannel
                0x080148c8                saDoDevSetFreq.lto_priv.403
                0x08014950                vtxSASetFreq
                0x08014970                vtxSAProcess
                0x08014cc0                vtx58_Bandchan2Freq
                0x08014ce8                trampSetBandAndChannel
                0x08014d0c                vtxTrampSetBandAndChannel
                0x08014d28                vtxSAGetFreq
                0x08014d6c                calculateCrc8
                0x08014d9c                escSensorInit
                0x08014e0c                getEscSensorData
                0x08014eec                sendMspReply
                0x08015028                handleMspFrame
                0x0801521c                processSmartPortTelemetry
                0x080156a0                smartPortSendByte
                0x08015724                workAroundForHottTelemetryOnUsart.isra.4.lto_priv.670
                0x08015770                flushHottRxBuffer.lto_priv.671
                0x08015790                hottConfigurePortForRX.lto_priv.669
                0x080157c8                frSkyHubWriteFrame.lto_priv.672
                0x080157f8                crsfFinalize.lto_priv.668
                0x0801582c                crsfSendMspResponse
                0x0801586c                telemetryCheckRxPortShared.part.1
                0x08015880                telemetryCheckRxPortShared
                0x08015894                telemetryDetermineEnabledState
                0x080158c0                telemetryCheckState
                0x08015a24                telemetryInit
                0x08015b84                setModeColor
                0x08015bd4                parseColor
                0x08015c4c                reevaluateLedConfig
                0x08015d7c                parseLedStripConfig.part.13
                0x08015f58                ledStripEnable
                0x08015fa4                rcdeviceInit
                0x08016168                rcdeviceUpdate
                0x0801652c                vtxCommonGetPitMode
                0x08016544                vtxCommonGetPowerIndex
                0x08016740                vtxCommonSetPitMode
                0x08016758                vtxCommonGetDeviceType
                0x08016770                vtxUpdate
                0x08016a4c                escSerialGPIOConfig.isra.5.lto_priv.402
                0x08016a6c                escEnablePassthrough
                0x08016f28                afatfs_createFile.lto_priv.406
 .text          0x08017030     0xb9e4 C:\cygwin64\tmp\ccTUqUH8.ltrans3.ltrans.o
                0x08017104                pgResetFn_servoConfig
                0x08017148                pgResetFn_pidProfiles
                0x0801719c                pgResetFn_motorConfig
                0x08017dfc                WriteByteCrc.lto_priv.407
                0x08017e38                ReadByte.lto_priv.350
                0x08017e54                ReadByteCrc.lto_priv.408
                0x08017e84                cliWrite.lto_priv.678
                0x08017e94                cliPrint.lto_priv.677
                0x08017f9a                cliPrintLinefeed.lto_priv.680
                0x08017fa4                cliHelp.lto_priv.639
                0x080180ea                cliVersion.lto_priv.662
                0x08018138                cliTasks.lto_priv.661
                0x080182f0                cliRateProfile.lto_priv.648
                0x08018354                cliProfile.lto_priv.647
                0x08018580                cliName.lto_priv.646
                0x080185dc                cliVtx.lto_priv.663
                0x08018f04                cliAux.lto_priv.627
                0x08019010                cliPrintLine.lto_priv.676
                0x0801901e                cliDma.lto_priv.650
                0x08019094                cliGet.lto_priv.638
                0x080193a0                cliSdInfo.lto_priv.654
                0x08019480                cliStatus.lto_priv.660
                0x08019618                cliDshotProg.lto_priv.633
                0x08019704                cliServo.lto_priv.657
                0x080197e4                cliModeColor.lto_priv.644
                0x08019860                cliColor.lto_priv.630
                0x080198b4                cliLed.lto_priv.640
                0x08019908                cliAdjustmentRange.lto_priv.626
                0x08019a0c                cliSerialPassthrough.lto_priv.656
                0x08019b7c                cliSerial.lto_priv.655
                0x08019c68                cliRxFailsafe.lto_priv.651
                0x08019d7c                servosFilterInit
                0x08019db4                loadCustomServoMixer
                0x08019e00                servoConfigureOutput
                0x08019e80                servosInit
                0x08019ed4                pidInitFilters.part.1
                0x0801a30a                pidCopyProfile
                0x0801a344                pidInit
                0x0801a604                pidInitConfig
                0x0801a8b0                convertExternalToMotor
                0x0801a998                cliMotor.lto_priv.645
                0x0801aa7c                stopPwmAllMotors
                0x0801abec                cliExit.lto_priv.636
                0x0801ac20                cliSave.lto_priv.653
                0x0801ac2e                cliBootloader.lto_priv.629
                0x0801ac32                stopMotors
                0x0801ad90                mixerConfigureOutput
                0x0801b09c                initEscEndpoints
                0x0801b204                areMotorsRunning
                0x0801b2c4                imuInit
                0x0801b3d8                failsafeActivate.lto_priv.673
                0x0801b414                isModeActivationConditionPresent
                0x0801b45c                isRangeActive
                0x0801b4b0                isAirmodeActive
                0x0801b4cc                IS_RC_MODE_ACTIVE
                0x08020dfc                calculateThrottleStatus
                0x08020e7c                blackboxLogInflightAdjustmentEvent.part.0.lto_priv.675
                0x08020eb0                initRcProcessing
                0x080212ac                updateArmingStatus.part.0
                0x080215ac                cliDefaults.lto_priv.631
                0x080215e4                cliMixer.lto_priv.642
                0x08021698                cliEscPassthrough.lto_priv.635
                0x08021768                cliBeeper.lto_priv.628
                0x080218cc                cliFeature.lto_priv.637
                0x080219e8                cliServoMix.lto_priv.659
                0x08021c78                cliMotorMix.lto_priv.643
                0x08021dcc                cliResource.lto_priv.649
                0x0802202c                cliSet.lto_priv.658
                0x08022258                cliRxRange.lto_priv.652
                0x08022314                checkCommand.lto_priv.679
                0x08022970                cliDiff.lto_priv.632
                0x08022974                cliDump.lto_priv.634
                0x08022978                cliMap.lto_priv.641
 .text          0x08022a14     0x6108 C:\cygwin64\tmp\ccTUqUH8.ltrans4.ltrans.o
                0x08022a14                pwmWriteUnused.lto_priv.272
                0x08022ac4                pwmOverflowCallback.lto_priv.263
                0x08022aec                ppmEdgeCallback.lto_priv.264
                0x08022c84                ppmOverflowCallback.lto_priv.265
                0x08022ccc                pwmCompleteOneshotMotorUpdate.lto_priv.271
                0x08023218                nopConsumer.lto_priv.276
                0x0802321c                pwmCompleteWriteUnused.lto_priv.270
                0x08023220                loadDmaBufferProshot.lto_priv.267
                0x08023264                loadDmaBufferDshot.lto_priv.268
                0x080233b4                pgResetFn_controlRateProfiles
                0x080233e4                pgResetFn_voltageSensorADCConfig
                0x080233f8                taskSystem
                0x08023424                pgResetFn_ppmConfig
                0x0802342c                pgResetFn_pwmConfig
                0x08023500                pgResetFn_adcConfig
                0x08023844                pwmWriteDshot.lto_priv.266
                0x080238a8                pwmWriteStandard.lto_priv.269
                0x080238d4                pgResetFn_serialConfig
                0x08023adc                batteryUpdateCurrentMeter
                0x08023cd8                batteryUpdateVoltage
                0x08023eec                pgResetFn_sdcardConfig
                0x08023f3c                pwmDisableMotors
                0x08023f94                pwmEnableMotors
                0x08023fb4                pwmICConfig
                0x080240c4                pwmEdgeCallback.lto_priv.262
                0x08024120                pwmWriteDshotCommand
                0x080244dc                pwmOutConfig
                0x080247e4                cameraControlKeyPress
                0x08024944                TIM7_IRQHandler
                0x08024960                TIM6_DAC_IRQHandler
                0x0802497c                copyControlRateProfile
                0x080249b0                changeControlRateProfile
                0x080249d4                isBatteryVoltageAvailable
                0x080249f0                calculateBatteryPercentageRemaining
                0x08024a84                scheduler
                0x08024c88                getTaskInfo
                0x08024cf8                queueAdd
                0x08024d94                setTaskEnabled.part.0
                0x08024df8                pgResetInstance
                0x08024e40                pgFind
                0x08024e6c                mspSerialEncode.isra.1.lto_priv.290
                0x08024f30                warningLedRefresh
                0x08024f74                waitForSerialPortToFinishTransmitting
                0x080250b8                closeSerialPort
                0x08025110                mspSerialReleasePortIfAllocated
                0x08025140                openSerialPort
                0x080258ac                determinePortSharing
                0x080258c0                findSerialPortConfig
                0x0802592c                mspSerialAllocatePorts
                0x080259a4                lookupBaudRateIndex
                0x08025a5c                beeperModeMaskForTableIndex
                0x08025a80                beeperSilence
                0x08025ab4                beeper
                0x08025b30                beeperConfirmationBeeps
                0x08025b60                tryArm
                0x0802627c                disarm
                0x080263a8                beeperUpdate
                0x080264dc                findBoxByPermanentId
                0x08026514                findBoxByBoxId
                0x08026548                mspFcProcessCommand
                0x0802804c                init
 .text          0x08028b1c     0x536c C:\cygwin64\tmp\ccTUqUH8.ltrans5.ltrans.o
                0x08028b1c                pgResetFn_serialPinConfig
                0x08028b4c                serialWriteBufShim
                0x08028b8c                pgResetFn_statusLedConfig
                0x08028e8c                firFilterDenoiseUpdate
                0x08028eee                biquadFilterApply
                0x08028f34                biquadFilterApplyDF1
                0x08028f82                pt1FilterApply
                0x08028f9c                nullFilterApply
                0x08028f9e                crc16_ccitt_update
                0x08028fd2                pgResetFn_osdConfig
                0x080290b8                mpu6000SpiAccInit
                0x08029164                motor_DMA_IRQHandler.lto_priv.273
                0x080291a4                pwmCompleteDshotMotorUpdate
                0x080293ae                serialWriteBuf.part.0
                0x080293da                serialEndWrite
                0x080293e4                serialBeginWrite
                0x080293ee                serialWriteBuf
                0x0802942e                serialSetMode
                0x08029434                serialRead
                0x0802943a                serialTxBytesFree
                0x08029440                serialRxBytesWaiting
                0x08029446                serialWrite
                0x0802944c                _putc.lto_priv.483
                0x08029458                ledToggle
                0x08029474                IOConfigGPIOAF.part.1
                0x08029810                IOConfigGPIO.part.0
                0x08029b80                IOGetByTag
                0x08029bd0                IOInitGlobal
                0x08029d0c                IOConfigGPIOAF
                0x0802a028                IOConfigGPIO
                0x0802a31c                IOLo
                0x0802a326                IOHi
                0x0802a330                IOWrite
                0x0802a340                ledSet
                0x0802a374                IORead
                0x0802a386                EXTI15_10_IRQHandler
                0x0802a3c4                EXTI0_IRQHandler
                0x0802a400                EXTI9_5_IRQHandler
                0x0802a43c                EXTI4_IRQHandler
                0x0802a478                EXTI3_IRQHandler
                0x0802a4b4                EXTI2_TS_IRQHandler
                0x0802a4f0                EXTI1_IRQHandler
                0x0802a52c                EXTIInit
                0x0802a570                displayHeartbeat
                0x0802a576                displayWriteChar
                0x0802a588                displayWrite
                0x0802a5ec                displayGrab
                0x0802a606                displayClearScreen
                0x0802a61a                spiPreInitCs
                0x0802a634                spiTimeoutUserCallback
                0x0802a66c                mpu6000SpiGyroInit
                0x0802b278                mpuGyroReadSPI
                0x0802b330                mpuAccRead
                0x0802b41a                bufWriterFlush
                0x0802b434                bufWriterAppend
                0x0802b45e                adcVerifyPin
                0x0802b49c                adcChannelByTag
                0x0802b4cc                featureClear
                0x0802b4dc                isEEPROMContentValid
                0x0802b548                writeConfigToEEPROM
                0x0802b69c                fastA2F
                0x0802b830                _i2a.lto_priv.261
                0x0802b878                ftoa
                0x0802ba3c                rtcGetDateTime
                0x0802ba84                dateTimeToRtcTime.lto_priv.553
                0x0802bae8                strncasecmp
                0x0802bb30                strcasecmp
                0x0802bb38                toupper
                0x0802bb44                tolower
                0x0802bb50                isspace
                0x0802bb64                islower
                0x0802bb70                isupper
                0x0802bb7c                isdigit
                0x0802bb88                isalnum
                0x0802bba4                sbufReadU32
                0x0802bbd2                sbufReadU16
                0x0802bbe8                sbufReadU8
                0x0802bbf2                sbufWriteData
                0x0802bc06                sbufWriteU16BigEndian
                0x0802bc20                sbufWriteU32
                0x0802bc4e                sbufWriteU16
                0x0802bc62                tfp_format
                0x0802bdf2                tfp_sprintf
                0x0802be20                dateTimeFormat.lto_priv.405
                0x0802c05c                tfp_printf
                0x0802c0a0                sin_approx.part.0
                0x0802c178                gcd
                0x0802c196                biquadFilterInitLPF
                0x0802c3e4                crc8_dvb_s2_sbuf_append
                0x0802c428                bitArraySet
                0x0802c446                bitArrayGet
                0x0802c460                osdFormatRtcDateTime.lto_priv.551
                0x0802cc9c                osdUpdate
                0x0802d3c0                spiTransfer
                0x0802d41e                spiTransferByte
                0x0802d458                spiSetDivisor
                0x0802d498                max7456RefreshAll.part.0
                0x0802d580                max7456Brightness
                0x0802d5d0                max7456ReInit
                0x0802d708                dmaGetIdentifier
                0x0802d72c                dmaSetHandler
                0x0802d848                dmaInit
                0x0802d880                serialUART
                0x0802d9e4                ws2811LedStripHardwareInit
                0x0802dba8                DMA2_Channel5_IRQHandler
                0x0802dbbc                DMA2_Channel4_IRQHandler
                0x0802dbd0                DMA2_Channel3_IRQHandler
                0x0802dbe4                DMA2_Channel2_IRQHandler
                0x0802dbf8                DMA2_Channel1_IRQHandler
                0x0802dc0c                DMA1_Channel7_IRQHandler
                0x0802dc20                DMA1_Channel6_IRQHandler
                0x0802dc34                DMA1_Channel5_IRQHandler
                0x0802dc44                DMA1_Channel4_IRQHandler
                0x0802dc54                DMA1_Channel3_IRQHandler
                0x0802dc64                DMA1_Channel2_IRQHandler
                0x0802dc74                DMA1_Channel1_IRQHandler
                0x0802dc84                spiIsBusBusy
                0x0802dc98                spiInitDevice
                0x0802de18                SystemInit
 .text          0x0802de88     0x4e3c C:\cygwin64\tmp\ccTUqUH8.ltrans6.ltrans.o
                0x0802de88                usbTxBytesFree.lto_priv.527
                0x0802de8c                usbVcpBeginWrite.lto_priv.533
                0x0802de94                usbVcpAvailable.lto_priv.526
                0x0802dea0                isUsbVcpTransmitBufferEmpty.lto_priv.530
                0x0802dea4                usbVcpSetMode.lto_priv.531
                0x0802dea6                usbVcpSetBaudRate.lto_priv.529
                0x0802dfd4                Virtual_Com_Port_SetDeviceAddress
                0x0802dfe0                Virtual_Com_Port_SetConfiguration
                0x0802e160                usbVcpRead.lto_priv.528
                0x0802e444                usbVcpEndWrite.lto_priv.534
                0x0802e44c                usbVcpWrite.lto_priv.525
                0x0802e46c                usbVcpWriteBuf.lto_priv.532
                0x0802e4a8                RCC_ClockCmd.constprop.248
                0x0802e4e4                IOConfigGPIO.constprop.246
                0x0802e594                adcInit.constprop.239
                0x0802e898                timerOCPreloadConfig.constprop.226
                0x0802e8d6                TIM_TimeBaseInit.constprop.225
                0x0802e974                timerGetByTag.constprop.220
                0x0802e9ec                EXTI_Init.part.0.constprop.210
                0x0802ead0                indicate.part.2.constprop.198
                0x0802ee04                indicate.part.2.constprop.197
                0x0802f11c                a2i.constprop.191
                0x0802f162                itoa.constprop.189
                0x0802f324                osdFormatMessage.constprop.188
                0x0802f34a                arm_radix8_butterfly_f32.constprop.185
                0x0802f8ea                timerChConfigCallbacks.constprop.180
                0x0802fa44                timerChConfigIC.constprop.178
                0x0802fb42                biquadFilterInit.constprop.176
                0x0802fd60                isSerialConfigValid.constprop.170
                0x08030008                FLASH_WaitForLastOperation.constprop.167
                0x08030032                sdcard_init.constprop.162
                0x08030144                max7456DisplayPortInit.constprop.161
                0x08030224                findNextSerialPortConfig.constprop.144
                0x080302d8                servoDevInit.constprop.143
                0x08030484                gyroInitSensorFilters.constprop.137
                0x08030f80                pwmRxInit.constprop.127
                0x0803102c                ppmRxInit.constprop.126
                0x08031100                motorDevInit.constprop.125
                0x08031980                serialInit.constprop.124
                0x08031a78                spektrumBind.constprop.121
                0x08031d54                ledInit.constprop.120
                0x08031de4                arraySubInt32.constprop.116
                0x08031e04                afatfs_FATGetNextCluster.constprop.88
                0x08031e54                findNextSharedSerialPort.constprop.86
                0x08031f14                findSharedSerialPort.constprop.85
                0x08031fd4                serialTimerRxConfigBL.constprop.83
                0x08032018                serialTimerTxConfigBL.constprop.82
                0x08032058                serialPassthrough.constprop.77
                0x0803210c                mspSerialPush.constprop.76
                0x08032150                afatfs_fseek.constprop.56
                0x080321bc                blackboxWriteSignedVBArray.constprop.53
                0x080321d8                readBitfield.constprop.48
                0x08032218                mixerLoadMix.constprop.41
                0x08032278                generateLedConfig.constprop.36
                0x0803230c                _CMD_SPI_MULTI_EX.constprop.30
                0x08032398                saSendFrame.constprop.11
                0x080323d8                USBWakeUp_IRQHandler
                0x080323e8                PendSV_Handler
                0x080323ea                DebugMon_Handler
                0x080323ec                SVC_Handler
                0x080323ee                UsageFault_Handler
                0x080323f0                BusFault_Handler
                0x080323f2                MemManage_Handler
                0x080323f4                NMI_Handler
                0x080323f6                USB_Interrupts_Config
                0x08032454                USB_LP_CAN1_RX0_IRQHandler
 .text          0x08032cc4       0xc0 obj/main/BETAFLIGHTF3/./lib/main/DSP_Lib/Source/TransformFunctions/arm_bitreversal2.o
                0x08032cc4                arm_bitreversal_32
                0x08032d2e                arm_bitreversal_16
 .text          0x08032d84       0x14 d:/gcc-arm-none-eabi-7-2017-q4-major-win32/bin/../lib/gcc/arm-none-eabi/7.2.1/../../../../arm-none-eabi/lib/thumb/v7e-m/fpv4-sp/hard\libc_nano.a(lib_a-strcmp.o)
                0x08032d84                strcmp
 .text          0x08032d98       0x10 d:/gcc-arm-none-eabi-7-2017-q4-major-win32/bin/../lib/gcc/arm-none-eabi/7.2.1/../../../../arm-none-eabi/lib/thumb/v7e-m/fpv4-sp/hard\libc_nano.a(lib_a-strlen.o)
                0x08032d98                strlen
 .text          0x08032da8      0x378 d:/gcc-arm-none-eabi-7-2017-q4-major-win32/bin/../lib/gcc/arm-none-eabi/7.2.1/thumb/v7e-m/fpv4-sp/hard\libgcc.a(_arm_addsubdf3.o)
                0x08032da8                __aeabi_drsub
                0x08032db0                __aeabi_dsub
                0x08032db0                __subdf3
                0x08032db4                __aeabi_dadd
                0x08032db4                __adddf3
                0x0803302c                __floatunsidf
                0x0803302c                __aeabi_ui2d
                0x0803304c                __floatsidf
                0x0803304c                __aeabi_i2d
                0x08033070                __aeabi_f2d
                0x08033070                __extendsfdf2
                0x080330b4                __floatundidf
                0x080330b4                __aeabi_ul2d
                0x080330c4                __floatdidf
                0x080330c4                __aeabi_l2d
 .text          0x08033120      0x424 d:/gcc-arm-none-eabi-7-2017-q4-major-win32/bin/../lib/gcc/arm-none-eabi/7.2.1/thumb/v7e-m/fpv4-sp/hard\libgcc.a(_arm_muldivdf3.o)
                0x08033120                __aeabi_dmul
                0x08033120                __muldf3
                0x08033374                __divdf3
                0x08033374                __aeabi_ddiv
 .text          0x08033544      0x110 d:/gcc-arm-none-eabi-7-2017-q4-major-win32/bin/../lib/gcc/arm-none-eabi/7.2.1/thumb/v7e-m/fpv4-sp/hard\libgcc.a(_arm_cmpdf2.o)
                0x08033544                __gtdf2
                0x08033544                __gedf2
                0x0803354c                __ltdf2
                0x0803354c                __ledf2
                0x08033554                __nedf2
                0x08033554                __eqdf2
                0x08033554                __cmpdf2
                0x080335d0                __aeabi_cdrcmple
                0x080335e0                __aeabi_cdcmpeq
                0x080335e0                __aeabi_cdcmple
                0x080335f0                __aeabi_dcmpeq
                0x08033604                __aeabi_dcmplt
                0x08033618                __aeabi_dcmple
                0x0803362c                __aeabi_dcmpge
                0x08033640                __aeabi_dcmpgt
 .text          0x08033654       0x40 d:/gcc-arm-none-eabi-7-2017-q4-major-win32/bin/../lib/gcc/arm-none-eabi/7.2.1/thumb/v7e-m/fpv4-sp/hard\libgcc.a(_arm_fixunsdfsi.o)
                0x08033654                __aeabi_d2uiz
                0x08033654                __fixunsdfsi
 .text          0x08033694       0xa0 d:/gcc-arm-none-eabi-7-2017-q4-major-win32/bin/../lib/gcc/arm-none-eabi/7.2.1/thumb/v7e-m/fpv4-sp/hard\libgcc.a(_arm_truncdfsf2.o)
                0x08033694                __truncdfsf2
                0x08033694                __aeabi_d2f
 .text          0x08033734       0xa0 d:/gcc-arm-none-eabi-7-2017-q4-major-win32/bin/../lib/gcc/arm-none-eabi/7.2.1/thumb/v7e-m/fpv4-sp/hard\libgcc.a(_aeabi_ldivmod.o)
                0x08033734                __aeabi_ldivmod
 .text          0x080337d4       0x28 d:/gcc-arm-none-eabi-7-2017-q4-major-win32/bin/../lib/gcc/arm-none-eabi/7.2.1/thumb/v7e-m/fpv4-sp/hard\libgcc.a(_popcountsi2.o)
                0x080337d4                __popcountsi2
 .text          0x080337fc      0x2cc d:/gcc-arm-none-eabi-7-2017-q4-major-win32/bin/../lib/gcc/arm-none-eabi/7.2.1/thumb/v7e-m/fpv4-sp/hard\libgcc.a(_udivmoddi4.o)
                0x080337fc                __udivmoddi4
 .text          0x08033ac8        0x4 d:/gcc-arm-none-eabi-7-2017-q4-major-win32/bin/../lib/gcc/arm-none-eabi/7.2.1/thumb/v7e-m/fpv4-sp/hard\libgcc.a(_dvmd_tls.o)
                0x08033ac8                __aeabi_idiv0
                0x08033ac8                __aeabi_ldiv0
 *(.text*)
 .text.Reset_Handler
                0x08033acc       0x68 obj/main/BETAFLIGHTF3/startup_stm32f30x_md_gcc.o
                0x08033acc                Reset_Handler
 .text.Default_Handler
                0x08033b34        0x2 obj/main/BETAFLIGHTF3/startup_stm32f30x_md_gcc.o
                0x08033b34                RTC_Alarm_IRQHandler
                0x08033b34                TIM8_TRG_COM_IRQHandler
                0x08033b34                USB_HP_IRQHandler
                0x08033b34                PVD_IRQHandler
                0x08033b34                I2C2_EV_IRQHandler
                0x08033b34                FPU_IRQHandler
                0x08033b34                ADC1_2_IRQHandler
                0x08033b34                SPI1_IRQHandler
                0x08033b34                CAN1_RX1_IRQHandler
                0x08033b34                UART5_IRQHandler
                0x08033b34                ADC3_IRQHandler
                0x08033b34                I2C1_EV_IRQHandler
                0x08033b34                UART4_IRQHandler
                0x08033b34                RCC_IRQHandler
                0x08033b34                Default_Handler
                0x08033b34                USBWakeUp_RMP_IRQHandler
                0x08033b34                TAMPER_STAMP_IRQHandler
                0x08033b34                RTC_WKUP_IRQHandler
                0x08033b34                SPI2_IRQHandler
                0x08033b34                USB_LP_IRQHandler
                0x08033b34                USB_HP_CAN1_TX_IRQHandler
                0x08033b34                ADC4_IRQHandler
                0x08033b34                WWDG_IRQHandler
                0x08033b34                COMP7_IRQHandler
                0x08033b34                COMP1_2_3_IRQHandler
                0x08033b34                COMP4_5_6_IRQHandler
                0x08033b34                I2C2_ER_IRQHandler
                0x08033b34                TIM8_BRK_IRQHandler
                0x08033b34                CAN1_SCE_IRQHandler
                0x08033b34                FLASH_IRQHandler
                0x08033b34                SPI3_IRQHandler
                0x08033b34                I2C1_ER_IRQHandler
 *fill*         0x08033b36        0x2 
 .text.unlikely
                0x08033b38      0x194 C:\cygwin64\tmp\ccTUqUH8.ltrans2.ltrans.o
                0x08033b38                afatfs_chdir.part.19
                0x08033b90                Standard_ClearFeature
                0x08033c94                vtxUpdateBandAndChannel.lto_priv.674
 .text.startup  0x08033ccc        0xc C:\cygwin64\tmp\ccTUqUH8.ltrans5.ltrans.o
                0x08033ccc                main
 .text.unlikely
                0x08033cd8      0x114 C:\cygwin64\tmp\ccTUqUH8.ltrans5.ltrans.o
                0x08033cd8                enableGPIOPowerUsageAndNoiseReductions
                0x08033d54                SetSysClock
 .text.atoi     0x08033dec        0x8 d:/gcc-arm-none-eabi-7-2017-q4-major-win32/bin/../lib/gcc/arm-none-eabi/7.2.1/../../../../arm-none-eabi/lib/thumb/v7e-m/fpv4-sp/hard\libc_nano.a(lib_a-atoi.o)
                0x08033dec                atoi
 .text.memcpy   0x08033df4       0x16 d:/gcc-arm-none-eabi-7-2017-q4-major-win32/bin/../lib/gcc/arm-none-eabi/7.2.1/../../../../arm-none-eabi/lib/thumb/v7e-m/fpv4-sp/hard\libc_nano.a(lib_a-memcpy-stub.o)
                0x08033df4                memcpy
 .text.__strtok_r
                0x08033e0a       0x54 d:/gcc-arm-none-eabi-7-2017-q4-major-win32/bin/../lib/gcc/arm-none-eabi/7.2.1/../../../../arm-none-eabi/lib/thumb/v7e-m/fpv4-sp/hard\libc_nano.a(lib_a-strtok_r.o)
                0x08033e0a                __strtok_r
 .text.strtok_r
                0x08033e5e        0x6 d:/gcc-arm-none-eabi-7-2017-q4-major-win32/bin/../lib/gcc/arm-none-eabi/7.2.1/../../../../arm-none-eabi/lib/thumb/v7e-m/fpv4-sp/hard\libc_nano.a(lib_a-strtok_r.o)
                0x08033e5e                strtok_r
 .text._strtol_l.isra.0
                0x08033e64       0xf6 d:/gcc-arm-none-eabi-7-2017-q4-major-win32/bin/../lib/gcc/arm-none-eabi/7.2.1/../../../../arm-none-eabi/lib/thumb/v7e-m/fpv4-sp/hard\libc_nano.a(lib_a-strtol.o)
 *fill*         0x08033f5a        0x2 
 .text.strtol   0x08033f5c       0x2c d:/gcc-arm-none-eabi-7-2017-q4-major-win32/bin/../lib/gcc/arm-none-eabi/7.2.1/../../../../arm-none-eabi/lib/thumb/v7e-m/fpv4-sp/hard\libc_nano.a(lib_a-strtol.o)
                0x08033f5c                strtol
 .text.__locale_ctype_ptr_l
                0x08033f88        0x6 d:/gcc-arm-none-eabi-7-2017-q4-major-win32/bin/../lib/gcc/arm-none-eabi/7.2.1/../../../../arm-none-eabi/lib/thumb/v7e-m/fpv4-sp/hard\libc_nano.a(lib_a-locale.o)
                0x08033f88                __locale_ctype_ptr_l
 .text.__ascii_mbtowc
                0x08033f8e       0x24 d:/gcc-arm-none-eabi-7-2017-q4-major-win32/bin/../lib/gcc/arm-none-eabi/7.2.1/../../../../arm-none-eabi/lib/thumb/v7e-m/fpv4-sp/hard\libc_nano.a(lib_a-mbtowc_r.o)
                0x08033f8e                __ascii_mbtowc
 .text.__ascii_wctomb
                0x08033fb2       0x1a d:/gcc-arm-none-eabi-7-2017-q4-major-win32/bin/../lib/gcc/arm-none-eabi/7.2.1/../../../../arm-none-eabi/lib/thumb/v7e-m/fpv4-sp/hard\libc_nano.a(lib_a-wctomb_r.o)
                0x08033fb2                __ascii_wctomb
 .text.__errno  0x08033fcc        0xc d:/gcc-arm-none-eabi-7-2017-q4-major-win32/bin/../lib/gcc/arm-none-eabi/7.2.1/../../../../arm-none-eabi/lib/thumb/v7e-m/fpv4-sp/hard\libc_nano.a(lib_a-errno.o)
                0x08033fcc                __errno
 .text.memcmp   0x08033fd8       0x1e d:/gcc-arm-none-eabi-7-2017-q4-major-win32/bin/../lib/gcc/arm-none-eabi/7.2.1/../../../../arm-none-eabi/lib/thumb/v7e-m/fpv4-sp/hard\libc_nano.a(lib_a-memcmp.o)
                0x08033fd8                memcmp
 .text.memmove  0x08033ff6       0x32 d:/gcc-arm-none-eabi-7-2017-q4-major-win32/bin/../lib/gcc/arm-none-eabi/7.2.1/../../../../arm-none-eabi/lib/thumb/v7e-m/fpv4-sp/hard\libc_nano.a(lib_a-memmove.o)
                0x08033ff6                memmove
 .text.memset   0x08034028       0x10 d:/gcc-arm-none-eabi-7-2017-q4-major-win32/bin/../lib/gcc/arm-none-eabi/7.2.1/../../../../arm-none-eabi/lib/thumb/v7e-m/fpv4-sp/hard\libc_nano.a(lib_a-memset.o)
                0x08034028                memset
 .text.strcat   0x08034038       0x1e d:/gcc-arm-none-eabi-7-2017-q4-major-win32/bin/../lib/gcc/arm-none-eabi/7.2.1/../../../../arm-none-eabi/lib/thumb/v7e-m/fpv4-sp/hard\libc_nano.a(lib_a-strcat.o)
                0x08034038                strcat
 .text.strchr   0x08034056       0x1a d:/gcc-arm-none-eabi-7-2017-q4-major-win32/bin/../lib/gcc/arm-none-eabi/7.2.1/../../../../arm-none-eabi/lib/thumb/v7e-m/fpv4-sp/hard\libc_nano.a(lib_a-strchr.o)
                0x08034056                strchr
 .text.strcpy   0x08034070       0x10 d:/gcc-arm-none-eabi-7-2017-q4-major-win32/bin/../lib/gcc/arm-none-eabi/7.2.1/../../../../arm-none-eabi/lib/thumb/v7e-m/fpv4-sp/hard\libc_nano.a(lib_a-strcpy.o)
                0x08034070                strcpy
 .text.strncmp  0x08034080       0x24 d:/gcc-arm-none-eabi-7-2017-q4-major-win32/bin/../lib/gcc/arm-none-eabi/7.2.1/../../../../arm-none-eabi/lib/thumb/v7e-m/fpv4-sp/hard\libc_nano.a(lib_a-strncmp.o)
                0x08034080                strncmp
 .text.strncpy  0x080340a4       0x2a d:/gcc-arm-none-eabi-7-2017-q4-major-win32/bin/../lib/gcc/arm-none-eabi/7.2.1/../../../../arm-none-eabi/lib/thumb/v7e-m/fpv4-sp/hard\libc_nano.a(lib_a-strncpy.o)
                0x080340a4                strncpy
 .text.strstr   0x080340ce       0x34 d:/gcc-arm-none-eabi-7-2017-q4-major-win32/bin/../lib/gcc/arm-none-eabi/7.2.1/../../../../arm-none-eabi/lib/thumb/v7e-m/fpv4-sp/hard\libc_nano.a(lib_a-strstr.o)
                0x080340ce                strstr
 *fill*         0x08034102        0x6 
 .text.ceil     0x08034108      0x110 d:/gcc-arm-none-eabi-7-2017-q4-major-win32/bin/../lib/gcc/arm-none-eabi/7.2.1/../../../../arm-none-eabi/lib/thumb/v7e-m/fpv4-sp/hard\libm.a(lib_a-s_ceil.o)
                0x08034108                ceil
 .text.ceilf    0x08034218       0x8c d:/gcc-arm-none-eabi-7-2017-q4-major-win32/bin/../lib/gcc/arm-none-eabi/7.2.1/../../../../arm-none-eabi/lib/thumb/v7e-m/fpv4-sp/hard\libm.a(lib_a-sf_ceil.o)
                0x08034218                ceilf
 .text.log2f    0x080342a4      0x13c d:/gcc-arm-none-eabi-7-2017-q4-major-win32/bin/../lib/gcc/arm-none-eabi/7.2.1/../../../../arm-none-eabi/lib/thumb/v7e-m/fpv4-sp/hard\libm.a(lib_a-sf_log2.o)
                0x080342a4                log2f
 .text.lrintf   0x080343e0       0x98 d:/gcc-arm-none-eabi-7-2017-q4-major-win32/bin/../lib/gcc/arm-none-eabi/7.2.1/../../../../arm-none-eabi/lib/thumb/v7e-m/fpv4-sp/hard\libm.a(lib_a-sf_lrint.o)
                0x080343e0                lrintf
 .text.powf     0x08034478      0x3a8 d:/gcc-arm-none-eabi-7-2017-q4-major-win32/bin/../lib/gcc/arm-none-eabi/7.2.1/../../../../arm-none-eabi/lib/thumb/v7e-m/fpv4-sp/hard\libm.a(lib_a-sf_pow.o)
                0x08034478                powf
 .text.with_errnof
                0x08034820       0x1c d:/gcc-arm-none-eabi-7-2017-q4-major-win32/bin/../lib/gcc/arm-none-eabi/7.2.1/../../../../arm-none-eabi/lib/thumb/v7e-m/fpv4-sp/hard\libm.a(lib_a-math_errf.o)
 .text.xflowf   0x0803483c       0x20 d:/gcc-arm-none-eabi-7-2017-q4-major-win32/bin/../lib/gcc/arm-none-eabi/7.2.1/../../../../arm-none-eabi/lib/thumb/v7e-m/fpv4-sp/hard\libm.a(lib_a-math_errf.o)
 .text.__math_uflowf
                0x0803485c        0xc d:/gcc-arm-none-eabi-7-2017-q4-major-win32/bin/../lib/gcc/arm-none-eabi/7.2.1/../../../../arm-none-eabi/lib/thumb/v7e-m/fpv4-sp/hard\libm.a(lib_a-math_errf.o)
                0x0803485c                __math_uflowf
 .text.__math_may_uflowf
                0x08034868        0xc d:/gcc-arm-none-eabi-7-2017-q4-major-win32/bin/../lib/gcc/arm-none-eabi/7.2.1/../../../../arm-none-eabi/lib/thumb/v7e-m/fpv4-sp/hard\libm.a(lib_a-math_errf.o)
                0x08034868                __math_may_uflowf
 .text.__math_oflowf
                0x08034874        0xc d:/gcc-arm-none-eabi-7-2017-q4-major-win32/bin/../lib/gcc/arm-none-eabi/7.2.1/../../../../arm-none-eabi/lib/thumb/v7e-m/fpv4-sp/hard\libm.a(lib_a-math_errf.o)
                0x08034874                __math_oflowf
 .text.__math_divzerof
                0x08034880       0x24 d:/gcc-arm-none-eabi-7-2017-q4-major-win32/bin/../lib/gcc/arm-none-eabi/7.2.1/../../../../arm-none-eabi/lib/thumb/v7e-m/fpv4-sp/hard\libm.a(lib_a-math_errf.o)
                0x08034880                __math_divzerof
 .text.__math_invalidf
                0x080348a4       0x20 d:/gcc-arm-none-eabi-7-2017-q4-major-win32/bin/../lib/gcc/arm-none-eabi/7.2.1/../../../../arm-none-eabi/lib/thumb/v7e-m/fpv4-sp/hard\libm.a(lib_a-math_errf.o)
                0x080348a4                __math_invalidf
 *(.rodata)
 .rodata        0x080348c4      0x11c C:\cygwin64\tmp\ccTUqUH8.ltrans0.ltrans.o
 .rodata        0x080349e0      0x534 C:\cygwin64\tmp\ccTUqUH8.ltrans1.ltrans.o
                0x080349fc                baudRates
                0x08034a44                rcChannelLetters
                0x08034dec                osdTimerSourceNames
                0x08034df8                trampPowerNames
                0x08034e3c                debugModeNames
                0x08034ed8                saPowerNames
                0x08034eec                vtx58BandNames
                0x08034f04                buildTime
                0x08034f08                buildDate
                0x08034f0c                targetName
                0x08034f10                shortGitRevision
 .rodata        0x08034f14      0x1c8 C:\cygwin64\tmp\ccTUqUH8.ltrans2.ltrans.o
                0x08034f14                saPowerTable
                0x08034fdc                trampPowerTable
                0x08034fe6                vtx58frequencyTable
                0x08035036                vtx58BandLetter
                0x08035040                vtx58ChannelNames
                0x080350d8                estimatedAltitude.lto_priv.555
 .rodata        0x080350dc     0x16bb C:\cygwin64\tmp\ccTUqUH8.ltrans3.ltrans.o
                0x080350dc                servoMixers
                0x080351c0                _reset_template_123.11263.lto_priv.494
                0x08035438                cmdTable
                0x080362b0                armingDisableFlagNames
                0x0803636c                beeperTable
                0x08036508                servoMixerAirplane.lto_priv.667
                0x0803652c                servoMixerFlyingWing.lto_priv.666
                0x08036550                servoMixerGimbal.lto_priv.665
                0x08036560                servoMixerTri.lto_priv.664
                0x08036718                beep_camCloseBeep.lto_priv.550
                0x0803671c                beep_camOpenBeep.lto_priv.549
                0x08036724                beep_armedBeep.lto_priv.548
                0x0803672c                beep_disarmRepeatBeep.lto_priv.547
                0x08036730                beep_readyBeep.lto_priv.546
                0x08036740                beep_2longerBeeps.lto_priv.545
                0x08036748                beep_2shortBeeps.lto_priv.544
                0x08036750                beep_shortBeep.lto_priv.543
                0x08036754                beep_lowBatteryBeep.lto_priv.542
                0x08036758                beep_critBatteryBeep.lto_priv.541
                0x0803675c                beep_armedGpsFix.lto_priv.540
                0x08036768                beep_armingBeep.lto_priv.539
                0x08036770                beep_disarmBeep.lto_priv.538
                0x08036778                beep_sos.lto_priv.537
                0x0803678c                beep_txLostBeep.lto_priv.536
                0x08036790                beep_gyroCalibrated.lto_priv.535
 *fill*         0x08036797        0x1 
 .rodata        0x08036798      0x3b8 C:\cygwin64\tmp\ccTUqUH8.ltrans4.ltrans.o
 .rodata        0x08036b50      0x166 C:\cygwin64\tmp\ccTUqUH8.ltrans5.ltrans.o
 *fill*         0x08036cb6        0x2 
 .rodata        0x08036cb8      0x58a C:\cygwin64\tmp\ccTUqUH8.ltrans6.ltrans.o
                0x08036cb8                ioPortDefs
                0x08036cc0                timerHardware
                0x08036e04                ioDefUsedMask.lto_priv.297
                0x08036e10                ioDefUsedOffset.lto_priv.298
                0x08036e30                mixers
                0x08036f08                directionCodes.lto_priv.317
                0x08036f10                baseFunctionCodes.lto_priv.318
                0x08036f18                overlayCodes.lto_priv.319
                0x08036fcc                mixerQuadX1234.lto_priv.455
                0x0803700c                mixerAtail4.lto_priv.454
                0x0803704c                mixerVtail4.lto_priv.453
                0x0803708c                mixerHex6X.lto_priv.452
                0x080370ec                mixerY4.lto_priv.451
                0x0803712c                mixerSingleProp.lto_priv.450
                0x0803713c                mixerQuadX.lto_priv.449
                0x0803717c                mixerQuadP.lto_priv.448
                0x080371bc                mixerTricopter.lto_priv.447
                0x080371ec                Device_Table
                0x08037234                serialPortIdentifiers
                0x0803723c                SystemCoreClock
                0x08037240                max7456SpiClock.lto_priv.321
 *(.rodata*)
 *fill*         0x08037242        0x2 
 .rodata.str1.4
                0x08037244       0x7e C:\cygwin64\tmp\ccTUqUH8.ltrans0.ltrans.o
 .rodata.str1.1
                0x080372c2       0x59 C:\cygwin64\tmp\ccTUqUH8.ltrans1.ltrans.o
                                 0x65 (size before relaxing)
 *fill*         0x0803731b        0x1 
 .rodata.str1.4
                0x0803731c      0xfbb C:\cygwin64\tmp\ccTUqUH8.ltrans1.ltrans.o
                               0x1053 (size before relaxing)
 .rodata.str1.1
                0x080382d7        0xd C:\cygwin64\tmp\ccTUqUH8.ltrans2.ltrans.o
                                 0x16 (size before relaxing)
 .rodata.str1.4
                0x080382e4       0x46 C:\cygwin64\tmp\ccTUqUH8.ltrans2.ltrans.o
                                 0x5a (size before relaxing)
 .rodata.str1.1
                0x0803832a      0x8e3 C:\cygwin64\tmp\ccTUqUH8.ltrans3.ltrans.o
                                0x946 (size before relaxing)
 *fill*         0x08038c0d        0x3 
 .rodata.str1.4
                0x08038c10     0x1978 C:\cygwin64\tmp\ccTUqUH8.ltrans3.ltrans.o
                               0x1c44 (size before relaxing)
 .rodata.str1.1
                0x0803a588       0x2c C:\cygwin64\tmp\ccTUqUH8.ltrans4.ltrans.o
                                 0x32 (size before relaxing)
 .rodata.str1.4
                0x0803a5b4      0x195 C:\cygwin64\tmp\ccTUqUH8.ltrans4.ltrans.o
                                0x215 (size before relaxing)
 .rodata.str1.1
                0x0803a749      0x1cb C:\cygwin64\tmp\ccTUqUH8.ltrans5.ltrans.o
                                0x1ef (size before relaxing)
 .rodata.str1.4
                0x0803a914       0x76 C:\cygwin64\tmp\ccTUqUH8.ltrans5.ltrans.o
 *fill*         0x0803a98a        0x2 
 .rodata.str1.4
                0x0803a98c       0x10 C:\cygwin64\tmp\ccTUqUH8.ltrans6.ltrans.o
                                 0x37 (size before relaxing)
 .rodata._setlocale_r.str1.1
                0x0803a99c        0x6 d:/gcc-arm-none-eabi-7-2017-q4-major-win32/bin/../lib/gcc/arm-none-eabi/7.2.1/../../../../arm-none-eabi/lib/thumb/v7e-m/fpv4-sp/hard\libc_nano.a(lib_a-locale.o)
                                  0x9 (size before relaxing)
 .rodata.str1.1
                0x0803a9a2        0x6 d:/gcc-arm-none-eabi-7-2017-q4-major-win32/bin/../lib/gcc/arm-none-eabi/7.2.1/../../../../arm-none-eabi/lib/thumb/v7e-m/fpv4-sp/hard\libc_nano.a(lib_a-locale.o)
                                  0x2 (size before relaxing)
 .rodata._ctype_
                0x0803a9a2      0x101 d:/gcc-arm-none-eabi-7-2017-q4-major-win32/bin/../lib/gcc/arm-none-eabi/7.2.1/../../../../arm-none-eabi/lib/thumb/v7e-m/fpv4-sp/hard\libc_nano.a(lib_a-ctype_.o)
                0x0803a9a2                _ctype_
 *fill*         0x0803aaa3        0x5 
 .rodata.__log2f_data
                0x0803aaa8      0x120 d:/gcc-arm-none-eabi-7-2017-q4-major-win32/bin/../lib/gcc/arm-none-eabi/7.2.1/../../../../arm-none-eabi/lib/thumb/v7e-m/fpv4-sp/hard\libm.a(lib_a-sf_log2_data.o)
                0x0803aaa8                __log2f_data
 .rodata.TWO23  0x0803abc8        0x8 d:/gcc-arm-none-eabi-7-2017-q4-major-win32/bin/../lib/gcc/arm-none-eabi/7.2.1/../../../../arm-none-eabi/lib/thumb/v7e-m/fpv4-sp/hard\libm.a(lib_a-sf_lrint.o)
 .rodata.__powf_log2_data
                0x0803abd0      0x128 d:/gcc-arm-none-eabi-7-2017-q4-major-win32/bin/../lib/gcc/arm-none-eabi/7.2.1/../../../../arm-none-eabi/lib/thumb/v7e-m/fpv4-sp/hard\libm.a(lib_a-sf_pow_log2_data.o)
                0x0803abd0                __powf_log2_data
 .rodata.__exp2f_data
                0x0803acf8      0x148 d:/gcc-arm-none-eabi-7-2017-q4-major-win32/bin/../lib/gcc/arm-none-eabi/7.2.1/../../../../arm-none-eabi/lib/thumb/v7e-m/fpv4-sp/hard\libm.a(lib_a-sf_exp2_data.o)
                0x0803acf8                __exp2f_data
 *(.glue_7)
 .glue_7        0x0803ae40        0x0 linker stubs
 *(.glue_7t)
 .glue_7t       0x0803ae40        0x0 linker stubs
 *(.eh_frame)
 *(.init)
 *(.fini)
                0x0803ae40                . = ALIGN (0x4)
                0x0803ae40                _etext = .

.vfp11_veneer   0x0803ae40        0x0
 .vfp11_veneer  0x0803ae40        0x0 linker stubs

.v4_bx          0x0803ae40        0x0
 .v4_bx         0x0803ae40        0x0 linker stubs

.iplt           0x0803ae40        0x0
 .iplt          0x0803ae40        0x0 obj/main/BETAFLIGHTF3/startup_stm32f30x_md_gcc.o

.ARM.extab
 *(.ARM.extab* .gnu.linkonce.armextab.*)

.ARM            0x0803ae40        0x8
                0x0803ae40                __exidx_start = .
 *(.ARM.exidx*)
 .ARM.exidx     0x0803ae40        0x8 d:/gcc-arm-none-eabi-7-2017-q4-major-win32/bin/../lib/gcc/arm-none-eabi/7.2.1/thumb/v7e-m/fpv4-sp/hard\libgcc.a(_udivmoddi4.o)
                0x0803ae48                __exidx_end = .

.preinit_array  0x0803ae48        0x0
                [!provide]                PROVIDE (__preinit_array_start, .)
 *(.preinit_array*)
                [!provide]                PROVIDE (__preinit_array_end, .)

.init_array     0x0803ae48        0x0
                [!provide]                PROVIDE (__init_array_start, .)
 *(SORT_BY_NAME(.init_array.*))
 *(.init_array*)
                [!provide]                PROVIDE (__init_array_end, .)

.fini_array     0x0803ae48        0x0
                [!provide]                PROVIDE (__fini_array_start, .)
 *(.fini_array*)
 *(SORT_BY_NAME(.fini_array.*))
                [!provide]                PROVIDE (__fini_array_end, .)

.pg_registry    0x0803ae48      0x488
                0x0803ae48                PROVIDE (__pg_registry_start, .)
 *(.pg_registry)
 .pg_registry   0x0803ae48      0x168 C:\cygwin64\tmp\ccTUqUH8.ltrans1.ltrans.o
                0x0803ae48                rxChannelRangeConfigs_Registry
                0x0803ae5c                rxFailsafeChannelConfigs_Registry
                0x0803ae70                modeActivationConditions_Registry
                0x0803ae84                mixerConfig_Registry
                0x0803ae98                timeConfig_Registry
                0x0803aeac                armingConfig_Registry
                0x0803aec0                compassConfig_Registry
                0x0803aed4                accelerometerConfig_Registry
                0x0803aee8                rcControlsConfig_Registry
                0x0803aefc                pidConfig_Registry
                0x0803af10                currentSensorADCConfig_Registry
                0x0803af24                pilotConfig_Registry
                0x0803af38                blackboxConfig_Registry
                0x0803af4c                controlRateProfiles_Registry
                0x0803af60                pidProfiles_Registry
                0x0803af74                featureConfig_Registry
                0x0803af88                voltageSensorADCConfig_Registry
                0x0803af9c                osdConfig_Registry
 .pg_registry   0x0803afb0       0xb4 C:\cygwin64\tmp\ccTUqUH8.ltrans2.ltrans.o
                0x0803afb0                escSerialConfig_Registry
                0x0803afc4                displayPortProfileMax7456_Registry
                0x0803afd8                displayPortProfileMsp_Registry
                0x0803afec                ledStripConfig_Registry
                0x0803b000                barometerConfig_Registry
                0x0803b014                batteryConfig_Registry
                0x0803b028                telemetryConfig_Registry
                0x0803b03c                escSensorConfig_Registry
                0x0803b050                vtxSettingsConfig_Registry
 .pg_registry   0x0803b064       0xb4 C:\cygwin64\tmp\ccTUqUH8.ltrans3.ltrans.o
                0x0803b064                gimbalConfig_Registry
                0x0803b078                throttleCorrectionConfig_Registry
                0x0803b08c                failsafeConfig_Registry
                0x0803b0a0                flight3DConfig_Registry
                0x0803b0b4                vtxConfig_Registry
                0x0803b0c8                adjustmentRanges_Registry
                0x0803b0dc                beeperConfig_Registry
                0x0803b0f0                customServoMixers_Registry
                0x0803b104                servoParams_Registry
 .pg_registry   0x0803b118       0x78 C:\cygwin64\tmp\ccTUqUH8.ltrans4.ltrans.o
                0x0803b118                imuConfig_Registry
                0x0803b12c                currentSensorVirtualConfig_Registry
                0x0803b140                boardAlignment_Registry
                0x0803b154                spiPinConfig_Registry
                0x0803b168                beeperDevConfig_Registry
                0x0803b17c                cameraControlConfig_Registry
 .pg_registry   0x0803b190       0x14 C:\cygwin64\tmp\ccTUqUH8.ltrans5.ltrans.o
                0x0803b190                tricopterMixerConfig_Registry
 .pg_registry   0x0803b1a4      0x12c C:\cygwin64\tmp\ccTUqUH8.ltrans6.ltrans.o
                0x0803b1a4                customMotorMixer_Registry
                0x0803b1b8                statusLedConfig_Registry
                0x0803b1cc                rxConfig_Registry
                0x0803b1e0                serialPinConfig_Registry
                0x0803b1f4                motorConfig_Registry
                0x0803b208                ppmConfig_Registry
                0x0803b21c                pwmConfig_Registry
                0x0803b230                gyroConfig_Registry
                0x0803b244                servoConfig_Registry
                0x0803b258                vcdProfile_Registry
                0x0803b26c                max7456Config_Registry
                0x0803b280                systemConfig_Registry
                0x0803b294                sdcardConfig_Registry
                0x0803b2a8                serialConfig_Registry
                0x0803b2bc                adcConfig_Registry
 *(SORT_BY_NAME(.pg_registry.*))
                0x0803b2d0                PROVIDE (__pg_registry_end, .)

.pg_resetdata   0x0803b2d0      0x104
                0x0803b2d0                PROVIDE (__pg_resetdata_start, .)
 *(.pg_resetdata)
 .pg_resetdata  0x0803b2d0       0x30 C:\cygwin64\tmp\ccTUqUH8.ltrans1.ltrans.o
                0x0803b2d0                pgResetTemplate_mixerConfig
                0x0803b2d2                pgResetTemplate_timeConfig
                0x0803b2d4                pgResetTemplate_armingConfig
                0x0803b2d8                pgResetTemplate_rcControlsConfig
                0x0803b2de                pgResetTemplate_pidConfig
                0x0803b2e0                pgResetTemplate_currentSensorADCConfig
                0x0803b2e4                pgResetTemplate_pilotConfig
                0x0803b2f6                pgResetTemplate_blackboxConfig
                0x0803b2fc                pgResetTemplate_featureConfig
 .pg_resetdata  0x0803b300       0x3a C:\cygwin64\tmp\ccTUqUH8.ltrans2.ltrans.o
                0x0803b300                pgResetTemplate_escSerialConfig
                0x0803b302                pgResetTemplate_batteryConfig
                0x0803b312                pgResetTemplate_telemetryConfig
                0x0803b32e                pgResetTemplate_escSensorConfig
                0x0803b330                pgResetTemplate_vtxSettingsConfig
 *fill*         0x0803b33a        0x2 
 .pg_resetdata  0x0803b33c       0x54 C:\cygwin64\tmp\ccTUqUH8.ltrans3.ltrans.o
                0x0803b33c                pgResetTemplate_throttleCorrectionConfig
                0x0803b340                pgResetTemplate_failsafeConfig
                0x0803b348                pgResetTemplate_flight3DConfig
                0x0803b350                pgResetTemplate_vtxConfig
                0x0803b384                pgResetTemplate_beeperConfig
 .pg_resetdata  0x0803b390       0x18 C:\cygwin64\tmp\ccTUqUH8.ltrans4.ltrans.o
                0x0803b390                pgResetTemplate_imuConfig
                0x0803b398                pgResetTemplate_beeperDevConfig
                0x0803b39e                pgResetTemplate_cameraControlConfig
 .pg_resetdata  0x0803b3a8        0x1 C:\cygwin64\tmp\ccTUqUH8.ltrans5.ltrans.o
                0x0803b3a8                pgResetTemplate_tricopterMixerConfig
 *fill*         0x0803b3a9        0x1 
 .pg_resetdata  0x0803b3aa       0x2a C:\cygwin64\tmp\ccTUqUH8.ltrans6.ltrans.o
                0x0803b3aa                pgResetTemplate_gyroConfig
                0x0803b3c6                pgResetTemplate_max7456Config
                0x0803b3c8                pgResetTemplate_systemConfig
                0x0803b3d4                PROVIDE (__pg_resetdata_end, .)
                0x0803b3d4                _sidata = .

.rel.dyn        0x0803b3d4        0x0
 .rel.iplt      0x0803b3d4        0x0 obj/main/BETAFLIGHTF3/startup_stm32f30x_md_gcc.o

.data           0x20000000     0x229c load address 0x0803b3d4
                0x20000000                . = ALIGN (0x4)
                0x20000000                _sdata = .
 *(.data)
 .data          0x20000000        0x3 C:\cygwin64\tmp\ccTUqUH8.ltrans0.ltrans.o
 *fill*         0x20000003        0x1 
 .data          0x20000004     0x19ac C:\cygwin64\tmp\ccTUqUH8.ltrans1.ltrans.o
                0x200001f8                rxIsInFailsafeModeNotDataDriven.lto_priv.611
                0x200001f9                rxIsInFailsafeMode.lto_priv.612
                0x20000208                cmsCurrentDevice.lto_priv.479
                0x20000237                standardBoardAlignment.lto_priv.481
 .data          0x200019b0       0x90 C:\cygwin64\tmp\ccTUqUH8.ltrans2.ltrans.o
                0x200019b0                saDevice
                0x200019c4                maxScreenSize
                0x200019c7                videoSignalReg.lto_priv.692
                0x200019f8                trampCmsStatusString
                0x20001a30                sa_smartbaud
                0x20001a3c                vtxControl_ipc.lto_priv.344
 .data          0x20001a40      0x430 C:\cygwin64\tmp\ccTUqUH8.ltrans3.ltrans.o
                0x20001a40                q.lto_priv.587
                0x20001a50                qP.lto_priv.463
                0x20001a78                headfree
                0x20001a88                cfTasks
                0x20001e68                isUsingSticksToArm.lto_priv.495
 .data          0x20001e70       0x6c C:\cygwin64\tmp\ccTUqUH8.ltrans4.ltrans.o
                0x20001e94                offset
 .data          0x20001edc       0x15 C:\cygwin64\tmp\ccTUqUH8.ltrans5.ltrans.o
 *fill*         0x20001ef1        0x3 
 .data          0x20001ef4      0x1d5 C:\cygwin64\tmp\ccTUqUH8.ltrans6.ltrans.o
                0x20001f48                Device_Property
                0x20001f78                dmaDescriptors.lto_priv.412
                0x200020c8                ppmCountDivisor.lto_priv.470
 *(.data*)
 *fill*         0x200020c9        0x3 
 .data._impure_ptr
                0x200020cc        0x4 d:/gcc-arm-none-eabi-7-2017-q4-major-win32/bin/../lib/gcc/arm-none-eabi/7.2.1/../../../../arm-none-eabi/lib/thumb/v7e-m/fpv4-sp/hard\libc_nano.a(lib_a-impure.o)
                0x200020cc                _impure_ptr
 .data.impure_data
                0x200020d0       0x60 d:/gcc-arm-none-eabi-7-2017-q4-major-win32/bin/../lib/gcc/arm-none-eabi/7.2.1/../../../../arm-none-eabi/lib/thumb/v7e-m/fpv4-sp/hard\libc_nano.a(lib_a-impure.o)
 .data.__global_locale
                0x20002130      0x16c d:/gcc-arm-none-eabi-7-2017-q4-major-win32/bin/../lib/gcc/arm-none-eabi/7.2.1/../../../../arm-none-eabi/lib/thumb/v7e-m/fpv4-sp/hard\libc_nano.a(lib_a-locale.o)
                0x20002130                __global_locale
                0x2000229c                . = ALIGN (0x4)
                0x2000229c                _edata = .

.igot.plt       0x2000229c        0x0 load address 0x0803d670
 .igot.plt      0x2000229c        0x0 obj/main/BETAFLIGHTF3/startup_stm32f30x_md_gcc.o
                0x2000229c                . = ALIGN (0x4)

.bss            0x200022a0     0x772c load address 0x0803d670
                0x200022a0                _sbss = .
                0x200022a0                __bss_start__ = _sbss
 *(.bss)
 .bss           0x200022a0      0x1b8 C:\cygwin64\tmp\ccTUqUH8.ltrans0.ltrans.o
                0x20002408                printfSerialPort.lto_priv.683
 .bss           0x20002458     0x1102 C:\cygwin64\tmp\ccTUqUH8.ltrans1.ltrans.o
                0x20002466                osdConfig_System
                0x20002535                voltageSensorADCConfig_SystemArray
                0x2000254a                pidProfiles_SystemArray
                0x2000265a                controlRateProfiles_SystemArray
                0x2000269c                blackboxState.lto_priv.423
                0x2000269e                blackboxConfig_System
                0x200026bc                blackboxSDCard.lto_priv.688
                0x200026de                blackboxIInterval.lto_priv.490
                0x200026e4                blackboxPInterval.lto_priv.554
                0x20002742                rssiSource
                0x20002743                rssiSampleIndex.10942.lto_priv.592
                0x20002744                sum.10943.lto_priv.591
                0x20002748                rssiSamples.10941.lto_priv.593
                0x20002874                telemetryBuf.lto_priv.566
                0x20002889                telemetryBufLen.lto_priv.568
                0x200028c0                head.lto_priv.623
                0x20002988                rxSignalReceivedNotDataDriven.lto_priv.610
                0x20002989                ppmFrameCount.lto_priv.471
                0x2000298b                rxDataProcessingRequired.lto_priv.604
                0x20002990                captures.lto_priv.468
                0x200029a8                rxRuntimeConfig
                0x200029c0                rxNextUpdateAtUs.lto_priv.605
                0x200029c4                auxiliaryProcessingRequired.lto_priv.603
                0x200029c8                mspFrame.lto_priv.496
                0x200029ec                rxMspFrameDone.lto_priv.497
                0x20002a5c                escHardware
                0x20002a90                featureConfig_System
                0x20002b08                cmsDeviceCount.lto_priv.478
                0x20002b4c                axisPID_P
                0x20002b58                axisPID_I
                0x20002b64                axisPID_D
                0x20002b70                motor
                0x20002b90                servo
                0x20002ba4                targetPidLooptime
                0x20002d04                mixerConfig_System
                0x20002d14                armingBeepTimeMicros.lto_priv.489
                0x20002d1c                rcModeActivationMask
                0x20002d40                BIT_COMPARE_0
                0x20002d42                BIT_COMPARE_1
                0x20002d48                ws2811Initialised
                0x20002d4c                dmaRef.lto_priv.696
                0x20002d50                timer.lto_priv.695
                0x20002d54                xmitState.lto_priv.466
                0x20002d5d                stateFlags
                0x20002d5e                rxFlightChannelsValid.lto_priv.613
                0x20002d6c                motorOutputLow
                0x20002d70                motorOutputHigh
                0x20002d74                timeConfig_System
                0x20002d78                pilotConfig_System
                0x20002d8c                currentSensorADCConfig_System
                0x20002d90                pidConfig_System
                0x20002d94                rcControlsConfig_System
                0x20002d9c                accelerometerConfig_System
                0x20002dac                compassConfig_System
                0x20002dbc                armingConfig_System
                0x20002dc4                overflowAxisMask.lto_priv.442
                0x20002dc5                gyroDebugMode.lto_priv.431
                0x20002dc6                firstArmingCalibrationWasStarted
                0x20002dc8                fftSamplingScale.lto_priv.432
                0x20002dcc                fftMaxFreq.lto_priv.439
                0x20002dce                fftBinCount.lto_priv.436
                0x20002dd0                fftResolution.lto_priv.438
                0x20002dd4                fftInstance.lto_priv.435
                0x20002dec                gyroData.lto_priv.434
                0x20002f6c                hanningWindow.lto_priv.441
                0x20002fec                fftFreqFilter.lto_priv.440
                0x20003058                fftGyroFilter.lto_priv.433
                0x200030c4                fftResult.lto_priv.437
                0x200030dc                boardRotation.lto_priv.482
                0x20003100                accLpfCutHz.lto_priv.614
                0x20003104                accFilter.lto_priv.615
                0x20003170                suspendRxSignalUntil.lto_priv.607
                0x20003174                skipRxSamples.lto_priv.606
                0x20003175                rcSampleIndex.lto_priv.608
                0x20003178                rcInvalidPulsPeriod
                0x200031c0                modeActivationConditions_SystemArray
                0x20003224                dispatchEnabled.lto_priv.557
                0x20003294                rxChannelCount.lto_priv.609
                0x20003298                port.lto_priv.410
                0x2000329c                CRC_in.lto_priv.411
                0x2000329f                escCount.lto_priv.501
                0x200032a0                CRCout.lto_priv.409
                0x200032a4                rxChannelRangeConfigs_CopyArray
                0x200032b4                rxChannelRangeConfigs_SystemArray
                0x200032c4                rxFailsafeChannelConfigs_CopyArray
                0x200032e8                rxFailsafeChannelConfigs_SystemArray
                0x2000330c                modeActivationConditions_CopyArray
                0x20003370                mixerConfig_Copy
                0x200033ac                pilotConfig_Copy
                0x200034e4                featureConfig_Copy
 *fill*         0x2000355a        0x2 
 .bss           0x2000355c     0x138a C:\cygwin64\tmp\ccTUqUH8.ltrans2.ltrans.o
                0x20003564                trampPitMode
                0x20003566                trampConfiguredPower
                0x20003569                trampBand
                0x2000356a                trampChannel
                0x200035a1                motorCount.lto_priv.334
                0x200035b0                buffer.lto_priv.415
                0x200035be                bufferPosition.lto_priv.414
                0x200035bf                bufferSize.lto_priv.416
                0x200035c0                debugMode
                0x200035c4                debug
                0x20003638                smartPortWriteFrame.lto_priv.347
                0x2000363c                frSkyHubWriteByte.lto_priv.580
                0x20003648                ledStripConfig_System
                0x2000373c                ledColorBuffer.lto_priv.332
                0x200037c4                armingFlags
                0x200037c6                rxSignalReceived.lto_priv.340
                0x200037c8                rcCommand
                0x200037de                rssi.lto_priv.335
                0x200037e1                batteryState.lto_priv.413
                0x200037e4                batteryConfig_System
                0x200037f4                failsafeState.lto_priv.339
                0x20003818                armingDisableFlags.lto_priv.333
                0x2000381c                beeperIsOn.lto_priv.488
                0x200038a4                displayPortProfileMsp_System
                0x200038ac                screenBuffer.lto_priv.690
                0x20003ab4                blinkBits.lto_priv.477
                0x20003abc                resumeRefreshAt
                0x20003ac0                vtxDevice
                0x20003aca                vtxSettingsConfig_System
                0x20003ad8                frSkyHubPort.lto_priv.579
                0x20003adc                currentMeter.lto_priv.336
                0x20003af0                voltageMeter.lto_priv.337
                0x20003af6                ledStripInitialised.lto_priv.476
                0x20003af7                ws2811LedDataTransferInProgress
                0x20003b18                rcData
                0x20003b40                flightModeFlags
                0x20003b42                cliMode
                0x20003b43                max7456Lock.lto_priv.498
                0x20003b44                displayPortProfileMax7456_System
                0x20003b49                fontIsLoading.lto_priv.499
                0x20003b58                shadowBuffer.lto_priv.691
                0x20003f90                displayMemoryModeReg.lto_priv.689
                0x20003f9c                locked.lto_priv.602
                0x20003fa6                trampConfPower
                0x20003fa8                trampPower
                0x20003faa                trampPowerRetries
                0x20003fac                trampSerialPort.lto_priv.474
                0x20003fd8                trampTemperature
                0x2000400c                saCmsOpmodel
                0x2000400d                saCmsFselMode
                0x2000400e                saCmsBand
                0x2000400f                saCmsChan
                0x20004010                saCmsFreqRef
                0x20004012                saCmsPower
                0x20004014                saCmsUserFreq
                0x20004016                saCmsFselModeNew
                0x200041d4                telemetryConfig_System
                0x200041f0                batteryCellCount
                0x200041f4                enabledSensors.lto_priv.338
                0x200041f8                attitude
                0x20004200                acc
                0x2000423c                currentPidProfile
                0x20004240                currentControlRateProfile
                0x20004244                smartPortSerialPort.lto_priv.573
                0x20004248                hottPort.lto_priv.578
                0x2000424c                portConfig.lto_priv.311
                0x20004250                hottMsg.lto_priv.577
                0x20004254                hottIsSending.lto_priv.576
                0x20004258                crsfFrame.lto_priv.572
                0x20004298                telemetryBuf.lto_priv.565
                0x200042d8                telemetryBufLen.lto_priv.567
                0x200042d9                telemetryState.lto_priv.313
                0x200042dc                portConfig.lto_priv.310
                0x200042e0                telemetrySharedPort
                0x200042e4                frSkyHubPortSharing.lto_priv.581
                0x200042e5                hottPortSharing.lto_priv.582
                0x200042e6                hottTelemetryEnabled.lto_priv.574
                0x200042e7                telemetryState.lto_priv.314
                0x200042e8                smartPortPortSharing.lto_priv.583
                0x200042ec                portConfig.lto_priv.312
                0x200042f0                hottEAMMessage.lto_priv.575
                0x2000431c                crsfTelemetryEnabled.lto_priv.569
                0x20004320                serialPort.lto_priv.315
                0x20004324                deviceInfoReplyPending.lto_priv.346
                0x20004325                mspReplyPending.lto_priv.345
                0x20004328                crsfSchedule.lto_priv.571
                0x2000432c                crsfScheduleCount.lto_priv.570
                0x2000432d                srxlTelemetryEnabled.lto_priv.564
                0x20004330                serialPort.lto_priv.316
                0x20004334                mspRxBuffer.lto_priv.307
                0x20004398                ledStripDMABuffer
                0x20004718                cmsInMenu
                0x2000471a                rcdeviceInMenu
                0x20004734                escOutputs
                0x20004798                ledStripConfig_Copy
                0x2000489c                barometerConfig_System
 *fill*         0x200048e6        0x2 
 .bss           0x200048e8      0xac8 C:\cygwin64\tmp\ccTUqUH8.ltrans3.ltrans.o
                0x200048e8                customServoMixers_SystemArray
                0x2000495c                motor_disarmed
                0x200049a0                cliWriter.lto_priv.620
                0x200049b8                accumulatedMeasurementCount.lto_priv.616
                0x200049bc                accumulatedMeasurements.lto_priv.421
                0x200049c8                imuRuntimeConfig.lto_priv.624
                0x200049e4                checkFuncTotalExecutionTime
                0x200049e8                checkFuncMovingSumExecutionTime
                0x200049ec                checkFuncMaxExecutionTime
                0x200049f1                vtxConfig_System
                0x20004a24                eepromConfigSize.lto_priv.681
                0x20004a26                averageSystemLoadPercent
                0x20004a28                servoParams_SystemArray
                0x20004a88                adjustmentRanges_SystemArray
                0x20004ae4                cliPort.lto_priv.619
                0x20004c7c                currentMixerMode
                0x20004c80                useServo.lto_priv.480
                0x20004c88                dtermNotchFilterApplyFn.lto_priv.491
                0x20004cdc                dtermLpfApplyFn.lto_priv.492
                0x20004d3c                ptermYawFilterApplyFn.lto_priv.493
                0x20004db8                cliBuffer.lto_priv.622
                0x20004eb8                bufferIndex.lto_priv.621
                0x20004f44                flight3DConfig_System
                0x20004f5c                failsafeConfig_System
                0x20005090                currentTask.lto_priv.484
                0x200050c4                throttlePIDAttenuation.lto_priv.584
                0x20005108                inCrashRecoveryMode.lto_priv.594
                0x20005110                pidStabilisationEnabled.lto_priv.595
                0x20005118                flipOverAfterCrashMode.lto_priv.462
                0x20005138                reverseMotors.lto_priv.586
                0x20005140                throttleCorrectionConfig_System
                0x20005144                throttleAngleScale.lto_priv.625
                0x20005148                isRXDataNew
                0x200051a8                lookupThrottleRC.lto_priv.585
                0x200051c2                calibratingA.lto_priv.475
                0x200051c4                warningLedState.lto_priv.485
                0x200051c8                warningLedTimer.lto_priv.486
                0x200051cc                beeperConfig_System
                0x2000535c                beep_multiBeeps.lto_priv.461
                0x200053a0                mag
 .bss           0x200053b0      0xe48 C:\cygwin64\tmp\ccTUqUH8.ltrans4.ltrans.o
                0x200053bc                activeBoxIds.lto_priv.556
                0x20005464                voltageState.lto_priv.617
                0x20005466                batteryWarningVoltage
                0x20005468                batteryCriticalVoltage
                0x2000546c                lowVoltageCutoff.lto_priv.588
                0x20005474                consumptionState.lto_priv.618
                0x20005478                cameraControlRuntime.lto_priv.563
                0x2000548c                cameraControlConfig_System
                0x20005498                endTimeMillis.lto_priv.562
                0x2000549c                taskQueuePos.lto_priv.560
                0x200054a0                taskQueueArray.lto_priv.559
                0x200054f0                calculateTaskStatistics.lto_priv.558
                0x200054f4                taskQueueSize.lto_priv.561
                0x20005a0c                beeperNextToggleTime.lto_priv.599
                0x20005a10                beeperPos.lto_priv.598
                0x20005a14                currentBeeperEntry.lto_priv.597
                0x20005a18                disarmAt.lto_priv.589
                0x20005a1c                lastArmingDisabledReason.lto_priv.596
                0x20005a20                escMode
                0x20005a21                escPortIndex
                0x20005a24                imuConfig_System
                0x20005a2c                boardAlignment_System
                0x20005a38                started.lto_priv.682
                0x20005a40                lastMspRssiUpdateUs.lto_priv.590
                0x20006164                stdout_putf.lto_priv.685
                0x20006168                stdout_putp.lto_priv.684
                0x2000616c                systemState
                0x20006170                uartDevmap
                0x20006194                osdDisplayPort.lto_priv.686
                0x20006198                armState.lto_priv.687
                0x200061f4                pidProfile.lto_priv.601
 .bss           0x200061f8       0xa4 C:\cygwin64\tmp\ccTUqUH8.ltrans5.ltrans.o
 .bss           0x2000629c     0x3630 C:\cygwin64\tmp\ccTUqUH8.ltrans6.ltrans.o
                0x200062a0                pInformation
                0x200062ac                Device_Info
                0x20006310                sysTickUptime.lto_priv.301
                0x20006314                adcOperatingConfig
                0x20006328                adcConfig_System
                0x20006334                adcValues
                0x2000633c                ledInversion.lto_priv.464
                0x20006340                leds.lto_priv.465
                0x2000634c                beeperFrequency.lto_priv.426
                0x2000634e                beeperInverted.lto_priv.428
                0x20006350                beeperIO.lto_priv.427
                0x20006354                beeperPwm.lto_priv.429
                0x2000636c                freqBeep.lto_priv.430
                0x20006370                sysTickPending.lto_priv.342
                0x20006374                usTicks.lto_priv.343
                0x20006378                timerConfig
                0x200064b8                serialConfig_System
                0x200064ec                sdcardConfig_System
                0x200064f4                sdcard.lto_priv.300
                0x2000655c                spiDevice
                0x2000659c                max7456CsPin.lto_priv.322
                0x200065a0                videoSignalCfg.lto_priv.323
                0x200065a4                vcdProfile_System
                0x200065a7                hosRegValue.lto_priv.693
                0x200065a8                vosRegValue.lto_priv.694
                0x200065ac                findSerialPortConfigState.lto_priv.487
                0x200065b0                servoConfig_System
                0x200065c0                servos.lto_priv.425
                0x20006680                ioRecs
                0x200067b8                gyroConfig_System
                0x200067d4                gyroSensor1.lto_priv.341
                0x20006a50                gyro
                0x20006a60                activeFeaturesLatch.lto_priv.309
                0x20006a64                inputFilteringMode.lto_priv.467
                0x20006a68                pwmConfig_System
                0x20006b54                ppmDev.lto_priv.469
                0x20006b9c                ppmConfig_System
                0x20006ba0                motors.lto_priv.326
                0x20006c60                motorConfig_System
                0x20006c76                isDshot.lto_priv.418
                0x20006c78                pwmWrite.lto_priv.420
                0x20006c7c                loadDmaBuffer
                0x20006c80                pwmCompleteWrite.lto_priv.419
                0x20006c84                dmaMotorTimers.lto_priv.472
                0x200075e4                dmaMotorTimerCount.lto_priv.473
                0x200075e5                pwmMotorsEnabled.lto_priv.306
                0x200075e8                dmaMotors.lto_priv.305
                0x200078cc                serialPortUsageList.lto_priv.417
                0x200078fc                serialPinConfig_System
                0x20007920                rxConfig_System
                0x2000794c                cachedRccCsrValue
                0x20007950                statusLedConfig_System
                0x20007958                escSerialPorts
                0x200081bc                mspPorts.lto_priv.320
                0x2000842c                customMotorMixer_SystemArray
                0x200084ac                StkCmd.lto_priv.348
                0x200084ad                StkInBuf.lto_priv.349
                0x200084c0                smartAudioSerialPort.lto_priv.302
                0x200084c4                sa_osbuf.lto_priv.304
                0x200084e4                sa_lastTransmissionMs.lto_priv.303
                0x200084e8                saStat
                0x200084fa                SaveRState
                0x200084fc                SaveTState
                0x20008500                pUser_Standard_Requests
                0x20008504                pProperty
                0x20008508                Data_Mul_MaxPacketSize
                0x20008514                customMotorMixer_CopyArray
                0x20008598                rxConfig_Copy
                0x20008644                systemConfig_Copy
                0x20008658                serialConfig_Copy
                0x20008698                afatfs.lto_priv.299
                0x200098c0                systemConfig_System
 *(SORT_BY_ALIGNMENT(.bss*))
 .bss.outBuf.9651
                0x200098cc      0x100 C:\cygwin64\tmp\ccTUqUH8.ltrans0.ltrans.o
 *(COMMON)
                0x200099cc                . = ALIGN (0x4)
                0x200099cc                _ebss = .
                0x200099cc                __bss_end__ = _ebss

.fastram_bss    0x10000000        0x0
                0x10000000                __fastram_bss_start__ = .
 *(.fastram_bss)
 *(SORT_BY_ALIGNMENT(.fastram_bss*))
                0x10000000                . = ALIGN (0x4)
                0x10000000                __fastram_bss_end__ = .
                0x10001ff8                _heap_stack_end = ((ORIGIN (STACKRAM) + LENGTH (STACKRAM)) - 0x8)
                0x100017f8                _heap_stack_begin = ((_heap_stack_end - _Min_Stack_Size) - _Min_Heap_Size)
                0x100017f8                . = _heap_stack_begin

._user_heap_stack
                0x10000000      0x800
                0x10000000                . = ALIGN (0x4)
                0x10000000                PROVIDE (end, .)
                [!provide]                PROVIDE (_end, .)
                0x10000000                . = (. + _Min_Heap_Size)
                0x10000800                . = (. + _Min_Stack_Size)
 *fill*         0x10000000      0x800 a5
                0x10000800                . = ALIGN (0x4)

.memory_b1_text
 *(.mb1text)
 *(.mb1text*)
 *(.mb1rodata)
 *(.mb1rodata*)

/DISCARD/
 libc.a(*)
 libm.a(*)
 libgcc.a(*)

.ARM.attributes
                0x00000000       0x35
 *(.ARM.attributes)
 .ARM.attributes
                0x00000000       0x21 obj/main/BETAFLIGHTF3/startup_stm32f30x_md_gcc.o
 .ARM.attributes
                0x00000021       0x33 C:\cygwin64\tmp\ccTUqUH8.ltrans0.ltrans.o
 .ARM.attributes
                0x00000054       0x33 C:\cygwin64\tmp\ccTUqUH8.ltrans1.ltrans.o
 .ARM.attributes
                0x00000087       0x33 C:\cygwin64\tmp\ccTUqUH8.ltrans2.ltrans.o
 .ARM.attributes
                0x000000ba       0x33 C:\cygwin64\tmp\ccTUqUH8.ltrans3.ltrans.o
 .ARM.attributes
                0x000000ed       0x33 C:\cygwin64\tmp\ccTUqUH8.ltrans4.ltrans.o
 .ARM.attributes
                0x00000120       0x33 C:\cygwin64\tmp\ccTUqUH8.ltrans5.ltrans.o
 .ARM.attributes
                0x00000153       0x33 C:\cygwin64\tmp\ccTUqUH8.ltrans6.ltrans.o
 .ARM.attributes
                0x00000186       0x25 obj/main/BETAFLIGHTF3/./lib/main/DSP_Lib/Source/TransformFunctions/arm_bitreversal2.o
 .ARM.attributes
                0x000001ab       0x34 d:/gcc-arm-none-eabi-7-2017-q4-major-win32/bin/../lib/gcc/arm-none-eabi/7.2.1/../../../../arm-none-eabi/lib/thumb/v7e-m/fpv4-sp/hard\libc_nano.a(lib_a-atoi.o)
 .ARM.attributes
                0x000001df       0x34 d:/gcc-arm-none-eabi-7-2017-q4-major-win32/bin/../lib/gcc/arm-none-eabi/7.2.1/../../../../arm-none-eabi/lib/thumb/v7e-m/fpv4-sp/hard\libc_nano.a(lib_a-memcpy-stub.o)
 .ARM.attributes
                0x00000213       0x34 d:/gcc-arm-none-eabi-7-2017-q4-major-win32/bin/../lib/gcc/arm-none-eabi/7.2.1/../../../../arm-none-eabi/lib/thumb/v7e-m/fpv4-sp/hard\libc_nano.a(lib_a-strtok_r.o)
 .ARM.attributes
                0x00000247       0x34 d:/gcc-arm-none-eabi-7-2017-q4-major-win32/bin/../lib/gcc/arm-none-eabi/7.2.1/../../../../arm-none-eabi/lib/thumb/v7e-m/fpv4-sp/hard\libc_nano.a(lib_a-strtol.o)
 .ARM.attributes
                0x0000027b       0x34 d:/gcc-arm-none-eabi-7-2017-q4-major-win32/bin/../lib/gcc/arm-none-eabi/7.2.1/../../../../arm-none-eabi/lib/thumb/v7e-m/fpv4-sp/hard\libc_nano.a(lib_a-impure.o)
 .ARM.attributes
                0x000002af       0x34 d:/gcc-arm-none-eabi-7-2017-q4-major-win32/bin/../lib/gcc/arm-none-eabi/7.2.1/../../../../arm-none-eabi/lib/thumb/v7e-m/fpv4-sp/hard\libc_nano.a(lib_a-locale.o)
 .ARM.attributes
                0x000002e3       0x34 d:/gcc-arm-none-eabi-7-2017-q4-major-win32/bin/../lib/gcc/arm-none-eabi/7.2.1/../../../../arm-none-eabi/lib/thumb/v7e-m/fpv4-sp/hard\libc_nano.a(lib_a-mbtowc_r.o)
 .ARM.attributes
                0x00000317       0x20 d:/gcc-arm-none-eabi-7-2017-q4-major-win32/bin/../lib/gcc/arm-none-eabi/7.2.1/../../../../arm-none-eabi/lib/thumb/v7e-m/fpv4-sp/hard\libc_nano.a(lib_a-strcmp.o)
 .ARM.attributes
                0x00000337       0x34 d:/gcc-arm-none-eabi-7-2017-q4-major-win32/bin/../lib/gcc/arm-none-eabi/7.2.1/../../../../arm-none-eabi/lib/thumb/v7e-m/fpv4-sp/hard\libc_nano.a(lib_a-wctomb_r.o)
 .ARM.attributes
                0x0000036b       0x34 d:/gcc-arm-none-eabi-7-2017-q4-major-win32/bin/../lib/gcc/arm-none-eabi/7.2.1/../../../../arm-none-eabi/lib/thumb/v7e-m/fpv4-sp/hard\libc_nano.a(lib_a-ctype_.o)
 .ARM.attributes
                0x0000039f       0x34 d:/gcc-arm-none-eabi-7-2017-q4-major-win32/bin/../lib/gcc/arm-none-eabi/7.2.1/../../../../arm-none-eabi/lib/thumb/v7e-m/fpv4-sp/hard\libc_nano.a(lib_a-errno.o)
 .ARM.attributes
                0x000003d3       0x34 d:/gcc-arm-none-eabi-7-2017-q4-major-win32/bin/../lib/gcc/arm-none-eabi/7.2.1/../../../../arm-none-eabi/lib/thumb/v7e-m/fpv4-sp/hard\libc_nano.a(lib_a-memcmp.o)
 .ARM.attributes
                0x00000407       0x34 d:/gcc-arm-none-eabi-7-2017-q4-major-win32/bin/../lib/gcc/arm-none-eabi/7.2.1/../../../../arm-none-eabi/lib/thumb/v7e-m/fpv4-sp/hard\libc_nano.a(lib_a-memmove.o)
 .ARM.attributes
                0x0000043b       0x34 d:/gcc-arm-none-eabi-7-2017-q4-major-win32/bin/../lib/gcc/arm-none-eabi/7.2.1/../../../../arm-none-eabi/lib/thumb/v7e-m/fpv4-sp/hard\libc_nano.a(lib_a-memset.o)
 .ARM.attributes
                0x0000046f       0x34 d:/gcc-arm-none-eabi-7-2017-q4-major-win32/bin/../lib/gcc/arm-none-eabi/7.2.1/../../../../arm-none-eabi/lib/thumb/v7e-m/fpv4-sp/hard\libc_nano.a(lib_a-strcat.o)
 .ARM.attributes
                0x000004a3       0x34 d:/gcc-arm-none-eabi-7-2017-q4-major-win32/bin/../lib/gcc/arm-none-eabi/7.2.1/../../../../arm-none-eabi/lib/thumb/v7e-m/fpv4-sp/hard\libc_nano.a(lib_a-strchr.o)
 .ARM.attributes
                0x000004d7       0x34 d:/gcc-arm-none-eabi-7-2017-q4-major-win32/bin/../lib/gcc/arm-none-eabi/7.2.1/../../../../arm-none-eabi/lib/thumb/v7e-m/fpv4-sp/hard\libc_nano.a(lib_a-strcpy.o)
 .ARM.attributes
                0x0000050b       0x1b d:/gcc-arm-none-eabi-7-2017-q4-major-win32/bin/../lib/gcc/arm-none-eabi/7.2.1/../../../../arm-none-eabi/lib/thumb/v7e-m/fpv4-sp/hard\libc_nano.a(lib_a-strlen.o)
 .ARM.attributes
                0x00000526       0x34 d:/gcc-arm-none-eabi-7-2017-q4-major-win32/bin/../lib/gcc/arm-none-eabi/7.2.1/../../../../arm-none-eabi/lib/thumb/v7e-m/fpv4-sp/hard\libc_nano.a(lib_a-strncmp.o)
 .ARM.attributes
                0x0000055a       0x34 d:/gcc-arm-none-eabi-7-2017-q4-major-win32/bin/../lib/gcc/arm-none-eabi/7.2.1/../../../../arm-none-eabi/lib/thumb/v7e-m/fpv4-sp/hard\libc_nano.a(lib_a-strncpy.o)
 .ARM.attributes
                0x0000058e       0x34 d:/gcc-arm-none-eabi-7-2017-q4-major-win32/bin/../lib/gcc/arm-none-eabi/7.2.1/../../../../arm-none-eabi/lib/thumb/v7e-m/fpv4-sp/hard\libc_nano.a(lib_a-strstr.o)
 .ARM.attributes
                0x000005c2       0x34 d:/gcc-arm-none-eabi-7-2017-q4-major-win32/bin/../lib/gcc/arm-none-eabi/7.2.1/../../../../arm-none-eabi/lib/thumb/v7e-m/fpv4-sp/hard\libm.a(lib_a-s_ceil.o)
 .ARM.attributes
                0x000005f6       0x34 d:/gcc-arm-none-eabi-7-2017-q4-major-win32/bin/../lib/gcc/arm-none-eabi/7.2.1/../../../../arm-none-eabi/lib/thumb/v7e-m/fpv4-sp/hard\libm.a(lib_a-sf_ceil.o)
 .ARM.attributes
                0x0000062a       0x34 d:/gcc-arm-none-eabi-7-2017-q4-major-win32/bin/../lib/gcc/arm-none-eabi/7.2.1/../../../../arm-none-eabi/lib/thumb/v7e-m/fpv4-sp/hard\libm.a(lib_a-sf_log2.o)
 .ARM.attributes
                0x0000065e       0x34 d:/gcc-arm-none-eabi-7-2017-q4-major-win32/bin/../lib/gcc/arm-none-eabi/7.2.1/../../../../arm-none-eabi/lib/thumb/v7e-m/fpv4-sp/hard\libm.a(lib_a-sf_log2_data.o)
 .ARM.attributes
                0x00000692       0x34 d:/gcc-arm-none-eabi-7-2017-q4-major-win32/bin/../lib/gcc/arm-none-eabi/7.2.1/../../../../arm-none-eabi/lib/thumb/v7e-m/fpv4-sp/hard\libm.a(lib_a-sf_lrint.o)
 .ARM.attributes
                0x000006c6       0x34 d:/gcc-arm-none-eabi-7-2017-q4-major-win32/bin/../lib/gcc/arm-none-eabi/7.2.1/../../../../arm-none-eabi/lib/thumb/v7e-m/fpv4-sp/hard\libm.a(lib_a-sf_pow.o)
 .ARM.attributes
                0x000006fa       0x34 d:/gcc-arm-none-eabi-7-2017-q4-major-win32/bin/../lib/gcc/arm-none-eabi/7.2.1/../../../../arm-none-eabi/lib/thumb/v7e-m/fpv4-sp/hard\libm.a(lib_a-sf_pow_log2_data.o)
 .ARM.attributes
                0x0000072e       0x34 d:/gcc-arm-none-eabi-7-2017-q4-major-win32/bin/../lib/gcc/arm-none-eabi/7.2.1/../../../../arm-none-eabi/lib/thumb/v7e-m/fpv4-sp/hard\libm.a(lib_a-math_errf.o)
 .ARM.attributes
                0x00000762       0x34 d:/gcc-arm-none-eabi-7-2017-q4-major-win32/bin/../lib/gcc/arm-none-eabi/7.2.1/../../../../arm-none-eabi/lib/thumb/v7e-m/fpv4-sp/hard\libm.a(lib_a-sf_exp2_data.o)
 .ARM.attributes
                0x00000796       0x22 d:/gcc-arm-none-eabi-7-2017-q4-major-win32/bin/../lib/gcc/arm-none-eabi/7.2.1/thumb/v7e-m/fpv4-sp/hard\libgcc.a(_arm_addsubdf3.o)
 .ARM.attributes
                0x000007b8       0x22 d:/gcc-arm-none-eabi-7-2017-q4-major-win32/bin/../lib/gcc/arm-none-eabi/7.2.1/thumb/v7e-m/fpv4-sp/hard\libgcc.a(_arm_muldivdf3.o)
 .ARM.attributes
                0x000007da       0x22 d:/gcc-arm-none-eabi-7-2017-q4-major-win32/bin/../lib/gcc/arm-none-eabi/7.2.1/thumb/v7e-m/fpv4-sp/hard\libgcc.a(_arm_cmpdf2.o)
 .ARM.attributes
                0x000007fc       0x22 d:/gcc-arm-none-eabi-7-2017-q4-major-win32/bin/../lib/gcc/arm-none-eabi/7.2.1/thumb/v7e-m/fpv4-sp/hard\libgcc.a(_arm_fixunsdfsi.o)
 .ARM.attributes
                0x0000081e       0x22 d:/gcc-arm-none-eabi-7-2017-q4-major-win32/bin/../lib/gcc/arm-none-eabi/7.2.1/thumb/v7e-m/fpv4-sp/hard\libgcc.a(_arm_truncdfsf2.o)
 .ARM.attributes
                0x00000840       0x22 d:/gcc-arm-none-eabi-7-2017-q4-major-win32/bin/../lib/gcc/arm-none-eabi/7.2.1/thumb/v7e-m/fpv4-sp/hard\libgcc.a(_aeabi_ldivmod.o)
 .ARM.attributes
                0x00000862       0x34 d:/gcc-arm-none-eabi-7-2017-q4-major-win32/bin/../lib/gcc/arm-none-eabi/7.2.1/thumb/v7e-m/fpv4-sp/hard\libgcc.a(_popcountsi2.o)
 .ARM.attributes
                0x00000896       0x34 d:/gcc-arm-none-eabi-7-2017-q4-major-win32/bin/../lib/gcc/arm-none-eabi/7.2.1/thumb/v7e-m/fpv4-sp/hard\libgcc.a(_udivmoddi4.o)
 .ARM.attributes
                0x000008ca       0x22 d:/gcc-arm-none-eabi-7-2017-q4-major-win32/bin/../lib/gcc/arm-none-eabi/7.2.1/thumb/v7e-m/fpv4-sp/hard\libgcc.a(_dvmd_tls.o)
OUTPUT(obj/main/betaflight_BETAFLIGHTF3.elf elf32-littlearm)

.comment        0x00000000       0x7e
 .comment       0x00000000       0x7e C:\cygwin64\tmp\ccTUqUH8.ltrans0.ltrans.o
                                 0x7f (size before relaxing)
 .comment       0x0000007e       0x7f C:\cygwin64\tmp\ccTUqUH8.ltrans1.ltrans.o
 .comment       0x0000007e       0x7f C:\cygwin64\tmp\ccTUqUH8.ltrans2.ltrans.o
 .comment       0x0000007e       0x7f C:\cygwin64\tmp\ccTUqUH8.ltrans3.ltrans.o
 .comment       0x0000007e       0x7f C:\cygwin64\tmp\ccTUqUH8.ltrans4.ltrans.o
 .comment       0x0000007e       0x7f C:\cygwin64\tmp\ccTUqUH8.ltrans5.ltrans.o
 .comment       0x0000007e       0x7f C:\cygwin64\tmp\ccTUqUH8.ltrans6.ltrans.o

.debug_frame    0x00000000      0x878
 .debug_frame   0x00000000       0x30 d:/gcc-arm-none-eabi-7-2017-q4-major-win32/bin/../lib/gcc/arm-none-eabi/7.2.1/../../../../arm-none-eabi/lib/thumb/v7e-m/fpv4-sp/hard\libc_nano.a(lib_a-atoi.o)
 .debug_frame   0x00000030       0x28 d:/gcc-arm-none-eabi-7-2017-q4-major-win32/bin/../lib/gcc/arm-none-eabi/7.2.1/../../../../arm-none-eabi/lib/thumb/v7e-m/fpv4-sp/hard\libc_nano.a(lib_a-memcpy-stub.o)
 .debug_frame   0x00000058       0x40 d:/gcc-arm-none-eabi-7-2017-q4-major-win32/bin/../lib/gcc/arm-none-eabi/7.2.1/../../../../arm-none-eabi/lib/thumb/v7e-m/fpv4-sp/hard\libc_nano.a(lib_a-strtok_r.o)
 .debug_frame   0x00000098       0x84 d:/gcc-arm-none-eabi-7-2017-q4-major-win32/bin/../lib/gcc/arm-none-eabi/7.2.1/../../../../arm-none-eabi/lib/thumb/v7e-m/fpv4-sp/hard\libc_nano.a(lib_a-strtol.o)
 .debug_frame   0x0000011c       0x68 d:/gcc-arm-none-eabi-7-2017-q4-major-win32/bin/../lib/gcc/arm-none-eabi/7.2.1/../../../../arm-none-eabi/lib/thumb/v7e-m/fpv4-sp/hard\libc_nano.a(lib_a-locale.o)
 .debug_frame   0x00000184       0x48 d:/gcc-arm-none-eabi-7-2017-q4-major-win32/bin/../lib/gcc/arm-none-eabi/7.2.1/../../../../arm-none-eabi/lib/thumb/v7e-m/fpv4-sp/hard\libc_nano.a(lib_a-mbtowc_r.o)
 .debug_frame   0x000001cc       0x20 d:/gcc-arm-none-eabi-7-2017-q4-major-win32/bin/../lib/gcc/arm-none-eabi/7.2.1/../../../../arm-none-eabi/lib/thumb/v7e-m/fpv4-sp/hard\libc_nano.a(lib_a-strcmp.o)
 .debug_frame   0x000001ec       0x3c d:/gcc-arm-none-eabi-7-2017-q4-major-win32/bin/../lib/gcc/arm-none-eabi/7.2.1/../../../../arm-none-eabi/lib/thumb/v7e-m/fpv4-sp/hard\libc_nano.a(lib_a-wctomb_r.o)
 .debug_frame   0x00000228       0x20 d:/gcc-arm-none-eabi-7-2017-q4-major-win32/bin/../lib/gcc/arm-none-eabi/7.2.1/../../../../arm-none-eabi/lib/thumb/v7e-m/fpv4-sp/hard\libc_nano.a(lib_a-errno.o)
 .debug_frame   0x00000248       0x2c d:/gcc-arm-none-eabi-7-2017-q4-major-win32/bin/../lib/gcc/arm-none-eabi/7.2.1/../../../../arm-none-eabi/lib/thumb/v7e-m/fpv4-sp/hard\libc_nano.a(lib_a-memcmp.o)
 .debug_frame   0x00000274       0x28 d:/gcc-arm-none-eabi-7-2017-q4-major-win32/bin/../lib/gcc/arm-none-eabi/7.2.1/../../../../arm-none-eabi/lib/thumb/v7e-m/fpv4-sp/hard\libc_nano.a(lib_a-memmove.o)
 .debug_frame   0x0000029c       0x20 d:/gcc-arm-none-eabi-7-2017-q4-major-win32/bin/../lib/gcc/arm-none-eabi/7.2.1/../../../../arm-none-eabi/lib/thumb/v7e-m/fpv4-sp/hard\libc_nano.a(lib_a-memset.o)
 .debug_frame   0x000002bc       0x28 d:/gcc-arm-none-eabi-7-2017-q4-major-win32/bin/../lib/gcc/arm-none-eabi/7.2.1/../../../../arm-none-eabi/lib/thumb/v7e-m/fpv4-sp/hard\libc_nano.a(lib_a-strcat.o)
 .debug_frame   0x000002e4       0x20 d:/gcc-arm-none-eabi-7-2017-q4-major-win32/bin/../lib/gcc/arm-none-eabi/7.2.1/../../../../arm-none-eabi/lib/thumb/v7e-m/fpv4-sp/hard\libc_nano.a(lib_a-strchr.o)
 .debug_frame   0x00000304       0x20 d:/gcc-arm-none-eabi-7-2017-q4-major-win32/bin/../lib/gcc/arm-none-eabi/7.2.1/../../../../arm-none-eabi/lib/thumb/v7e-m/fpv4-sp/hard\libc_nano.a(lib_a-strcpy.o)
 .debug_frame   0x00000324       0x28 d:/gcc-arm-none-eabi-7-2017-q4-major-win32/bin/../lib/gcc/arm-none-eabi/7.2.1/../../../../arm-none-eabi/lib/thumb/v7e-m/fpv4-sp/hard\libc_nano.a(lib_a-strncmp.o)
 .debug_frame   0x0000034c       0x2c d:/gcc-arm-none-eabi-7-2017-q4-major-win32/bin/../lib/gcc/arm-none-eabi/7.2.1/../../../../arm-none-eabi/lib/thumb/v7e-m/fpv4-sp/hard\libc_nano.a(lib_a-strncpy.o)
 .debug_frame   0x00000378       0x30 d:/gcc-arm-none-eabi-7-2017-q4-major-win32/bin/../lib/gcc/arm-none-eabi/7.2.1/../../../../arm-none-eabi/lib/thumb/v7e-m/fpv4-sp/hard\libc_nano.a(lib_a-strstr.o)
 .debug_frame   0x000003a8       0x30 d:/gcc-arm-none-eabi-7-2017-q4-major-win32/bin/../lib/gcc/arm-none-eabi/7.2.1/../../../../arm-none-eabi/lib/thumb/v7e-m/fpv4-sp/hard\libm.a(lib_a-s_ceil.o)
 .debug_frame   0x000003d8       0x20 d:/gcc-arm-none-eabi-7-2017-q4-major-win32/bin/../lib/gcc/arm-none-eabi/7.2.1/../../../../arm-none-eabi/lib/thumb/v7e-m/fpv4-sp/hard\libm.a(lib_a-sf_ceil.o)
 .debug_frame   0x000003f8       0x64 d:/gcc-arm-none-eabi-7-2017-q4-major-win32/bin/../lib/gcc/arm-none-eabi/7.2.1/../../../../arm-none-eabi/lib/thumb/v7e-m/fpv4-sp/hard\libm.a(lib_a-sf_log2.o)
 .debug_frame   0x0000045c       0x48 d:/gcc-arm-none-eabi-7-2017-q4-major-win32/bin/../lib/gcc/arm-none-eabi/7.2.1/../../../../arm-none-eabi/lib/thumb/v7e-m/fpv4-sp/hard\libm.a(lib_a-sf_lrint.o)
 .debug_frame   0x000004a4       0x9c d:/gcc-arm-none-eabi-7-2017-q4-major-win32/bin/../lib/gcc/arm-none-eabi/7.2.1/../../../../arm-none-eabi/lib/thumb/v7e-m/fpv4-sp/hard\libm.a(lib_a-sf_pow.o)
 .debug_frame   0x00000540       0x98 d:/gcc-arm-none-eabi-7-2017-q4-major-win32/bin/../lib/gcc/arm-none-eabi/7.2.1/../../../../arm-none-eabi/lib/thumb/v7e-m/fpv4-sp/hard\libm.a(lib_a-math_errf.o)
 .debug_frame   0x000005d8       0xac d:/gcc-arm-none-eabi-7-2017-q4-major-win32/bin/../lib/gcc/arm-none-eabi/7.2.1/thumb/v7e-m/fpv4-sp/hard\libgcc.a(_arm_addsubdf3.o)
 .debug_frame   0x00000684       0x50 d:/gcc-arm-none-eabi-7-2017-q4-major-win32/bin/../lib/gcc/arm-none-eabi/7.2.1/thumb/v7e-m/fpv4-sp/hard\libgcc.a(_arm_muldivdf3.o)
 .debug_frame   0x000006d4       0xc4 d:/gcc-arm-none-eabi-7-2017-q4-major-win32/bin/../lib/gcc/arm-none-eabi/7.2.1/thumb/v7e-m/fpv4-sp/hard\libgcc.a(_arm_cmpdf2.o)
 .debug_frame   0x00000798       0x24 d:/gcc-arm-none-eabi-7-2017-q4-major-win32/bin/../lib/gcc/arm-none-eabi/7.2.1/thumb/v7e-m/fpv4-sp/hard\libgcc.a(_arm_fixunsdfsi.o)
 .debug_frame   0x000007bc       0x24 d:/gcc-arm-none-eabi-7-2017-q4-major-win32/bin/../lib/gcc/arm-none-eabi/7.2.1/thumb/v7e-m/fpv4-sp/hard\libgcc.a(_arm_truncdfsf2.o)
 .debug_frame   0x000007e0       0x44 d:/gcc-arm-none-eabi-7-2017-q4-major-win32/bin/../lib/gcc/arm-none-eabi/7.2.1/thumb/v7e-m/fpv4-sp/hard\libgcc.a(_aeabi_ldivmod.o)
 .debug_frame   0x00000824       0x20 d:/gcc-arm-none-eabi-7-2017-q4-major-win32/bin/../lib/gcc/arm-none-eabi/7.2.1/thumb/v7e-m/fpv4-sp/hard\libgcc.a(_popcountsi2.o)
 .debug_frame   0x00000844       0x34 d:/gcc-arm-none-eabi-7-2017-q4-major-win32/bin/../lib/gcc/arm-none-eabi/7.2.1/thumb/v7e-m/fpv4-sp/hard\libgcc.a(_udivmoddi4.o)

Cross Reference Table

Symbol                                            File
ADC1_2_IRQHandler                                 obj/main/BETAFLIGHTF3/startup_stm32f30x_md_gcc.o
ADC3_IRQHandler                                   obj/main/BETAFLIGHTF3/startup_stm32f30x_md_gcc.o
ADC4_IRQHandler                                   obj/main/BETAFLIGHTF3/startup_stm32f30x_md_gcc.o
ADC_AnalogWatchdog1SingleChannelConfig            obj/main/BETAFLIGHTF3/stm32f30x_adc.o (symbol from plugin)
ADC_AnalogWatchdog1ThresholdsConfig               obj/main/BETAFLIGHTF3/stm32f30x_adc.o (symbol from plugin)
ADC_AnalogWatchdog2SingleChannelConfig            obj/main/BETAFLIGHTF3/stm32f30x_adc.o (symbol from plugin)
ADC_AnalogWatchdog2ThresholdsConfig               obj/main/BETAFLIGHTF3/stm32f30x_adc.o (symbol from plugin)
ADC_AnalogWatchdog3SingleChannelConfig            obj/main/BETAFLIGHTF3/stm32f30x_adc.o (symbol from plugin)
ADC_AnalogWatchdog3ThresholdsConfig               obj/main/BETAFLIGHTF3/stm32f30x_adc.o (symbol from plugin)
ADC_AnalogWatchdogCmd                             obj/main/BETAFLIGHTF3/stm32f30x_adc.o (symbol from plugin)
ADC_AutoDelayCmd                                  obj/main/BETAFLIGHTF3/stm32f30x_adc.o (symbol from plugin)
ADC_AutoInjectedConvCmd                           obj/main/BETAFLIGHTF3/stm32f30x_adc.o (symbol from plugin)
ADC_ChannelOffset1Cmd                             obj/main/BETAFLIGHTF3/stm32f30x_adc.o (symbol from plugin)
ADC_ChannelOffset2Cmd                             obj/main/BETAFLIGHTF3/stm32f30x_adc.o (symbol from plugin)
ADC_ChannelOffset3Cmd                             obj/main/BETAFLIGHTF3/stm32f30x_adc.o (symbol from plugin)
ADC_ChannelOffset4Cmd                             obj/main/BETAFLIGHTF3/stm32f30x_adc.o (symbol from plugin)
ADC_ClearCommonFlag                               obj/main/BETAFLIGHTF3/stm32f30x_adc.o (symbol from plugin)
ADC_ClearFlag                                     obj/main/BETAFLIGHTF3/stm32f30x_adc.o (symbol from plugin)
ADC_ClearITPendingBit                             obj/main/BETAFLIGHTF3/stm32f30x_adc.o (symbol from plugin)
ADC_Cmd                                           obj/main/BETAFLIGHTF3/stm32f30x_adc.o (symbol from plugin)
                                                  obj/main/BETAFLIGHTF3/drivers/adc_stm32f30x.o (symbol from plugin)
ADC_CommonInit                                    obj/main/BETAFLIGHTF3/stm32f30x_adc.o (symbol from plugin)
                                                  obj/main/BETAFLIGHTF3/drivers/adc_stm32f30x.o (symbol from plugin)
ADC_CommonStructInit                              obj/main/BETAFLIGHTF3/stm32f30x_adc.o (symbol from plugin)
                                                  obj/main/BETAFLIGHTF3/drivers/adc_stm32f30x.o (symbol from plugin)
ADC_DMACmd                                        obj/main/BETAFLIGHTF3/stm32f30x_adc.o (symbol from plugin)
                                                  obj/main/BETAFLIGHTF3/drivers/adc_stm32f30x.o (symbol from plugin)
ADC_DMAConfig                                     obj/main/BETAFLIGHTF3/stm32f30x_adc.o (symbol from plugin)
                                                  obj/main/BETAFLIGHTF3/drivers/adc_stm32f30x.o (symbol from plugin)
ADC_DeInit                                        obj/main/BETAFLIGHTF3/stm32f30x_adc.o (symbol from plugin)
ADC_DisableCmd                                    obj/main/BETAFLIGHTF3/stm32f30x_adc.o (symbol from plugin)
ADC_DiscModeChannelCountConfig                    obj/main/BETAFLIGHTF3/stm32f30x_adc.o (symbol from plugin)
ADC_DiscModeCmd                                   obj/main/BETAFLIGHTF3/stm32f30x_adc.o (symbol from plugin)
ADC_ExternalTriggerConfig                         obj/main/BETAFLIGHTF3/stm32f30x_adc.o (symbol from plugin)
ADC_GetCalibrationStatus                          obj/main/BETAFLIGHTF3/stm32f30x_adc.o (symbol from plugin)
                                                  obj/main/BETAFLIGHTF3/drivers/adc_stm32f30x.o (symbol from plugin)
ADC_GetCalibrationValue                           obj/main/BETAFLIGHTF3/stm32f30x_adc.o (symbol from plugin)
ADC_GetCommonFlagStatus                           obj/main/BETAFLIGHTF3/stm32f30x_adc.o (symbol from plugin)
ADC_GetConversionValue                            obj/main/BETAFLIGHTF3/stm32f30x_adc.o (symbol from plugin)
ADC_GetDisableCmdStatus                           obj/main/BETAFLIGHTF3/stm32f30x_adc.o (symbol from plugin)
ADC_GetDualModeConversionValue                    obj/main/BETAFLIGHTF3/stm32f30x_adc.o (symbol from plugin)
ADC_GetFlagStatus                                 obj/main/BETAFLIGHTF3/stm32f30x_adc.o (symbol from plugin)
                                                  obj/main/BETAFLIGHTF3/drivers/adc_stm32f30x.o (symbol from plugin)
ADC_GetITStatus                                   obj/main/BETAFLIGHTF3/stm32f30x_adc.o (symbol from plugin)
ADC_GetInjectedConversionValue                    obj/main/BETAFLIGHTF3/stm32f30x_adc.o (symbol from plugin)
ADC_GetStartConversionStatus                      obj/main/BETAFLIGHTF3/stm32f30x_adc.o (symbol from plugin)
ADC_GetStartInjectedConversionStatus              obj/main/BETAFLIGHTF3/stm32f30x_adc.o (symbol from plugin)
ADC_ITConfig                                      obj/main/BETAFLIGHTF3/stm32f30x_adc.o (symbol from plugin)
ADC_Init                                          obj/main/BETAFLIGHTF3/stm32f30x_adc.o (symbol from plugin)
                                                  obj/main/BETAFLIGHTF3/drivers/adc_stm32f30x.o (symbol from plugin)
ADC_InjectedChannelSampleTimeConfig               obj/main/BETAFLIGHTF3/stm32f30x_adc.o (symbol from plugin)
ADC_InjectedDiscModeCmd                           obj/main/BETAFLIGHTF3/stm32f30x_adc.o (symbol from plugin)
ADC_InjectedInit                                  obj/main/BETAFLIGHTF3/stm32f30x_adc.o (symbol from plugin)
ADC_InjectedStructInit                            obj/main/BETAFLIGHTF3/stm32f30x_adc.o (symbol from plugin)
ADC_RegularChannelConfig                          obj/main/BETAFLIGHTF3/stm32f30x_adc.o (symbol from plugin)
                                                  obj/main/BETAFLIGHTF3/drivers/adc_stm32f30x.o (symbol from plugin)
ADC_RegularChannelSequencerLengthConfig           obj/main/BETAFLIGHTF3/stm32f30x_adc.o (symbol from plugin)
ADC_SelectCalibrationMode                         obj/main/BETAFLIGHTF3/stm32f30x_adc.o (symbol from plugin)
                                                  obj/main/BETAFLIGHTF3/drivers/adc_stm32f30x.o (symbol from plugin)
ADC_SelectDifferentialMode                        obj/main/BETAFLIGHTF3/stm32f30x_adc.o (symbol from plugin)
ADC_SelectQueueOfContextMode                      obj/main/BETAFLIGHTF3/stm32f30x_adc.o (symbol from plugin)
ADC_SetCalibrationValue                           obj/main/BETAFLIGHTF3/stm32f30x_adc.o (symbol from plugin)
ADC_SetChannelOffset1                             obj/main/BETAFLIGHTF3/stm32f30x_adc.o (symbol from plugin)
ADC_SetChannelOffset2                             obj/main/BETAFLIGHTF3/stm32f30x_adc.o (symbol from plugin)
ADC_SetChannelOffset3                             obj/main/BETAFLIGHTF3/stm32f30x_adc.o (symbol from plugin)
ADC_SetChannelOffset4                             obj/main/BETAFLIGHTF3/stm32f30x_adc.o (symbol from plugin)
ADC_StartCalibration                              obj/main/BETAFLIGHTF3/stm32f30x_adc.o (symbol from plugin)
                                                  obj/main/BETAFLIGHTF3/drivers/adc_stm32f30x.o (symbol from plugin)
ADC_StartConversion                               obj/main/BETAFLIGHTF3/stm32f30x_adc.o (symbol from plugin)
                                                  obj/main/BETAFLIGHTF3/drivers/adc_stm32f30x.o (symbol from plugin)
ADC_StartInjectedConversion                       obj/main/BETAFLIGHTF3/stm32f30x_adc.o (symbol from plugin)
ADC_StopConversion                                obj/main/BETAFLIGHTF3/stm32f30x_adc.o (symbol from plugin)
ADC_StopInjectedConversion                        obj/main/BETAFLIGHTF3/stm32f30x_adc.o (symbol from plugin)
ADC_StructInit                                    obj/main/BETAFLIGHTF3/stm32f30x_adc.o (symbol from plugin)
                                                  obj/main/BETAFLIGHTF3/drivers/adc_stm32f30x.o (symbol from plugin)
ADC_TempSensorCmd                                 obj/main/BETAFLIGHTF3/stm32f30x_adc.o (symbol from plugin)
ADC_VbatCmd                                       obj/main/BETAFLIGHTF3/stm32f30x_adc.o (symbol from plugin)
ADC_VoltageRegulatorCmd                           obj/main/BETAFLIGHTF3/stm32f30x_adc.o (symbol from plugin)
                                                  obj/main/BETAFLIGHTF3/drivers/adc_stm32f30x.o (symbol from plugin)
ADC_VrefintCmd                                    obj/main/BETAFLIGHTF3/stm32f30x_adc.o (symbol from plugin)
AHBPrescTable                                     obj/main/BETAFLIGHTF3/target/system_stm32f30x.o (symbol from plugin)
AccInflightCalibrationActive                      obj/main/BETAFLIGHTF3/fc/fc_core.o (symbol from plugin)
                                                  obj/main/BETAFLIGHTF3/sensors/acceleration.o (symbol from plugin)
AccInflightCalibrationArmed                       obj/main/BETAFLIGHTF3/fc/fc_core.o (symbol from plugin)
AccInflightCalibrationMeasurementDone             obj/main/BETAFLIGHTF3/fc/fc_core.o (symbol from plugin)
                                                  obj/main/BETAFLIGHTF3/sensors/acceleration.o (symbol from plugin)
AccInflightCalibrationSavetoEEProm                obj/main/BETAFLIGHTF3/fc/fc_core.o (symbol from plugin)
                                                  obj/main/BETAFLIGHTF3/sensors/acceleration.o (symbol from plugin)
AltHold                                           obj/main/BETAFLIGHTF3/flight/altitude.o (symbol from plugin)
BIT_COMPARE_0                                     C:\cygwin64\tmp\ccTUqUH8.ltrans1.ltrans.o
                                                  obj/main/BETAFLIGHTF3/drivers/light_ws2811strip.o (symbol from plugin)
                                                  C:\cygwin64\tmp\ccTUqUH8.ltrans5.ltrans.o
                                                  obj/main/BETAFLIGHTF3/drivers/light_ws2811strip_stdperiph.o (symbol from plugin)
BIT_COMPARE_1                                     C:\cygwin64\tmp\ccTUqUH8.ltrans1.ltrans.o
                                                  obj/main/BETAFLIGHTF3/drivers/light_ws2811strip.o (symbol from plugin)
                                                  C:\cygwin64\tmp\ccTUqUH8.ltrans5.ltrans.o
                                                  obj/main/BETAFLIGHTF3/drivers/light_ws2811strip_stdperiph.o (symbol from plugin)
BL_ConnectEx                                      obj/main/BETAFLIGHTF3/io/serial_4way_avrootloader.o (symbol from plugin)
                                                  obj/main/BETAFLIGHTF3/io/serial_4way.o (symbol from plugin)
BL_PageErase                                      obj/main/BETAFLIGHTF3/io/serial_4way_avrootloader.o (symbol from plugin)
                                                  obj/main/BETAFLIGHTF3/io/serial_4way.o (symbol from plugin)
BL_ReadEEprom                                     obj/main/BETAFLIGHTF3/io/serial_4way_avrootloader.o (symbol from plugin)
                                                  obj/main/BETAFLIGHTF3/io/serial_4way.o (symbol from plugin)
BL_ReadFlash                                      obj/main/BETAFLIGHTF3/io/serial_4way_avrootloader.o (symbol from plugin)
                                                  obj/main/BETAFLIGHTF3/io/serial_4way.o (symbol from plugin)
BL_SendCMDKeepAlive                               obj/main/BETAFLIGHTF3/io/serial_4way_avrootloader.o (symbol from plugin)
                                                  obj/main/BETAFLIGHTF3/io/serial_4way.o (symbol from plugin)
BL_SendCMDRunRestartBootloader                    obj/main/BETAFLIGHTF3/io/serial_4way_avrootloader.o (symbol from plugin)
                                                  obj/main/BETAFLIGHTF3/io/serial_4way.o (symbol from plugin)
BL_VerifyFlash                                    obj/main/BETAFLIGHTF3/io/serial_4way_avrootloader.o (symbol from plugin)
                                                  obj/main/BETAFLIGHTF3/io/serial_4way.o (symbol from plugin)
BL_WriteEEprom                                    obj/main/BETAFLIGHTF3/io/serial_4way_avrootloader.o (symbol from plugin)
                                                  obj/main/BETAFLIGHTF3/io/serial_4way.o (symbol from plugin)
BL_WriteFlash                                     obj/main/BETAFLIGHTF3/io/serial_4way_avrootloader.o (symbol from plugin)
                                                  obj/main/BETAFLIGHTF3/io/serial_4way.o (symbol from plugin)
BusFault_Handler                                  C:\cygwin64\tmp\ccTUqUH8.ltrans6.ltrans.o
                                                  obj/main/BETAFLIGHTF3/vcp/stm32_it.o (symbol from plugin)
                                                  obj/main/BETAFLIGHTF3/startup_stm32f30x_md_gcc.o
ByteSwap                                          obj/main/BETAFLIGHTF3/usb_regs.o (symbol from plugin)
                                                  obj/main/BETAFLIGHTF3/usb_core.o (symbol from plugin)
CAN1_RX1_IRQHandler                               obj/main/BETAFLIGHTF3/startup_stm32f30x_md_gcc.o
CAN1_SCE_IRQHandler                               obj/main/BETAFLIGHTF3/startup_stm32f30x_md_gcc.o
CDC_BaudRate                                      obj/main/BETAFLIGHTF3/vcp/hw_config.o (symbol from plugin)
                                                  obj/main/BETAFLIGHTF3/drivers/serial_usb_vcp.o (symbol from plugin)
CDC_Receive_BytesAvailable                        obj/main/BETAFLIGHTF3/vcp/hw_config.o (symbol from plugin)
                                                  obj/main/BETAFLIGHTF3/drivers/serial_usb_vcp.o (symbol from plugin)
CDC_Receive_DATA                                  obj/main/BETAFLIGHTF3/vcp/hw_config.o (symbol from plugin)
                                                  obj/main/BETAFLIGHTF3/drivers/serial_usb_vcp.o (symbol from plugin)
CDC_Send_DATA                                     obj/main/BETAFLIGHTF3/vcp/hw_config.o (symbol from plugin)
                                                  obj/main/BETAFLIGHTF3/drivers/serial_usb_vcp.o (symbol from plugin)
CDC_Send_FreeBytes                                obj/main/BETAFLIGHTF3/vcp/hw_config.o (symbol from plugin)
                                                  obj/main/BETAFLIGHTF3/drivers/serial_usb_vcp.o (symbol from plugin)
COMP1_2_3_IRQHandler                              obj/main/BETAFLIGHTF3/startup_stm32f30x_md_gcc.o
COMP4_5_6_IRQHandler                              obj/main/BETAFLIGHTF3/startup_stm32f30x_md_gcc.o
COMP7_IRQHandler                                  obj/main/BETAFLIGHTF3/startup_stm32f30x_md_gcc.o
COMP_Cmd                                          obj/main/BETAFLIGHTF3/stm32f30x_comp.o (symbol from plugin)
COMP_DeInit                                       obj/main/BETAFLIGHTF3/stm32f30x_comp.o (symbol from plugin)
COMP_GetOutputLevel                               obj/main/BETAFLIGHTF3/stm32f30x_comp.o (symbol from plugin)
COMP_Init                                         obj/main/BETAFLIGHTF3/stm32f30x_comp.o (symbol from plugin)
COMP_LockConfig                                   obj/main/BETAFLIGHTF3/stm32f30x_comp.o (symbol from plugin)
COMP_StructInit                                   obj/main/BETAFLIGHTF3/stm32f30x_comp.o (symbol from plugin)
COMP_SwitchCmd                                    obj/main/BETAFLIGHTF3/stm32f30x_comp.o (symbol from plugin)
COMP_WindowCmd                                    obj/main/BETAFLIGHTF3/stm32f30x_comp.o (symbol from plugin)
CRC_in.lto_priv.411                               C:\cygwin64\tmp\ccTUqUH8.ltrans1.ltrans.o
                                                  C:\cygwin64\tmp\ccTUqUH8.ltrans3.ltrans.o
CRCout.lto_priv.409                               C:\cygwin64\tmp\ccTUqUH8.ltrans1.ltrans.o
                                                  C:\cygwin64\tmp\ccTUqUH8.ltrans3.ltrans.o
CTR_HP                                            obj/main/BETAFLIGHTF3/usb_int.o (symbol from plugin)
CTR_LP                                            obj/main/BETAFLIGHTF3/usb_int.o (symbol from plugin)
                                                  obj/main/BETAFLIGHTF3/vcp/usb_istr.o (symbol from plugin)
ClearDTOG_RX                                      obj/main/BETAFLIGHTF3/usb_regs.o (symbol from plugin)
                                                  obj/main/BETAFLIGHTF3/usb_core.o (symbol from plugin)
ClearDTOG_TX                                      obj/main/BETAFLIGHTF3/usb_regs.o (symbol from plugin)
                                                  obj/main/BETAFLIGHTF3/usb_core.o (symbol from plugin)
ClearEPDoubleBuff                                 obj/main/BETAFLIGHTF3/usb_regs.o (symbol from plugin)
ClearEP_CTR_RX                                    obj/main/BETAFLIGHTF3/usb_regs.o (symbol from plugin)
ClearEP_CTR_TX                                    obj/main/BETAFLIGHTF3/usb_regs.o (symbol from plugin)
ClearEP_KIND                                      obj/main/BETAFLIGHTF3/usb_regs.o (symbol from plugin)
Clear_Status_Out                                  obj/main/BETAFLIGHTF3/usb_regs.o (symbol from plugin)
                                                  obj/main/BETAFLIGHTF3/vcp/usb_prop.o (symbol from plugin)
Config_Descriptor                                 obj/main/BETAFLIGHTF3/vcp/usb_prop.o (symbol from plugin)
DAC_ClearFlag                                     obj/main/BETAFLIGHTF3/stm32f30x_dac.o (symbol from plugin)
DAC_ClearITPendingBit                             obj/main/BETAFLIGHTF3/stm32f30x_dac.o (symbol from plugin)
DAC_Cmd                                           obj/main/BETAFLIGHTF3/stm32f30x_dac.o (symbol from plugin)
DAC_DMACmd                                        obj/main/BETAFLIGHTF3/stm32f30x_dac.o (symbol from plugin)
DAC_DeInit                                        obj/main/BETAFLIGHTF3/stm32f30x_dac.o (symbol from plugin)
DAC_DualSoftwareTriggerCmd                        obj/main/BETAFLIGHTF3/stm32f30x_dac.o (symbol from plugin)
DAC_GetDataOutputValue                            obj/main/BETAFLIGHTF3/stm32f30x_dac.o (symbol from plugin)
DAC_GetFlagStatus                                 obj/main/BETAFLIGHTF3/stm32f30x_dac.o (symbol from plugin)
DAC_GetITStatus                                   obj/main/BETAFLIGHTF3/stm32f30x_dac.o (symbol from plugin)
DAC_ITConfig                                      obj/main/BETAFLIGHTF3/stm32f30x_dac.o (symbol from plugin)
DAC_Init                                          obj/main/BETAFLIGHTF3/stm32f30x_dac.o (symbol from plugin)
DAC_SetChannel1Data                               obj/main/BETAFLIGHTF3/stm32f30x_dac.o (symbol from plugin)
DAC_SetChannel2Data                               obj/main/BETAFLIGHTF3/stm32f30x_dac.o (symbol from plugin)
DAC_SetDualChannelData                            obj/main/BETAFLIGHTF3/stm32f30x_dac.o (symbol from plugin)
DAC_SoftwareTriggerCmd                            obj/main/BETAFLIGHTF3/stm32f30x_dac.o (symbol from plugin)
DAC_StructInit                                    obj/main/BETAFLIGHTF3/stm32f30x_dac.o (symbol from plugin)
DAC_WaveGenerationCmd                             obj/main/BETAFLIGHTF3/stm32f30x_dac.o (symbol from plugin)
DBGMCU_APB1PeriphConfig                           obj/main/BETAFLIGHTF3/stm32f30x_dbgmcu.o (symbol from plugin)
DBGMCU_APB2PeriphConfig                           obj/main/BETAFLIGHTF3/stm32f30x_dbgmcu.o (symbol from plugin)
DBGMCU_Config                                     obj/main/BETAFLIGHTF3/stm32f30x_dbgmcu.o (symbol from plugin)
DBGMCU_GetDEVID                                   obj/main/BETAFLIGHTF3/stm32f30x_dbgmcu.o (symbol from plugin)
DBGMCU_GetREVID                                   obj/main/BETAFLIGHTF3/stm32f30x_dbgmcu.o (symbol from plugin)
DMA1_Channel1_IRQHandler                          C:\cygwin64\tmp\ccTUqUH8.ltrans5.ltrans.o
                                                  obj/main/BETAFLIGHTF3/drivers/dma.o (symbol from plugin)
                                                  obj/main/BETAFLIGHTF3/startup_stm32f30x_md_gcc.o
DMA1_Channel2_IRQHandler                          C:\cygwin64\tmp\ccTUqUH8.ltrans5.ltrans.o
                                                  obj/main/BETAFLIGHTF3/drivers/dma.o (symbol from plugin)
                                                  obj/main/BETAFLIGHTF3/startup_stm32f30x_md_gcc.o
DMA1_Channel3_IRQHandler                          C:\cygwin64\tmp\ccTUqUH8.ltrans5.ltrans.o
                                                  obj/main/BETAFLIGHTF3/drivers/dma.o (symbol from plugin)
                                                  obj/main/BETAFLIGHTF3/startup_stm32f30x_md_gcc.o
DMA1_Channel4_IRQHandler                          C:\cygwin64\tmp\ccTUqUH8.ltrans5.ltrans.o
                                                  obj/main/BETAFLIGHTF3/drivers/dma.o (symbol from plugin)
                                                  obj/main/BETAFLIGHTF3/startup_stm32f30x_md_gcc.o
DMA1_Channel5_IRQHandler                          C:\cygwin64\tmp\ccTUqUH8.ltrans5.ltrans.o
                                                  obj/main/BETAFLIGHTF3/drivers/dma.o (symbol from plugin)
                                                  obj/main/BETAFLIGHTF3/startup_stm32f30x_md_gcc.o
DMA1_Channel6_IRQHandler                          C:\cygwin64\tmp\ccTUqUH8.ltrans5.ltrans.o
                                                  obj/main/BETAFLIGHTF3/drivers/dma.o (symbol from plugin)
                                                  obj/main/BETAFLIGHTF3/startup_stm32f30x_md_gcc.o
DMA1_Channel7_IRQHandler                          C:\cygwin64\tmp\ccTUqUH8.ltrans5.ltrans.o
                                                  obj/main/BETAFLIGHTF3/drivers/dma.o (symbol from plugin)
                                                  obj/main/BETAFLIGHTF3/startup_stm32f30x_md_gcc.o
DMA2_Channel1_IRQHandler                          C:\cygwin64\tmp\ccTUqUH8.ltrans5.ltrans.o
                                                  obj/main/BETAFLIGHTF3/drivers/dma.o (symbol from plugin)
                                                  obj/main/BETAFLIGHTF3/startup_stm32f30x_md_gcc.o
DMA2_Channel2_IRQHandler                          C:\cygwin64\tmp\ccTUqUH8.ltrans5.ltrans.o
                                                  obj/main/BETAFLIGHTF3/drivers/dma.o (symbol from plugin)
                                                  obj/main/BETAFLIGHTF3/startup_stm32f30x_md_gcc.o
DMA2_Channel3_IRQHandler                          C:\cygwin64\tmp\ccTUqUH8.ltrans5.ltrans.o
                                                  obj/main/BETAFLIGHTF3/drivers/dma.o (symbol from plugin)
                                                  obj/main/BETAFLIGHTF3/startup_stm32f30x_md_gcc.o
DMA2_Channel4_IRQHandler                          C:\cygwin64\tmp\ccTUqUH8.ltrans5.ltrans.o
                                                  obj/main/BETAFLIGHTF3/drivers/dma.o (symbol from plugin)
                                                  obj/main/BETAFLIGHTF3/startup_stm32f30x_md_gcc.o
DMA2_Channel5_IRQHandler                          C:\cygwin64\tmp\ccTUqUH8.ltrans5.ltrans.o
                                                  obj/main/BETAFLIGHTF3/drivers/dma.o (symbol from plugin)
                                                  obj/main/BETAFLIGHTF3/startup_stm32f30x_md_gcc.o
DMA_ClearFlag                                     obj/main/BETAFLIGHTF3/stm32f30x_dma.o (symbol from plugin)
                                                  obj/main/BETAFLIGHTF3/drivers/sdcard.o (symbol from plugin)
DMA_ClearITPendingBit                             obj/main/BETAFLIGHTF3/stm32f30x_dma.o (symbol from plugin)
DMA_Cmd                                           obj/main/BETAFLIGHTF3/stm32f30x_dma.o (symbol from plugin)
                                                  obj/main/BETAFLIGHTF3/drivers/sdcard.o (symbol from plugin)
                                                  obj/main/BETAFLIGHTF3/drivers/serial_uart.o (symbol from plugin)
                                                  obj/main/BETAFLIGHTF3/drivers/serial_uart_stm32f30x.o (symbol from plugin)
                                                  obj/main/BETAFLIGHTF3/drivers/serial_uart_init.o (symbol from plugin)
                                                  obj/main/BETAFLIGHTF3/drivers/pwm_output_dshot.o (symbol from plugin)
                                                  obj/main/BETAFLIGHTF3/drivers/light_ws2811strip_stdperiph.o (symbol from plugin)
                                                  obj/main/BETAFLIGHTF3/drivers/adc_stm32f30x.o (symbol from plugin)
DMA_DeInit                                        C:\cygwin64\tmp\ccTUqUH8.ltrans2.ltrans.o
                                                  obj/main/BETAFLIGHTF3/stm32f30x_dma.o (symbol from plugin)
                                                  C:\cygwin64\tmp\ccTUqUH8.ltrans6.ltrans.o
                                                  C:\cygwin64\tmp\ccTUqUH8.ltrans5.ltrans.o
                                                  C:\cygwin64\tmp\ccTUqUH8.ltrans4.ltrans.o
                                                  obj/main/BETAFLIGHTF3/drivers/sdcard.o (symbol from plugin)
                                                  obj/main/BETAFLIGHTF3/drivers/serial_uart_init.o (symbol from plugin)
                                                  obj/main/BETAFLIGHTF3/drivers/pwm_output_dshot.o (symbol from plugin)
                                                  obj/main/BETAFLIGHTF3/drivers/light_ws2811strip_stdperiph.o (symbol from plugin)
                                                  obj/main/BETAFLIGHTF3/drivers/adc_stm32f30x.o (symbol from plugin)
DMA_GetCurrDataCounter                            obj/main/BETAFLIGHTF3/stm32f30x_dma.o (symbol from plugin)
                                                  obj/main/BETAFLIGHTF3/drivers/serial_uart_init.o (symbol from plugin)
DMA_GetFlagStatus                                 obj/main/BETAFLIGHTF3/stm32f30x_dma.o (symbol from plugin)
                                                  obj/main/BETAFLIGHTF3/drivers/sdcard.o (symbol from plugin)
DMA_GetITStatus                                   obj/main/BETAFLIGHTF3/stm32f30x_dma.o (symbol from plugin)
DMA_ITConfig                                      obj/main/BETAFLIGHTF3/stm32f30x_dma.o (symbol from plugin)
                                                  obj/main/BETAFLIGHTF3/drivers/serial_uart_init.o (symbol from plugin)
                                                  obj/main/BETAFLIGHTF3/drivers/pwm_output_dshot.o (symbol from plugin)
                                                  obj/main/BETAFLIGHTF3/drivers/light_ws2811strip_stdperiph.o (symbol from plugin)
DMA_Init                                          C:\cygwin64\tmp\ccTUqUH8.ltrans2.ltrans.o
                                                  obj/main/BETAFLIGHTF3/stm32f30x_dma.o (symbol from plugin)
                                                  C:\cygwin64\tmp\ccTUqUH8.ltrans6.ltrans.o
                                                  C:\cygwin64\tmp\ccTUqUH8.ltrans5.ltrans.o
                                                  C:\cygwin64\tmp\ccTUqUH8.ltrans4.ltrans.o
                                                  obj/main/BETAFLIGHTF3/drivers/sdcard.o (symbol from plugin)
                                                  obj/main/BETAFLIGHTF3/drivers/serial_uart_init.o (symbol from plugin)
                                                  obj/main/BETAFLIGHTF3/drivers/pwm_output_dshot.o (symbol from plugin)
                                                  obj/main/BETAFLIGHTF3/drivers/light_ws2811strip_stdperiph.o (symbol from plugin)
                                                  obj/main/BETAFLIGHTF3/drivers/adc_stm32f30x.o (symbol from plugin)
DMA_SetCurrDataCounter                            obj/main/BETAFLIGHTF3/stm32f30x_dma.o (symbol from plugin)
                                                  obj/main/BETAFLIGHTF3/drivers/serial_uart_init.o (symbol from plugin)
                                                  obj/main/BETAFLIGHTF3/drivers/pwm_output_dshot.o (symbol from plugin)
                                                  obj/main/BETAFLIGHTF3/drivers/light_ws2811strip_stdperiph.o (symbol from plugin)
DMA_StructInit                                    C:\cygwin64\tmp\ccTUqUH8.ltrans2.ltrans.o
                                                  obj/main/BETAFLIGHTF3/stm32f30x_dma.o (symbol from plugin)
                                                  C:\cygwin64\tmp\ccTUqUH8.ltrans6.ltrans.o
                                                  C:\cygwin64\tmp\ccTUqUH8.ltrans5.ltrans.o
                                                  C:\cygwin64\tmp\ccTUqUH8.ltrans4.ltrans.o
                                                  obj/main/BETAFLIGHTF3/drivers/sdcard.o (symbol from plugin)
                                                  obj/main/BETAFLIGHTF3/drivers/serial_uart_init.o (symbol from plugin)
                                                  obj/main/BETAFLIGHTF3/drivers/pwm_output_dshot.o (symbol from plugin)
                                                  obj/main/BETAFLIGHTF3/drivers/light_ws2811strip_stdperiph.o (symbol from plugin)
                                                  obj/main/BETAFLIGHTF3/drivers/adc_stm32f30x.o (symbol from plugin)
DataStageIn.lto_priv.296                          C:\cygwin64\tmp\ccTUqUH8.ltrans2.ltrans.o
                                                  C:\cygwin64\tmp\ccTUqUH8.ltrans6.ltrans.o
Data_Mul_MaxPacketSize                            C:\cygwin64\tmp\ccTUqUH8.ltrans6.ltrans.o
                                                  obj/main/BETAFLIGHTF3/usb_core.o (symbol from plugin)
                                                  C:\cygwin64\tmp\ccTUqUH8.ltrans2.ltrans.o
DebugMon_Handler                                  C:\cygwin64\tmp\ccTUqUH8.ltrans6.ltrans.o
                                                  obj/main/BETAFLIGHTF3/vcp/stm32_it.o (symbol from plugin)
                                                  obj/main/BETAFLIGHTF3/startup_stm32f30x_md_gcc.o
Default_Handler                                   obj/main/BETAFLIGHTF3/startup_stm32f30x_md_gcc.o
DeviceInfo                                        obj/main/BETAFLIGHTF3/io/serial_4way.o (symbol from plugin)
Device_Descriptor                                 obj/main/BETAFLIGHTF3/vcp/usb_prop.o (symbol from plugin)
Device_Info                                       C:\cygwin64\tmp\ccTUqUH8.ltrans6.ltrans.o
                                                  obj/main/BETAFLIGHTF3/usb_init.o (symbol from plugin)
                                                  C:\cygwin64\tmp\ccTUqUH8.ltrans4.ltrans.o
                                                  obj/main/BETAFLIGHTF3/vcp/usb_prop.o (symbol from plugin)
                                                  obj/main/BETAFLIGHTF3/vcp/hw_config.o (symbol from plugin)
Device_Property                                   C:\cygwin64\tmp\ccTUqUH8.ltrans6.ltrans.o
                                                  obj/main/BETAFLIGHTF3/vcp/usb_prop.o (symbol from plugin)
                                                  C:\cygwin64\tmp\ccTUqUH8.ltrans4.ltrans.o
                                                  C:\cygwin64\tmp\ccTUqUH8.ltrans2.ltrans.o
                                                  obj/main/BETAFLIGHTF3/vcp/usb_istr.o (symbol from plugin)
                                                  obj/main/BETAFLIGHTF3/usb_init.o (symbol from plugin)
                                                  obj/main/BETAFLIGHTF3/usb_core.o (symbol from plugin)
Device_Table                                      C:\cygwin64\tmp\ccTUqUH8.ltrans6.ltrans.o
                                                  obj/main/BETAFLIGHTF3/vcp/usb_prop.o (symbol from plugin)
                                                  obj/main/BETAFLIGHTF3/usb_core.o (symbol from plugin)
EP                                                obj/main/BETAFLIGHTF3/vcp/usb_pwr.o (symbol from plugin)
EP1_IN_Callback                                   obj/main/BETAFLIGHTF3/vcp/usb_endp.o (symbol from plugin)
                                                  obj/main/BETAFLIGHTF3/vcp/usb_istr.o (symbol from plugin)
EP3_OUT_Callback                                  obj/main/BETAFLIGHTF3/vcp/usb_endp.o (symbol from plugin)
                                                  obj/main/BETAFLIGHTF3/vcp/usb_istr.o (symbol from plugin)
EPindex                                           obj/main/BETAFLIGHTF3/usb_init.o (symbol from plugin)
                                                  obj/main/BETAFLIGHTF3/usb_int.o (symbol from plugin)
EXTI0_IRQHandler                                  C:\cygwin64\tmp\ccTUqUH8.ltrans5.ltrans.o
                                                  obj/main/BETAFLIGHTF3/drivers/exti.o (symbol from plugin)
                                                  obj/main/BETAFLIGHTF3/startup_stm32f30x_md_gcc.o
EXTI15_10_IRQHandler                              C:\cygwin64\tmp\ccTUqUH8.ltrans5.ltrans.o
                                                  obj/main/BETAFLIGHTF3/drivers/exti.o (symbol from plugin)
                                                  obj/main/BETAFLIGHTF3/startup_stm32f30x_md_gcc.o
EXTI1_IRQHandler                                  C:\cygwin64\tmp\ccTUqUH8.ltrans5.ltrans.o
                                                  obj/main/BETAFLIGHTF3/drivers/exti.o (symbol from plugin)
                                                  obj/main/BETAFLIGHTF3/startup_stm32f30x_md_gcc.o
EXTI2_TS_IRQHandler                               C:\cygwin64\tmp\ccTUqUH8.ltrans5.ltrans.o
                                                  obj/main/BETAFLIGHTF3/drivers/exti.o (symbol from plugin)
                                                  obj/main/BETAFLIGHTF3/startup_stm32f30x_md_gcc.o
EXTI3_IRQHandler                                  C:\cygwin64\tmp\ccTUqUH8.ltrans5.ltrans.o
                                                  obj/main/BETAFLIGHTF3/drivers/exti.o (symbol from plugin)
                                                  obj/main/BETAFLIGHTF3/startup_stm32f30x_md_gcc.o
EXTI4_IRQHandler                                  C:\cygwin64\tmp\ccTUqUH8.ltrans5.ltrans.o
                                                  obj/main/BETAFLIGHTF3/drivers/exti.o (symbol from plugin)
                                                  obj/main/BETAFLIGHTF3/startup_stm32f30x_md_gcc.o
EXTI9_5_IRQHandler                                C:\cygwin64\tmp\ccTUqUH8.ltrans5.ltrans.o
                                                  obj/main/BETAFLIGHTF3/drivers/exti.o (symbol from plugin)
                                                  obj/main/BETAFLIGHTF3/startup_stm32f30x_md_gcc.o
EXTIConfig                                        obj/main/BETAFLIGHTF3/drivers/exti.o (symbol from plugin)
                                                  obj/main/BETAFLIGHTF3/drivers/accgyro/accgyro_mpu.o (symbol from plugin)
EXTIEnable                                        obj/main/BETAFLIGHTF3/drivers/exti.o (symbol from plugin)
                                                  obj/main/BETAFLIGHTF3/drivers/accgyro/accgyro_mpu.o (symbol from plugin)
EXTIHandlerInit                                   obj/main/BETAFLIGHTF3/drivers/exti.o (symbol from plugin)
                                                  obj/main/BETAFLIGHTF3/drivers/accgyro/accgyro_mpu.o (symbol from plugin)
EXTIInit                                          C:\cygwin64\tmp\ccTUqUH8.ltrans5.ltrans.o
                                                  obj/main/BETAFLIGHTF3/drivers/exti.o (symbol from plugin)
                                                  C:\cygwin64\tmp\ccTUqUH8.ltrans4.ltrans.o
                                                  obj/main/BETAFLIGHTF3/fc/fc_init.o (symbol from plugin)
EXTIRelease                                       obj/main/BETAFLIGHTF3/drivers/exti.o (symbol from plugin)
EXTI_ClearFlag                                    obj/main/BETAFLIGHTF3/stm32f30x_exti.o (symbol from plugin)
EXTI_ClearITPendingBit                            obj/main/BETAFLIGHTF3/stm32f30x_exti.o (symbol from plugin)
                                                  obj/main/BETAFLIGHTF3/vcp/stm32_it.o (symbol from plugin)
                                                  obj/main/BETAFLIGHTF3/vcp/hw_config.o (symbol from plugin)
                                                  obj/main/BETAFLIGHTF3/drivers/exti.o (symbol from plugin)
EXTI_DeInit                                       obj/main/BETAFLIGHTF3/stm32f30x_exti.o (symbol from plugin)
EXTI_GenerateSWInterrupt                          obj/main/BETAFLIGHTF3/stm32f30x_exti.o (symbol from plugin)
EXTI_GetFlagStatus                                obj/main/BETAFLIGHTF3/stm32f30x_exti.o (symbol from plugin)
EXTI_GetITStatus                                  obj/main/BETAFLIGHTF3/stm32f30x_exti.o (symbol from plugin)
EXTI_IRQHandler                                   obj/main/BETAFLIGHTF3/drivers/exti.o (symbol from plugin)
EXTI_Init                                         obj/main/BETAFLIGHTF3/stm32f30x_exti.o (symbol from plugin)
                                                  obj/main/BETAFLIGHTF3/vcp/hw_config.o (symbol from plugin)
                                                  obj/main/BETAFLIGHTF3/drivers/exti.o (symbol from plugin)
EXTI_Init.part.0.constprop.210                    C:\cygwin64\tmp\ccTUqUH8.ltrans6.ltrans.o
                                                  C:\cygwin64\tmp\ccTUqUH8.ltrans5.ltrans.o
                                                  C:\cygwin64\tmp\ccTUqUH8.ltrans2.ltrans.o
EXTI_InitStructure                                obj/main/BETAFLIGHTF3/vcp/hw_config.o (symbol from plugin)
EXTI_StructInit                                   obj/main/BETAFLIGHTF3/stm32f30x_exti.o (symbol from plugin)
Enter_LowPowerMode                                obj/main/BETAFLIGHTF3/vcp/hw_config.o (symbol from plugin)
FLASH_ClearFlag                                   obj/main/BETAFLIGHTF3/stm32f30x_flash.o (symbol from plugin)
                                                  obj/main/BETAFLIGHTF3/config/config_streamer.o (symbol from plugin)
FLASH_EraseAllPages                               obj/main/BETAFLIGHTF3/stm32f30x_flash.o (symbol from plugin)
FLASH_ErasePage                                   obj/main/BETAFLIGHTF3/stm32f30x_flash.o (symbol from plugin)
                                                  obj/main/BETAFLIGHTF3/config/config_streamer.o (symbol from plugin)
FLASH_GetFlagStatus                               obj/main/BETAFLIGHTF3/stm32f30x_flash.o (symbol from plugin)
FLASH_GetStatus                                   C:\cygwin64\tmp\ccTUqUH8.ltrans2.ltrans.o
                                                  obj/main/BETAFLIGHTF3/stm32f30x_flash.o (symbol from plugin)
                                                  C:\cygwin64\tmp\ccTUqUH8.ltrans6.ltrans.o
FLASH_HalfCycleAccessCmd                          obj/main/BETAFLIGHTF3/stm32f30x_flash.o (symbol from plugin)
FLASH_IRQHandler                                  obj/main/BETAFLIGHTF3/startup_stm32f30x_md_gcc.o
FLASH_ITConfig                                    obj/main/BETAFLIGHTF3/stm32f30x_flash.o (symbol from plugin)
FLASH_Lock                                        obj/main/BETAFLIGHTF3/stm32f30x_flash.o (symbol from plugin)
                                                  obj/main/BETAFLIGHTF3/config/config_streamer.o (symbol from plugin)
FLASH_OB_BOOTConfig                               obj/main/BETAFLIGHTF3/stm32f30x_flash.o (symbol from plugin)
FLASH_OB_EnableWRP                                obj/main/BETAFLIGHTF3/stm32f30x_flash.o (symbol from plugin)
FLASH_OB_Erase                                    obj/main/BETAFLIGHTF3/stm32f30x_flash.o (symbol from plugin)
FLASH_OB_GetRDP                                   obj/main/BETAFLIGHTF3/stm32f30x_flash.o (symbol from plugin)
FLASH_OB_GetUser                                  obj/main/BETAFLIGHTF3/stm32f30x_flash.o (symbol from plugin)
FLASH_OB_GetWRP                                   obj/main/BETAFLIGHTF3/stm32f30x_flash.o (symbol from plugin)
FLASH_OB_Launch                                   obj/main/BETAFLIGHTF3/stm32f30x_flash.o (symbol from plugin)
FLASH_OB_Lock                                     obj/main/BETAFLIGHTF3/stm32f30x_flash.o (symbol from plugin)
FLASH_OB_RDPConfig                                obj/main/BETAFLIGHTF3/stm32f30x_flash.o (symbol from plugin)
FLASH_OB_SRAMParityConfig                         obj/main/BETAFLIGHTF3/stm32f30x_flash.o (symbol from plugin)
FLASH_OB_Unlock                                   obj/main/BETAFLIGHTF3/stm32f30x_flash.o (symbol from plugin)
FLASH_OB_UserConfig                               obj/main/BETAFLIGHTF3/stm32f30x_flash.o (symbol from plugin)
FLASH_OB_VDDAConfig                               obj/main/BETAFLIGHTF3/stm32f30x_flash.o (symbol from plugin)
FLASH_OB_WriteUser                                obj/main/BETAFLIGHTF3/stm32f30x_flash.o (symbol from plugin)
FLASH_PrefetchBufferCmd                           obj/main/BETAFLIGHTF3/stm32f30x_flash.o (symbol from plugin)
FLASH_ProgramHalfWord                             obj/main/BETAFLIGHTF3/stm32f30x_flash.o (symbol from plugin)
FLASH_ProgramOptionByteData                       obj/main/BETAFLIGHTF3/stm32f30x_flash.o (symbol from plugin)
FLASH_ProgramWord                                 obj/main/BETAFLIGHTF3/stm32f30x_flash.o (symbol from plugin)
                                                  obj/main/BETAFLIGHTF3/config/config_streamer.o (symbol from plugin)
FLASH_SetLatency                                  obj/main/BETAFLIGHTF3/stm32f30x_flash.o (symbol from plugin)
FLASH_Unlock                                      obj/main/BETAFLIGHTF3/stm32f30x_flash.o (symbol from plugin)
                                                  obj/main/BETAFLIGHTF3/config/config_streamer.o (symbol from plugin)
FLASH_WaitForLastOperation                        obj/main/BETAFLIGHTF3/stm32f30x_flash.o (symbol from plugin)
FLASH_WaitForLastOperation.constprop.167          C:\cygwin64\tmp\ccTUqUH8.ltrans6.ltrans.o
                                                  C:\cygwin64\tmp\ccTUqUH8.ltrans5.ltrans.o
FPU_IRQHandler                                    obj/main/BETAFLIGHTF3/startup_stm32f30x_md_gcc.o
FreeUserBuffer                                    obj/main/BETAFLIGHTF3/usb_regs.o (symbol from plugin)
GPIO_DeInit                                       obj/main/BETAFLIGHTF3/stm32f30x_gpio.o (symbol from plugin)
GPIO_Init                                         C:\cygwin64\tmp\ccTUqUH8.ltrans2.ltrans.o
                                                  obj/main/BETAFLIGHTF3/stm32f30x_gpio.o (symbol from plugin)
                                                  C:\cygwin64\tmp\ccTUqUH8.ltrans6.ltrans.o
                                                  C:\cygwin64\tmp\ccTUqUH8.ltrans5.ltrans.o
                                                  obj/main/BETAFLIGHTF3/vcp/hw_config.o (symbol from plugin)
                                                  obj/main/BETAFLIGHTF3/drivers/io.o (symbol from plugin)
                                                  obj/main/BETAFLIGHTF3/drivers/system_stm32f30x.o (symbol from plugin)
GPIO_PinAFConfig                                  obj/main/BETAFLIGHTF3/stm32f30x_gpio.o (symbol from plugin)
                                                  obj/main/BETAFLIGHTF3/vcp/hw_config.o (symbol from plugin)
                                                  obj/main/BETAFLIGHTF3/drivers/io.o (symbol from plugin)
GPIO_PinLockConfig                                obj/main/BETAFLIGHTF3/stm32f30x_gpio.o (symbol from plugin)
GPIO_ReadInputData                                obj/main/BETAFLIGHTF3/stm32f30x_gpio.o (symbol from plugin)
GPIO_ReadInputDataBit                             obj/main/BETAFLIGHTF3/stm32f30x_gpio.o (symbol from plugin)
GPIO_ReadOutputData                               obj/main/BETAFLIGHTF3/stm32f30x_gpio.o (symbol from plugin)
GPIO_ReadOutputDataBit                            obj/main/BETAFLIGHTF3/stm32f30x_gpio.o (symbol from plugin)
GPIO_ResetBits                                    obj/main/BETAFLIGHTF3/stm32f30x_gpio.o (symbol from plugin)
GPIO_SetBits                                      obj/main/BETAFLIGHTF3/stm32f30x_gpio.o (symbol from plugin)
GPIO_StructInit                                   obj/main/BETAFLIGHTF3/stm32f30x_gpio.o (symbol from plugin)
GPIO_Write                                        obj/main/BETAFLIGHTF3/stm32f30x_gpio.o (symbol from plugin)
GPIO_WriteBit                                     obj/main/BETAFLIGHTF3/stm32f30x_gpio.o (symbol from plugin)
GetBTABLE                                         obj/main/BETAFLIGHTF3/usb_regs.o (symbol from plugin)
GetCNTR                                           obj/main/BETAFLIGHTF3/usb_regs.o (symbol from plugin)
GetDADDR                                          obj/main/BETAFLIGHTF3/usb_regs.o (symbol from plugin)
GetENDPOINT                                       obj/main/BETAFLIGHTF3/usb_regs.o (symbol from plugin)
GetEPAddress                                      obj/main/BETAFLIGHTF3/usb_regs.o (symbol from plugin)
GetEPDblBuf0Addr                                  obj/main/BETAFLIGHTF3/usb_regs.o (symbol from plugin)
GetEPDblBuf0Count                                 obj/main/BETAFLIGHTF3/usb_regs.o (symbol from plugin)
GetEPDblBuf1Addr                                  obj/main/BETAFLIGHTF3/usb_regs.o (symbol from plugin)
GetEPDblBuf1Count                                 obj/main/BETAFLIGHTF3/usb_regs.o (symbol from plugin)
GetEPDblBufDir                                    obj/main/BETAFLIGHTF3/usb_regs.o (symbol from plugin)
GetEPRxAddr                                       obj/main/BETAFLIGHTF3/usb_regs.o (symbol from plugin)
                                                  obj/main/BETAFLIGHTF3/usb_sil.o (symbol from plugin)
                                                  obj/main/BETAFLIGHTF3/usb_core.o (symbol from plugin)
GetEPRxCount                                      obj/main/BETAFLIGHTF3/usb_regs.o (symbol from plugin)
                                                  obj/main/BETAFLIGHTF3/vcp/usb_endp.o (symbol from plugin)
                                                  obj/main/BETAFLIGHTF3/usb_sil.o (symbol from plugin)
GetEPRxStatus                                     obj/main/BETAFLIGHTF3/usb_regs.o (symbol from plugin)
GetEPTxAddr                                       obj/main/BETAFLIGHTF3/usb_regs.o (symbol from plugin)
                                                  obj/main/BETAFLIGHTF3/usb_sil.o (symbol from plugin)
                                                  obj/main/BETAFLIGHTF3/usb_core.o (symbol from plugin)
GetEPTxCount                                      obj/main/BETAFLIGHTF3/usb_regs.o (symbol from plugin)
GetEPTxStatus                                     obj/main/BETAFLIGHTF3/usb_regs.o (symbol from plugin)
GetEPType                                         obj/main/BETAFLIGHTF3/usb_regs.o (symbol from plugin)
GetFNR                                            obj/main/BETAFLIGHTF3/usb_regs.o (symbol from plugin)
GetISTR                                           obj/main/BETAFLIGHTF3/usb_regs.o (symbol from plugin)
GetRxStallStatus                                  obj/main/BETAFLIGHTF3/usb_regs.o (symbol from plugin)
GetTxStallStatus                                  obj/main/BETAFLIGHTF3/usb_regs.o (symbol from plugin)
Get_SerialNum                                     obj/main/BETAFLIGHTF3/vcp/hw_config.o (symbol from plugin)
                                                  obj/main/BETAFLIGHTF3/vcp/usb_prop.o (symbol from plugin)
HRTIM_ADCTriggerConfig                            obj/main/BETAFLIGHTF3/stm32f30x_hrtim.o (symbol from plugin)
HRTIM_BurstDMAConfig                              obj/main/BETAFLIGHTF3/stm32f30x_hrtim.o (symbol from plugin)
HRTIM_BurstModeConfig                             obj/main/BETAFLIGHTF3/stm32f30x_hrtim.o (symbol from plugin)
HRTIM_BurstModeCtl                                obj/main/BETAFLIGHTF3/stm32f30x_hrtim.o (symbol from plugin)
HRTIM_ChopperModeConfig                           obj/main/BETAFLIGHTF3/stm32f30x_hrtim.o (symbol from plugin)
HRTIM_ClearCommonFlag                             obj/main/BETAFLIGHTF3/stm32f30x_hrtim.o (symbol from plugin)
HRTIM_ClearCommonITPendingBit                     obj/main/BETAFLIGHTF3/stm32f30x_hrtim.o (symbol from plugin)
HRTIM_ClearFlag                                   obj/main/BETAFLIGHTF3/stm32f30x_hrtim.o (symbol from plugin)
HRTIM_ClearITPendingBit                           obj/main/BETAFLIGHTF3/stm32f30x_hrtim.o (symbol from plugin)
HRTIM_DLLCalibrationStart                         obj/main/BETAFLIGHTF3/stm32f30x_hrtim.o (symbol from plugin)
HRTIM_DMACmd                                      obj/main/BETAFLIGHTF3/stm32f30x_hrtim.o (symbol from plugin)
HRTIM_DeInit                                      obj/main/BETAFLIGHTF3/stm32f30x_hrtim.o (symbol from plugin)
HRTIM_DeadTimeConfig                              obj/main/BETAFLIGHTF3/stm32f30x_hrtim.o (symbol from plugin)
HRTIM_EventConfig                                 obj/main/BETAFLIGHTF3/stm32f30x_hrtim.o (symbol from plugin)
HRTIM_EventPrescalerConfig                        obj/main/BETAFLIGHTF3/stm32f30x_hrtim.o (symbol from plugin)
HRTIM_FaultConfig                                 obj/main/BETAFLIGHTF3/stm32f30x_hrtim.o (symbol from plugin)
HRTIM_FaultModeCtl                                obj/main/BETAFLIGHTF3/stm32f30x_hrtim.o (symbol from plugin)
HRTIM_FaultPrescalerConfig                        obj/main/BETAFLIGHTF3/stm32f30x_hrtim.o (symbol from plugin)
HRTIM_GetBurstStatus                              obj/main/BETAFLIGHTF3/stm32f30x_hrtim.o (symbol from plugin)
HRTIM_GetCapturedValue                            obj/main/BETAFLIGHTF3/stm32f30x_hrtim.o (symbol from plugin)
HRTIM_GetCommonFlagStatus                         obj/main/BETAFLIGHTF3/stm32f30x_hrtim.o (symbol from plugin)
HRTIM_GetCommonITStatus                           obj/main/BETAFLIGHTF3/stm32f30x_hrtim.o (symbol from plugin)
HRTIM_GetCurrentPushPullStatus                    obj/main/BETAFLIGHTF3/stm32f30x_hrtim.o (symbol from plugin)
HRTIM_GetDelayedProtectionStatus                  obj/main/BETAFLIGHTF3/stm32f30x_hrtim.o (symbol from plugin)
HRTIM_GetFlagStatus                               obj/main/BETAFLIGHTF3/stm32f30x_hrtim.o (symbol from plugin)
HRTIM_GetITStatus                                 obj/main/BETAFLIGHTF3/stm32f30x_hrtim.o (symbol from plugin)
HRTIM_GetIdlePushPullStatus                       obj/main/BETAFLIGHTF3/stm32f30x_hrtim.o (symbol from plugin)
HRTIM_ITCommonConfig                              obj/main/BETAFLIGHTF3/stm32f30x_hrtim.o (symbol from plugin)
HRTIM_ITConfig                                    obj/main/BETAFLIGHTF3/stm32f30x_hrtim.o (symbol from plugin)
HRTIM_MasterSetCompare                            obj/main/BETAFLIGHTF3/stm32f30x_hrtim.o (symbol from plugin)
HRTIM_SimpleBaseStart                             obj/main/BETAFLIGHTF3/stm32f30x_hrtim.o (symbol from plugin)
HRTIM_SimpleBaseStop                              obj/main/BETAFLIGHTF3/stm32f30x_hrtim.o (symbol from plugin)
HRTIM_SimpleBase_Init                             obj/main/BETAFLIGHTF3/stm32f30x_hrtim.o (symbol from plugin)
HRTIM_SimpleCaptureChannelConfig                  obj/main/BETAFLIGHTF3/stm32f30x_hrtim.o (symbol from plugin)
HRTIM_SimpleCaptureStart                          obj/main/BETAFLIGHTF3/stm32f30x_hrtim.o (symbol from plugin)
HRTIM_SimpleCaptureStop                           obj/main/BETAFLIGHTF3/stm32f30x_hrtim.o (symbol from plugin)
HRTIM_SimpleCapture_Init                          obj/main/BETAFLIGHTF3/stm32f30x_hrtim.o (symbol from plugin)
HRTIM_SimpleOCChannelConfig                       obj/main/BETAFLIGHTF3/stm32f30x_hrtim.o (symbol from plugin)
HRTIM_SimpleOCStart                               obj/main/BETAFLIGHTF3/stm32f30x_hrtim.o (symbol from plugin)
HRTIM_SimpleOCStop                                obj/main/BETAFLIGHTF3/stm32f30x_hrtim.o (symbol from plugin)
HRTIM_SimpleOC_Init                               obj/main/BETAFLIGHTF3/stm32f30x_hrtim.o (symbol from plugin)
HRTIM_SimpleOnePulseChannelConfig                 obj/main/BETAFLIGHTF3/stm32f30x_hrtim.o (symbol from plugin)
HRTIM_SimpleOnePulseStart                         obj/main/BETAFLIGHTF3/stm32f30x_hrtim.o (symbol from plugin)
HRTIM_SimpleOnePulseStop                          obj/main/BETAFLIGHTF3/stm32f30x_hrtim.o (symbol from plugin)
HRTIM_SimpleOnePulse_Init                         obj/main/BETAFLIGHTF3/stm32f30x_hrtim.o (symbol from plugin)
HRTIM_SimplePWMChannelConfig                      obj/main/BETAFLIGHTF3/stm32f30x_hrtim.o (symbol from plugin)
HRTIM_SimplePWMStart                              obj/main/BETAFLIGHTF3/stm32f30x_hrtim.o (symbol from plugin)
HRTIM_SimplePWMStop                               obj/main/BETAFLIGHTF3/stm32f30x_hrtim.o (symbol from plugin)
HRTIM_SimplePWM_Init                              obj/main/BETAFLIGHTF3/stm32f30x_hrtim.o (symbol from plugin)
HRTIM_SlaveSetCompare                             obj/main/BETAFLIGHTF3/stm32f30x_hrtim.o (symbol from plugin)
HRTIM_SoftwareCapture                             obj/main/BETAFLIGHTF3/stm32f30x_hrtim.o (symbol from plugin)
HRTIM_SoftwareReset                               obj/main/BETAFLIGHTF3/stm32f30x_hrtim.o (symbol from plugin)
HRTIM_SoftwareUpdate                              obj/main/BETAFLIGHTF3/stm32f30x_hrtim.o (symbol from plugin)
HRTIM_SynchronizationConfig                       obj/main/BETAFLIGHTF3/stm32f30x_hrtim.o (symbol from plugin)
HRTIM_TimerEventFilteringConfig                   obj/main/BETAFLIGHTF3/stm32f30x_hrtim.o (symbol from plugin)
HRTIM_WaveformCaptureConfig                       obj/main/BETAFLIGHTF3/stm32f30x_hrtim.o (symbol from plugin)
HRTIM_WaveformCompareConfig                       obj/main/BETAFLIGHTF3/stm32f30x_hrtim.o (symbol from plugin)
HRTIM_WaveformCounterStart                        obj/main/BETAFLIGHTF3/stm32f30x_hrtim.o (symbol from plugin)
HRTIM_WaveformCounterStop                         obj/main/BETAFLIGHTF3/stm32f30x_hrtim.o (symbol from plugin)
HRTIM_WaveformGetOutputLevel                      obj/main/BETAFLIGHTF3/stm32f30x_hrtim.o (symbol from plugin)
HRTIM_WaveformGetOutputState                      obj/main/BETAFLIGHTF3/stm32f30x_hrtim.o (symbol from plugin)
HRTIM_WaveformOutputConfig                        obj/main/BETAFLIGHTF3/stm32f30x_hrtim.o (symbol from plugin)
HRTIM_WaveformOutputStart                         obj/main/BETAFLIGHTF3/stm32f30x_hrtim.o (symbol from plugin)
HRTIM_WaveformOutputStop                          obj/main/BETAFLIGHTF3/stm32f30x_hrtim.o (symbol from plugin)
HRTIM_WaveformSetOutputLevel                      obj/main/BETAFLIGHTF3/stm32f30x_hrtim.o (symbol from plugin)
HRTIM_WaveformTimerConfig                         obj/main/BETAFLIGHTF3/stm32f30x_hrtim.o (symbol from plugin)
HRTIM_Waveform_Init                               obj/main/BETAFLIGHTF3/stm32f30x_hrtim.o (symbol from plugin)
HSEStartUpStatus                                  obj/main/BETAFLIGHTF3/vcp/hw_config.o (symbol from plugin)
HardFault_Handler                                 C:\cygwin64\tmp\ccTUqUH8.ltrans0.ltrans.o
                                                  obj/main/BETAFLIGHTF3/fc/fc_hardfaults.o (symbol from plugin)
                                                  obj/main/BETAFLIGHTF3/startup_stm32f30x_md_gcc.o
I2C1_ER_IRQHandler                                obj/main/BETAFLIGHTF3/startup_stm32f30x_md_gcc.o
I2C1_EV_IRQHandler                                obj/main/BETAFLIGHTF3/startup_stm32f30x_md_gcc.o
I2C2_ER_IRQHandler                                obj/main/BETAFLIGHTF3/startup_stm32f30x_md_gcc.o
I2C2_EV_IRQHandler                                obj/main/BETAFLIGHTF3/startup_stm32f30x_md_gcc.o
I2C_10BitAddressHeaderCmd                         obj/main/BETAFLIGHTF3/stm32f30x_i2c.o (symbol from plugin)
I2C_10BitAddressingModeCmd                        obj/main/BETAFLIGHTF3/stm32f30x_i2c.o (symbol from plugin)
I2C_AcknowledgeConfig                             obj/main/BETAFLIGHTF3/stm32f30x_i2c.o (symbol from plugin)
I2C_AutoEndCmd                                    obj/main/BETAFLIGHTF3/stm32f30x_i2c.o (symbol from plugin)
I2C_CalculatePEC                                  obj/main/BETAFLIGHTF3/stm32f30x_i2c.o (symbol from plugin)
I2C_ClearFlag                                     obj/main/BETAFLIGHTF3/stm32f30x_i2c.o (symbol from plugin)
I2C_ClearITPendingBit                             obj/main/BETAFLIGHTF3/stm32f30x_i2c.o (symbol from plugin)
I2C_ClockTimeoutCmd                               obj/main/BETAFLIGHTF3/stm32f30x_i2c.o (symbol from plugin)
I2C_Cmd                                           obj/main/BETAFLIGHTF3/stm32f30x_i2c.o (symbol from plugin)
I2C_DMACmd                                        obj/main/BETAFLIGHTF3/stm32f30x_i2c.o (symbol from plugin)
I2C_DeInit                                        obj/main/BETAFLIGHTF3/stm32f30x_i2c.o (symbol from plugin)
I2C_DualAddressCmd                                obj/main/BETAFLIGHTF3/stm32f30x_i2c.o (symbol from plugin)
I2C_ExtendedClockTimeoutCmd                       obj/main/BETAFLIGHTF3/stm32f30x_i2c.o (symbol from plugin)
I2C_GeneralCallCmd                                obj/main/BETAFLIGHTF3/stm32f30x_i2c.o (symbol from plugin)
I2C_GenerateSTART                                 obj/main/BETAFLIGHTF3/stm32f30x_i2c.o (symbol from plugin)
I2C_GenerateSTOP                                  obj/main/BETAFLIGHTF3/stm32f30x_i2c.o (symbol from plugin)
I2C_GetAddressMatched                             obj/main/BETAFLIGHTF3/stm32f30x_i2c.o (symbol from plugin)
I2C_GetFlagStatus                                 obj/main/BETAFLIGHTF3/stm32f30x_i2c.o (symbol from plugin)
I2C_GetITStatus                                   obj/main/BETAFLIGHTF3/stm32f30x_i2c.o (symbol from plugin)
I2C_GetPEC                                        obj/main/BETAFLIGHTF3/stm32f30x_i2c.o (symbol from plugin)
I2C_GetTransferDirection                          obj/main/BETAFLIGHTF3/stm32f30x_i2c.o (symbol from plugin)
I2C_ITConfig                                      obj/main/BETAFLIGHTF3/stm32f30x_i2c.o (symbol from plugin)
I2C_IdleClockTimeoutCmd                           obj/main/BETAFLIGHTF3/stm32f30x_i2c.o (symbol from plugin)
I2C_Init                                          obj/main/BETAFLIGHTF3/stm32f30x_i2c.o (symbol from plugin)
I2C_MasterRequestConfig                           obj/main/BETAFLIGHTF3/stm32f30x_i2c.o (symbol from plugin)
I2C_NumberOfBytesConfig                           obj/main/BETAFLIGHTF3/stm32f30x_i2c.o (symbol from plugin)
I2C_OwnAddress2Config                             obj/main/BETAFLIGHTF3/stm32f30x_i2c.o (symbol from plugin)
I2C_PECRequestCmd                                 obj/main/BETAFLIGHTF3/stm32f30x_i2c.o (symbol from plugin)
I2C_ReadRegister                                  obj/main/BETAFLIGHTF3/stm32f30x_i2c.o (symbol from plugin)
I2C_ReceiveData                                   obj/main/BETAFLIGHTF3/stm32f30x_i2c.o (symbol from plugin)
I2C_ReloadCmd                                     obj/main/BETAFLIGHTF3/stm32f30x_i2c.o (symbol from plugin)
I2C_SMBusAlertCmd                                 obj/main/BETAFLIGHTF3/stm32f30x_i2c.o (symbol from plugin)
I2C_SendData                                      obj/main/BETAFLIGHTF3/stm32f30x_i2c.o (symbol from plugin)
I2C_SlaveAddressConfig                            obj/main/BETAFLIGHTF3/stm32f30x_i2c.o (symbol from plugin)
I2C_SlaveByteControlCmd                           obj/main/BETAFLIGHTF3/stm32f30x_i2c.o (symbol from plugin)
I2C_SoftwareResetCmd                              obj/main/BETAFLIGHTF3/stm32f30x_i2c.o (symbol from plugin)
I2C_StopModeCmd                                   obj/main/BETAFLIGHTF3/stm32f30x_i2c.o (symbol from plugin)
I2C_StretchClockCmd                               obj/main/BETAFLIGHTF3/stm32f30x_i2c.o (symbol from plugin)
I2C_StructInit                                    obj/main/BETAFLIGHTF3/stm32f30x_i2c.o (symbol from plugin)
I2C_TimeoutAConfig                                obj/main/BETAFLIGHTF3/stm32f30x_i2c.o (symbol from plugin)
I2C_TimeoutBConfig                                obj/main/BETAFLIGHTF3/stm32f30x_i2c.o (symbol from plugin)
I2C_TransferHandling                              obj/main/BETAFLIGHTF3/stm32f30x_i2c.o (symbol from plugin)
I2S_Cmd                                           obj/main/BETAFLIGHTF3/stm32f30x_spi.o (symbol from plugin)
I2S_FullDuplexConfig                              obj/main/BETAFLIGHTF3/stm32f30x_spi.o (symbol from plugin)
I2S_Init                                          obj/main/BETAFLIGHTF3/stm32f30x_spi.o (symbol from plugin)
I2S_StructInit                                    obj/main/BETAFLIGHTF3/stm32f30x_spi.o (symbol from plugin)
IOConfigGPIO                                      C:\cygwin64\tmp\ccTUqUH8.ltrans5.ltrans.o
                                                  obj/main/BETAFLIGHTF3/drivers/io.o (symbol from plugin)
                                                  C:\cygwin64\tmp\ccTUqUH8.ltrans6.ltrans.o
                                                  C:\cygwin64\tmp\ccTUqUH8.ltrans4.ltrans.o
                                                  C:\cygwin64\tmp\ccTUqUH8.ltrans2.ltrans.o
                                                  C:\cygwin64\tmp\ccTUqUH8.ltrans1.ltrans.o
                                                  obj/main/BETAFLIGHTF3/drivers/usb_io.o (symbol from plugin)
                                                  obj/main/BETAFLIGHTF3/drivers/sdcard.o (symbol from plugin)
                                                  obj/main/BETAFLIGHTF3/drivers/serial_escserial.o (symbol from plugin)
                                                  obj/main/BETAFLIGHTF3/rx/spektrum.o (symbol from plugin)
                                                  obj/main/BETAFLIGHTF3/io/serial_4way.o (symbol from plugin)
                                                  obj/main/BETAFLIGHTF3/drivers/serial_softserial.o (symbol from plugin)
                                                  obj/main/BETAFLIGHTF3/drivers/pwm_output.o (symbol from plugin)
                                                  obj/main/BETAFLIGHTF3/drivers/camera_control.o (symbol from plugin)
                                                  obj/main/BETAFLIGHTF3/drivers/timer.o (symbol from plugin)
                                                  obj/main/BETAFLIGHTF3/drivers/sound_beeper.o (symbol from plugin)
                                                  obj/main/BETAFLIGHTF3/drivers/light_led.o (symbol from plugin)
                                                  obj/main/BETAFLIGHTF3/drivers/bus_spi_config.o (symbol from plugin)
                                                  obj/main/BETAFLIGHTF3/drivers/max7456.o (symbol from plugin)
                                                  obj/main/BETAFLIGHTF3/drivers/accgyro/accgyro_spi_mpu6000.o (symbol from plugin)
                                                  obj/main/BETAFLIGHTF3/drivers/accgyro/accgyro_mpu.o (symbol from plugin)
                                                  obj/main/BETAFLIGHTF3/drivers/adc_stm32f30x.o (symbol from plugin)
IOConfigGPIO.constprop.246                        C:\cygwin64\tmp\ccTUqUH8.ltrans6.ltrans.o
                                                  C:\cygwin64\tmp\ccTUqUH8.ltrans4.ltrans.o
                                                  C:\cygwin64\tmp\ccTUqUH8.ltrans1.ltrans.o
IOConfigGPIO.part.0                               C:\cygwin64\tmp\ccTUqUH8.ltrans5.ltrans.o
                                                  C:\cygwin64\tmp\ccTUqUH8.ltrans6.ltrans.o
                                                  C:\cygwin64\tmp\ccTUqUH8.ltrans4.ltrans.o
                                                  C:\cygwin64\tmp\ccTUqUH8.ltrans1.ltrans.o
IOConfigGPIOAF                                    C:\cygwin64\tmp\ccTUqUH8.ltrans5.ltrans.o
                                                  obj/main/BETAFLIGHTF3/drivers/io.o (symbol from plugin)
                                                  C:\cygwin64\tmp\ccTUqUH8.ltrans6.ltrans.o
                                                  C:\cygwin64\tmp\ccTUqUH8.ltrans4.ltrans.o
                                                  obj/main/BETAFLIGHTF3/drivers/serial_softserial.o (symbol from plugin)
                                                  obj/main/BETAFLIGHTF3/drivers/rx/rx_pwm.o (symbol from plugin)
                                                  obj/main/BETAFLIGHTF3/drivers/camera_control.o (symbol from plugin)
                                                  obj/main/BETAFLIGHTF3/drivers/timer.o (symbol from plugin)
                                                  obj/main/BETAFLIGHTF3/drivers/serial_uart_stm32f30x.o (symbol from plugin)
                                                  obj/main/BETAFLIGHTF3/drivers/pwm_output_dshot.o (symbol from plugin)
                                                  obj/main/BETAFLIGHTF3/drivers/light_ws2811strip_stdperiph.o (symbol from plugin)
                                                  obj/main/BETAFLIGHTF3/drivers/bus_spi_stdperiph.o (symbol from plugin)
IOConfigGPIOAF.part.1                             C:\cygwin64\tmp\ccTUqUH8.ltrans5.ltrans.o
                                                  C:\cygwin64\tmp\ccTUqUH8.ltrans6.ltrans.o
                                                  C:\cygwin64\tmp\ccTUqUH8.ltrans4.ltrans.o
IOGetByTag                                        C:\cygwin64\tmp\ccTUqUH8.ltrans5.ltrans.o
                                                  obj/main/BETAFLIGHTF3/drivers/io.o (symbol from plugin)
                                                  C:\cygwin64\tmp\ccTUqUH8.ltrans6.ltrans.o
                                                  C:\cygwin64\tmp\ccTUqUH8.ltrans4.ltrans.o
                                                  C:\cygwin64\tmp\ccTUqUH8.ltrans3.ltrans.o
                                                  C:\cygwin64\tmp\ccTUqUH8.ltrans2.ltrans.o
                                                  C:\cygwin64\tmp\ccTUqUH8.ltrans1.ltrans.o
                                                  obj/main/BETAFLIGHTF3/drivers/usb_io.o (symbol from plugin)
                                                  obj/main/BETAFLIGHTF3/drivers/sdcard.o (symbol from plugin)
                                                  obj/main/BETAFLIGHTF3/drivers/serial_escserial.o (symbol from plugin)
                                                  obj/main/BETAFLIGHTF3/rx/spektrum.o (symbol from plugin)
                                                  obj/main/BETAFLIGHTF3/interface/cli.o (symbol from plugin)
                                                  obj/main/BETAFLIGHTF3/drivers/serial_softserial.o (symbol from plugin)
                                                  obj/main/BETAFLIGHTF3/drivers/rx/rx_pwm.o (symbol from plugin)
                                                  obj/main/BETAFLIGHTF3/drivers/pwm_output.o (symbol from plugin)
                                                  obj/main/BETAFLIGHTF3/drivers/camera_control.o (symbol from plugin)
                                                  obj/main/BETAFLIGHTF3/drivers/timer.o (symbol from plugin)
                                                  obj/main/BETAFLIGHTF3/drivers/sound_beeper.o (symbol from plugin)
                                                  obj/main/BETAFLIGHTF3/drivers/light_led.o (symbol from plugin)
                                                  obj/main/BETAFLIGHTF3/drivers/bus_spi_config.o (symbol from plugin)
                                                  obj/main/BETAFLIGHTF3/drivers/max7456.o (symbol from plugin)
                                                  obj/main/BETAFLIGHTF3/drivers/accgyro/accgyro_mpu.o (symbol from plugin)
                                                  obj/main/BETAFLIGHTF3/drivers/serial_uart_stm32f30x.o (symbol from plugin)
                                                  obj/main/BETAFLIGHTF3/drivers/pwm_output_dshot.o (symbol from plugin)
                                                  obj/main/BETAFLIGHTF3/drivers/light_ws2811strip_stdperiph.o (symbol from plugin)
                                                  obj/main/BETAFLIGHTF3/drivers/bus_spi_stdperiph.o (symbol from plugin)
                                                  obj/main/BETAFLIGHTF3/drivers/adc_stm32f30x.o (symbol from plugin)
IOGetOwner                                        obj/main/BETAFLIGHTF3/drivers/io.o (symbol from plugin)
IOHi                                              C:\cygwin64\tmp\ccTUqUH8.ltrans5.ltrans.o
                                                  obj/main/BETAFLIGHTF3/drivers/io.o (symbol from plugin)
                                                  C:\cygwin64\tmp\ccTUqUH8.ltrans6.ltrans.o
                                                  C:\cygwin64\tmp\ccTUqUH8.ltrans4.ltrans.o
                                                  C:\cygwin64\tmp\ccTUqUH8.ltrans2.ltrans.o
                                                  C:\cygwin64\tmp\ccTUqUH8.ltrans1.ltrans.o
                                                  obj/main/BETAFLIGHTF3/drivers/usb_io.o (symbol from plugin)
                                                  obj/main/BETAFLIGHTF3/drivers/sdcard.o (symbol from plugin)
                                                  obj/main/BETAFLIGHTF3/drivers/serial_escserial.o (symbol from plugin)
                                                  obj/main/BETAFLIGHTF3/io/serial_4way.o (symbol from plugin)
                                                  obj/main/BETAFLIGHTF3/drivers/serial_softserial.o (symbol from plugin)
                                                  obj/main/BETAFLIGHTF3/drivers/camera_control.o (symbol from plugin)
                                                  obj/main/BETAFLIGHTF3/drivers/bus_spi_config.o (symbol from plugin)
                                                  obj/main/BETAFLIGHTF3/drivers/bus_spi.o (symbol from plugin)
                                                  obj/main/BETAFLIGHTF3/drivers/max7456.o (symbol from plugin)
                                                  obj/main/BETAFLIGHTF3/drivers/accgyro/accgyro_spi_mpu6000.o (symbol from plugin)
IOInit                                            obj/main/BETAFLIGHTF3/drivers/io.o (symbol from plugin)
                                                  obj/main/BETAFLIGHTF3/drivers/sdcard.o (symbol from plugin)
                                                  obj/main/BETAFLIGHTF3/drivers/serial_escserial.o (symbol from plugin)
                                                  obj/main/BETAFLIGHTF3/rx/spektrum.o (symbol from plugin)
                                                  obj/main/BETAFLIGHTF3/drivers/serial_softserial.o (symbol from plugin)
                                                  obj/main/BETAFLIGHTF3/drivers/rx/rx_pwm.o (symbol from plugin)
                                                  obj/main/BETAFLIGHTF3/drivers/pwm_output.o (symbol from plugin)
                                                  obj/main/BETAFLIGHTF3/drivers/camera_control.o (symbol from plugin)
                                                  obj/main/BETAFLIGHTF3/drivers/timer.o (symbol from plugin)
                                                  obj/main/BETAFLIGHTF3/drivers/sound_beeper.o (symbol from plugin)
                                                  obj/main/BETAFLIGHTF3/drivers/light_led.o (symbol from plugin)
                                                  obj/main/BETAFLIGHTF3/drivers/bus_spi_config.o (symbol from plugin)
                                                  obj/main/BETAFLIGHTF3/drivers/max7456.o (symbol from plugin)
                                                  obj/main/BETAFLIGHTF3/drivers/accgyro/accgyro_spi_mpu6000.o (symbol from plugin)
                                                  obj/main/BETAFLIGHTF3/drivers/accgyro/accgyro_mpu.o (symbol from plugin)
                                                  obj/main/BETAFLIGHTF3/drivers/serial_uart_stm32f30x.o (symbol from plugin)
                                                  obj/main/BETAFLIGHTF3/drivers/light_ws2811strip_stdperiph.o (symbol from plugin)
                                                  obj/main/BETAFLIGHTF3/drivers/bus_spi_stdperiph.o (symbol from plugin)
                                                  obj/main/BETAFLIGHTF3/drivers/adc_stm32f30x.o (symbol from plugin)
IOInitGlobal                                      C:\cygwin64\tmp\ccTUqUH8.ltrans5.ltrans.o
                                                  obj/main/BETAFLIGHTF3/drivers/io.o (symbol from plugin)
                                                  C:\cygwin64\tmp\ccTUqUH8.ltrans4.ltrans.o
                                                  obj/main/BETAFLIGHTF3/fc/fc_init.o (symbol from plugin)
IOLo                                              C:\cygwin64\tmp\ccTUqUH8.ltrans5.ltrans.o
                                                  obj/main/BETAFLIGHTF3/drivers/io.o (symbol from plugin)
                                                  C:\cygwin64\tmp\ccTUqUH8.ltrans6.ltrans.o
                                                  C:\cygwin64\tmp\ccTUqUH8.ltrans4.ltrans.o
                                                  C:\cygwin64\tmp\ccTUqUH8.ltrans2.ltrans.o
                                                  C:\cygwin64\tmp\ccTUqUH8.ltrans1.ltrans.o
                                                  obj/main/BETAFLIGHTF3/drivers/usb_io.o (symbol from plugin)
                                                  obj/main/BETAFLIGHTF3/drivers/sdcard.o (symbol from plugin)
                                                  obj/main/BETAFLIGHTF3/drivers/serial_escserial.o (symbol from plugin)
                                                  obj/main/BETAFLIGHTF3/io/serial_4way.o (symbol from plugin)
                                                  obj/main/BETAFLIGHTF3/drivers/serial_softserial.o (symbol from plugin)
                                                  obj/main/BETAFLIGHTF3/drivers/camera_control.o (symbol from plugin)
                                                  obj/main/BETAFLIGHTF3/drivers/bus_spi.o (symbol from plugin)
                                                  obj/main/BETAFLIGHTF3/drivers/max7456.o (symbol from plugin)
                                                  obj/main/BETAFLIGHTF3/drivers/serial_uart_stm32f30x.o (symbol from plugin)
IORead                                            C:\cygwin64\tmp\ccTUqUH8.ltrans5.ltrans.o
                                                  obj/main/BETAFLIGHTF3/drivers/io.o (symbol from plugin)
                                                  C:\cygwin64\tmp\ccTUqUH8.ltrans6.ltrans.o
                                                  C:\cygwin64\tmp\ccTUqUH8.ltrans2.ltrans.o
                                                  C:\cygwin64\tmp\ccTUqUH8.ltrans1.ltrans.o
                                                  obj/main/BETAFLIGHTF3/drivers/sdcard.o (symbol from plugin)
                                                  obj/main/BETAFLIGHTF3/rx/spektrum.o (symbol from plugin)
                                                  obj/main/BETAFLIGHTF3/io/serial_4way.o (symbol from plugin)
IORelease                                         obj/main/BETAFLIGHTF3/drivers/io.o (symbol from plugin)
IOToggle                                          obj/main/BETAFLIGHTF3/drivers/io.o (symbol from plugin)
                                                  obj/main/BETAFLIGHTF3/drivers/sound_beeper.o (symbol from plugin)
                                                  obj/main/BETAFLIGHTF3/drivers/light_led.o (symbol from plugin)
IOWrite                                           C:\cygwin64\tmp\ccTUqUH8.ltrans5.ltrans.o
                                                  obj/main/BETAFLIGHTF3/drivers/io.o (symbol from plugin)
                                                  C:\cygwin64\tmp\ccTUqUH8.ltrans6.ltrans.o
                                                  C:\cygwin64\tmp\ccTUqUH8.ltrans4.ltrans.o
                                                  C:\cygwin64\tmp\ccTUqUH8.ltrans3.ltrans.o
                                                  C:\cygwin64\tmp\ccTUqUH8.ltrans0.ltrans.o
                                                  obj/main/BETAFLIGHTF3/rx/spektrum.o (symbol from plugin)
                                                  obj/main/BETAFLIGHTF3/drivers/sound_beeper.o (symbol from plugin)
                                                  obj/main/BETAFLIGHTF3/drivers/light_led.o (symbol from plugin)
IO_EXTI_Line                                      obj/main/BETAFLIGHTF3/drivers/io.o (symbol from plugin)
                                                  obj/main/BETAFLIGHTF3/drivers/exti.o (symbol from plugin)
IO_EXTI_PinSource                                 obj/main/BETAFLIGHTF3/drivers/io.o (symbol from plugin)
                                                  obj/main/BETAFLIGHTF3/drivers/exti.o (symbol from plugin)
IO_EXTI_PortSourceGPIO                            obj/main/BETAFLIGHTF3/drivers/io.o (symbol from plugin)
                                                  obj/main/BETAFLIGHTF3/drivers/exti.o (symbol from plugin)
IO_GPIO                                           obj/main/BETAFLIGHTF3/drivers/io.o (symbol from plugin)
IO_GPIOPinIdx                                     obj/main/BETAFLIGHTF3/drivers/io.o (symbol from plugin)
                                                  obj/main/BETAFLIGHTF3/interface/cli.o (symbol from plugin)
                                                  obj/main/BETAFLIGHTF3/drivers/exti.o (symbol from plugin)
IO_GPIOPortIdx                                    obj/main/BETAFLIGHTF3/drivers/io.o (symbol from plugin)
                                                  obj/main/BETAFLIGHTF3/interface/cli.o (symbol from plugin)
IO_GPIO_PinSource                                 obj/main/BETAFLIGHTF3/drivers/io.o (symbol from plugin)
IO_GPIO_PortSource                                obj/main/BETAFLIGHTF3/drivers/io.o (symbol from plugin)
IO_Pin                                            obj/main/BETAFLIGHTF3/drivers/io.o (symbol from plugin)
IO_Rec                                            obj/main/BETAFLIGHTF3/drivers/io.o (symbol from plugin)
                                                  obj/main/BETAFLIGHTF3/interface/cli.o (symbol from plugin)
IS_RC_MODE_ACTIVE                                 C:\cygwin64\tmp\ccTUqUH8.ltrans3.ltrans.o
                                                  obj/main/BETAFLIGHTF3/fc/rc_modes.o (symbol from plugin)
                                                  C:\cygwin64\tmp\ccTUqUH8.ltrans5.ltrans.o
                                                  C:\cygwin64\tmp\ccTUqUH8.ltrans4.ltrans.o
                                                  C:\cygwin64\tmp\ccTUqUH8.ltrans2.ltrans.o
                                                  C:\cygwin64\tmp\ccTUqUH8.ltrans1.ltrans.o
                                                  C:\cygwin64\tmp\ccTUqUH8.ltrans0.ltrans.o
                                                  obj/main/BETAFLIGHTF3/io/vtx.o (symbol from plugin)
                                                  obj/main/BETAFLIGHTF3/telemetry/telemetry.o (symbol from plugin)
                                                  obj/main/BETAFLIGHTF3/io/ledstrip.o (symbol from plugin)
                                                  obj/main/BETAFLIGHTF3/io/rcdevice_cam.o (symbol from plugin)
                                                  obj/main/BETAFLIGHTF3/blackbox/blackbox.o (symbol from plugin)
                                                  obj/main/BETAFLIGHTF3/rx/rx.o (symbol from plugin)
                                                  obj/main/BETAFLIGHTF3/flight/servos.o (symbol from plugin)
                                                  obj/main/BETAFLIGHTF3/flight/failsafe.o (symbol from plugin)
                                                  obj/main/BETAFLIGHTF3/fc/rc_controls.o (symbol from plugin)
                                                  obj/main/BETAFLIGHTF3/fc/fc_rc.o (symbol from plugin)
                                                  obj/main/BETAFLIGHTF3/fc/fc_core.o (symbol from plugin)
                                                  obj/main/BETAFLIGHTF3/io/beeper.o (symbol from plugin)
                                                  obj/main/BETAFLIGHTF3/interface/msp_box.o (symbol from plugin)
                                                  obj/main/BETAFLIGHTF3/io/osd.o (symbol from plugin)
IWDG_Enable                                       obj/main/BETAFLIGHTF3/stm32f30x_iwdg.o (symbol from plugin)
IWDG_GetFlagStatus                                obj/main/BETAFLIGHTF3/stm32f30x_iwdg.o (symbol from plugin)
IWDG_ReloadCounter                                obj/main/BETAFLIGHTF3/stm32f30x_iwdg.o (symbol from plugin)
IWDG_SetPrescaler                                 obj/main/BETAFLIGHTF3/stm32f30x_iwdg.o (symbol from plugin)
IWDG_SetReload                                    obj/main/BETAFLIGHTF3/stm32f30x_iwdg.o (symbol from plugin)
IWDG_SetWindowValue                               obj/main/BETAFLIGHTF3/stm32f30x_iwdg.o (symbol from plugin)
IWDG_WriteAccessCmd                               obj/main/BETAFLIGHTF3/stm32f30x_iwdg.o (symbol from plugin)
In0_Process                                       obj/main/BETAFLIGHTF3/usb_core.o (symbol from plugin)
                                                  obj/main/BETAFLIGHTF3/usb_int.o (symbol from plugin)
InflightcalibratingA                              obj/main/BETAFLIGHTF3/fc/fc_core.o (symbol from plugin)
                                                  obj/main/BETAFLIGHTF3/sensors/acceleration.o (symbol from plugin)
Leave_LowPowerMode                                obj/main/BETAFLIGHTF3/vcp/hw_config.o (symbol from plugin)
                                                  obj/main/BETAFLIGHTF3/vcp/usb_pwr.o (symbol from plugin)
MemManage_Handler                                 C:\cygwin64\tmp\ccTUqUH8.ltrans6.ltrans.o
                                                  obj/main/BETAFLIGHTF3/vcp/stm32_it.o (symbol from plugin)
                                                  obj/main/BETAFLIGHTF3/startup_stm32f30x_md_gcc.o
NMI_Handler                                       C:\cygwin64\tmp\ccTUqUH8.ltrans6.ltrans.o
                                                  obj/main/BETAFLIGHTF3/vcp/stm32_it.o (symbol from plugin)
                                                  obj/main/BETAFLIGHTF3/startup_stm32f30x_md_gcc.o
NOP_Process                                       C:\cygwin64\tmp\ccTUqUH8.ltrans2.ltrans.o
                                                  obj/main/BETAFLIGHTF3/usb_core.o (symbol from plugin)
                                                  C:\cygwin64\tmp\ccTUqUH8.ltrans6.ltrans.o
                                                  C:\cygwin64\tmp\ccTUqUH8.ltrans4.ltrans.o
                                                  obj/main/BETAFLIGHTF3/vcp/usb_prop.o (symbol from plugin)
                                                  obj/main/BETAFLIGHTF3/vcp/usb_istr.o (symbol from plugin)
NRF24L01_WritePayload                             obj/main/BETAFLIGHTF3/drivers/rx/rx_xn297.o (symbol from plugin)
NVIC_Init                                         C:\cygwin64\tmp\ccTUqUH8.ltrans2.ltrans.o
                                                  obj/main/BETAFLIGHTF3/stm32f30x_misc.o (symbol from plugin)
                                                  C:\cygwin64\tmp\ccTUqUH8.ltrans6.ltrans.o
                                                  C:\cygwin64\tmp\ccTUqUH8.ltrans4.ltrans.o
                                                  obj/main/BETAFLIGHTF3/vcp/hw_config.o (symbol from plugin)
                                                  obj/main/BETAFLIGHTF3/drivers/camera_control.o (symbol from plugin)
                                                  obj/main/BETAFLIGHTF3/drivers/timer.o (symbol from plugin)
                                                  obj/main/BETAFLIGHTF3/drivers/exti.o (symbol from plugin)
                                                  obj/main/BETAFLIGHTF3/drivers/serial_uart_stm32f30x.o (symbol from plugin)
                                                  obj/main/BETAFLIGHTF3/drivers/dma.o (symbol from plugin)
NVIC_Init.part.0                                  C:\cygwin64\tmp\ccTUqUH8.ltrans2.ltrans.o
                                                  C:\cygwin64\tmp\ccTUqUH8.ltrans6.ltrans.o
                                                  C:\cygwin64\tmp\ccTUqUH8.ltrans5.ltrans.o
                                                  C:\cygwin64\tmp\ccTUqUH8.ltrans0.ltrans.o
NVIC_PriorityGroupConfig                          obj/main/BETAFLIGHTF3/stm32f30x_misc.o (symbol from plugin)
                                                  obj/main/BETAFLIGHTF3/vcp/hw_config.o (symbol from plugin)
                                                  obj/main/BETAFLIGHTF3/drivers/system_stm32f30x.o (symbol from plugin)
NVIC_SetVectorTable                               obj/main/BETAFLIGHTF3/stm32f30x_misc.o (symbol from plugin)
NVIC_SystemLPConfig                               obj/main/BETAFLIGHTF3/stm32f30x_misc.o (symbol from plugin)
OPAMP_Cmd                                         obj/main/BETAFLIGHTF3/stm32f30x_opamp.o (symbol from plugin)
OPAMP_DeInit                                      obj/main/BETAFLIGHTF3/stm32f30x_opamp.o (symbol from plugin)
OPAMP_GetOutputLevel                              obj/main/BETAFLIGHTF3/stm32f30x_opamp.o (symbol from plugin)
OPAMP_Init                                        obj/main/BETAFLIGHTF3/stm32f30x_opamp.o (symbol from plugin)
OPAMP_LockConfig                                  obj/main/BETAFLIGHTF3/stm32f30x_opamp.o (symbol from plugin)
OPAMP_OffsetTrimConfig                            obj/main/BETAFLIGHTF3/stm32f30x_opamp.o (symbol from plugin)
OPAMP_OffsetTrimModeSelect                        obj/main/BETAFLIGHTF3/stm32f30x_opamp.o (symbol from plugin)
OPAMP_PGAConfig                                   obj/main/BETAFLIGHTF3/stm32f30x_opamp.o (symbol from plugin)
OPAMP_StartCalibration                            obj/main/BETAFLIGHTF3/stm32f30x_opamp.o (symbol from plugin)
OPAMP_StructInit                                  obj/main/BETAFLIGHTF3/stm32f30x_opamp.o (symbol from plugin)
OPAMP_TimerControlledMuxCmd                       obj/main/BETAFLIGHTF3/stm32f30x_opamp.o (symbol from plugin)
OPAMP_TimerControlledMuxConfig                    obj/main/BETAFLIGHTF3/stm32f30x_opamp.o (symbol from plugin)
OPAMP_VrefConfig                                  obj/main/BETAFLIGHTF3/stm32f30x_opamp.o (symbol from plugin)
OPAMP_VrefConnectADCCmd                           obj/main/BETAFLIGHTF3/stm32f30x_opamp.o (symbol from plugin)
OPAMP_VrefConnectNonInvertingInput                obj/main/BETAFLIGHTF3/stm32f30x_opamp.o (symbol from plugin)
Out0_Process                                      obj/main/BETAFLIGHTF3/usb_core.o (symbol from plugin)
                                                  obj/main/BETAFLIGHTF3/usb_int.o (symbol from plugin)
PMAToUserBufferCopy                               obj/main/BETAFLIGHTF3/usb_mem.o (symbol from plugin)
                                                  obj/main/BETAFLIGHTF3/vcp/usb_endp.o (symbol from plugin)
                                                  obj/main/BETAFLIGHTF3/usb_sil.o (symbol from plugin)
                                                  obj/main/BETAFLIGHTF3/usb_core.o (symbol from plugin)
PVD_IRQHandler                                    obj/main/BETAFLIGHTF3/startup_stm32f30x_md_gcc.o
PWR_BackupAccessCmd                               obj/main/BETAFLIGHTF3/stm32f30x_pwr.o (symbol from plugin)
PWR_ClearFlag                                     obj/main/BETAFLIGHTF3/stm32f30x_pwr.o (symbol from plugin)
PWR_DeInit                                        obj/main/BETAFLIGHTF3/stm32f30x_pwr.o (symbol from plugin)
PWR_EnterSTANDBYMode                              obj/main/BETAFLIGHTF3/stm32f30x_pwr.o (symbol from plugin)
PWR_EnterSTOPMode                                 obj/main/BETAFLIGHTF3/stm32f30x_pwr.o (symbol from plugin)
PWR_EnterSleepMode                                obj/main/BETAFLIGHTF3/stm32f30x_pwr.o (symbol from plugin)
PWR_GetFlagStatus                                 obj/main/BETAFLIGHTF3/stm32f30x_pwr.o (symbol from plugin)
PWR_PVDCmd                                        obj/main/BETAFLIGHTF3/stm32f30x_pwr.o (symbol from plugin)
PWR_PVDLevelConfig                                obj/main/BETAFLIGHTF3/stm32f30x_pwr.o (symbol from plugin)
PWR_WakeUpPinCmd                                  obj/main/BETAFLIGHTF3/stm32f30x_pwr.o (symbol from plugin)
PendSV_Handler                                    C:\cygwin64\tmp\ccTUqUH8.ltrans6.ltrans.o
                                                  obj/main/BETAFLIGHTF3/vcp/stm32_it.o (symbol from plugin)
                                                  obj/main/BETAFLIGHTF3/startup_stm32f30x_md_gcc.o
Post0_Process                                     C:\cygwin64\tmp\ccTUqUH8.ltrans2.ltrans.o
                                                  obj/main/BETAFLIGHTF3/usb_core.o (symbol from plugin)
                                                  C:\cygwin64\tmp\ccTUqUH8.ltrans6.ltrans.o
PowerOff                                          obj/main/BETAFLIGHTF3/vcp/usb_pwr.o (symbol from plugin)
PowerOn                                           obj/main/BETAFLIGHTF3/vcp/usb_pwr.o (symbol from plugin)
                                                  obj/main/BETAFLIGHTF3/vcp/usb_prop.o (symbol from plugin)
RCC_ADCCLKConfig                                  obj/main/BETAFLIGHTF3/stm32f30x_rcc.o (symbol from plugin)
                                                  obj/main/BETAFLIGHTF3/drivers/adc_stm32f30x.o (symbol from plugin)
RCC_AHBPeriphClockCmd                             obj/main/BETAFLIGHTF3/stm32f30x_rcc.o (symbol from plugin)
                                                  obj/main/BETAFLIGHTF3/vcp/hw_config.o (symbol from plugin)
                                                  obj/main/BETAFLIGHTF3/drivers/rcc.o (symbol from plugin)
                                                  obj/main/BETAFLIGHTF3/drivers/system_stm32f30x.o (symbol from plugin)
                                                  obj/main/BETAFLIGHTF3/drivers/dma.o (symbol from plugin)
RCC_AHBPeriphResetCmd                             obj/main/BETAFLIGHTF3/stm32f30x_rcc.o (symbol from plugin)
                                                  obj/main/BETAFLIGHTF3/stm32f30x_adc.o (symbol from plugin)
                                                  obj/main/BETAFLIGHTF3/stm32f30x_gpio.o (symbol from plugin)
                                                  obj/main/BETAFLIGHTF3/drivers/rcc.o (symbol from plugin)
RCC_APB1PeriphClockCmd                            obj/main/BETAFLIGHTF3/stm32f30x_rcc.o (symbol from plugin)
                                                  obj/main/BETAFLIGHTF3/vcp/hw_config.o (symbol from plugin)
                                                  obj/main/BETAFLIGHTF3/drivers/rcc.o (symbol from plugin)
RCC_APB1PeriphResetCmd                            obj/main/BETAFLIGHTF3/stm32f30x_rcc.o (symbol from plugin)
                                                  obj/main/BETAFLIGHTF3/stm32f30x_dac.o (symbol from plugin)
                                                  obj/main/BETAFLIGHTF3/stm32f30x_pwr.o (symbol from plugin)
                                                  obj/main/BETAFLIGHTF3/stm32f30x_i2c.o (symbol from plugin)
                                                  obj/main/BETAFLIGHTF3/stm32f30x_usart.o (symbol from plugin)
                                                  obj/main/BETAFLIGHTF3/stm32f30x_tim.o (symbol from plugin)
                                                  obj/main/BETAFLIGHTF3/stm32f30x_spi.o (symbol from plugin)
                                                  obj/main/BETAFLIGHTF3/stm32f30x_wwdg.o (symbol from plugin)
                                                  obj/main/BETAFLIGHTF3/drivers/rcc.o (symbol from plugin)
RCC_APB2PeriphClockCmd                            obj/main/BETAFLIGHTF3/stm32f30x_rcc.o (symbol from plugin)
                                                  obj/main/BETAFLIGHTF3/vcp/hw_config.o (symbol from plugin)
                                                  obj/main/BETAFLIGHTF3/drivers/rcc.o (symbol from plugin)
                                                  obj/main/BETAFLIGHTF3/drivers/exti.o (symbol from plugin)
RCC_APB2PeriphResetCmd                            obj/main/BETAFLIGHTF3/stm32f30x_rcc.o (symbol from plugin)
                                                  obj/main/BETAFLIGHTF3/stm32f30x_usart.o (symbol from plugin)
                                                  obj/main/BETAFLIGHTF3/stm32f30x_tim.o (symbol from plugin)
                                                  obj/main/BETAFLIGHTF3/stm32f30x_hrtim.o (symbol from plugin)
                                                  obj/main/BETAFLIGHTF3/stm32f30x_spi.o (symbol from plugin)
                                                  obj/main/BETAFLIGHTF3/drivers/rcc.o (symbol from plugin)
RCC_AdjustHSICalibrationValue                     obj/main/BETAFLIGHTF3/stm32f30x_rcc.o (symbol from plugin)
RCC_BackupResetCmd                                obj/main/BETAFLIGHTF3/stm32f30x_rcc.o (symbol from plugin)
RCC_ClearFlag                                     obj/main/BETAFLIGHTF3/stm32f30x_rcc.o (symbol from plugin)
                                                  obj/main/BETAFLIGHTF3/drivers/system_stm32f30x.o (symbol from plugin)
RCC_ClearITPendingBit                             obj/main/BETAFLIGHTF3/stm32f30x_rcc.o (symbol from plugin)
RCC_ClockCmd                                      obj/main/BETAFLIGHTF3/drivers/rcc.o (symbol from plugin)
                                                  obj/main/BETAFLIGHTF3/drivers/timer.o (symbol from plugin)
                                                  obj/main/BETAFLIGHTF3/drivers/io.o (symbol from plugin)
                                                  obj/main/BETAFLIGHTF3/drivers/serial_uart_stm32f30x.o (symbol from plugin)
                                                  obj/main/BETAFLIGHTF3/drivers/pwm_output_dshot.o (symbol from plugin)
                                                  obj/main/BETAFLIGHTF3/drivers/light_ws2811strip_stdperiph.o (symbol from plugin)
                                                  obj/main/BETAFLIGHTF3/drivers/bus_spi_stdperiph.o (symbol from plugin)
                                                  obj/main/BETAFLIGHTF3/drivers/adc_stm32f30x.o (symbol from plugin)
RCC_ClockCmd.constprop.248                        C:\cygwin64\tmp\ccTUqUH8.ltrans6.ltrans.o
                                                  C:\cygwin64\tmp\ccTUqUH8.ltrans5.ltrans.o
RCC_ClockSecuritySystemCmd                        obj/main/BETAFLIGHTF3/stm32f30x_rcc.o (symbol from plugin)
RCC_DeInit                                        obj/main/BETAFLIGHTF3/stm32f30x_rcc.o (symbol from plugin)
RCC_GetClocksFreq                                 C:\cygwin64\tmp\ccTUqUH8.ltrans2.ltrans.o
                                                  obj/main/BETAFLIGHTF3/stm32f30x_rcc.o (symbol from plugin)
                                                  C:\cygwin64\tmp\ccTUqUH8.ltrans4.ltrans.o
                                                  obj/main/BETAFLIGHTF3/stm32f30x_usart.o (symbol from plugin)
                                                  obj/main/BETAFLIGHTF3/stm32f30x_spi.o (symbol from plugin)
                                                  obj/main/BETAFLIGHTF3/drivers/system.o (symbol from plugin)
RCC_GetFlagStatus                                 obj/main/BETAFLIGHTF3/stm32f30x_rcc.o (symbol from plugin)
RCC_GetITStatus                                   obj/main/BETAFLIGHTF3/stm32f30x_rcc.o (symbol from plugin)
RCC_GetSYSCLKSource                               obj/main/BETAFLIGHTF3/stm32f30x_rcc.o (symbol from plugin)
RCC_HCLKConfig                                    obj/main/BETAFLIGHTF3/stm32f30x_rcc.o (symbol from plugin)
RCC_HRTIM1CLKConfig                               obj/main/BETAFLIGHTF3/stm32f30x_rcc.o (symbol from plugin)
RCC_HSEConfig                                     obj/main/BETAFLIGHTF3/stm32f30x_rcc.o (symbol from plugin)
RCC_HSICmd                                        obj/main/BETAFLIGHTF3/stm32f30x_rcc.o (symbol from plugin)
RCC_I2CCLKConfig                                  obj/main/BETAFLIGHTF3/stm32f30x_rcc.o (symbol from plugin)
RCC_I2SCLKConfig                                  obj/main/BETAFLIGHTF3/stm32f30x_rcc.o (symbol from plugin)
RCC_IRQHandler                                    obj/main/BETAFLIGHTF3/startup_stm32f30x_md_gcc.o
RCC_ITConfig                                      obj/main/BETAFLIGHTF3/stm32f30x_rcc.o (symbol from plugin)
RCC_LSEConfig                                     obj/main/BETAFLIGHTF3/stm32f30x_rcc.o (symbol from plugin)
RCC_LSEDriveConfig                                obj/main/BETAFLIGHTF3/stm32f30x_rcc.o (symbol from plugin)
RCC_LSICmd                                        obj/main/BETAFLIGHTF3/stm32f30x_rcc.o (symbol from plugin)
RCC_MCOConfig                                     obj/main/BETAFLIGHTF3/stm32f30x_rcc.o (symbol from plugin)
RCC_PCLK1Config                                   obj/main/BETAFLIGHTF3/stm32f30x_rcc.o (symbol from plugin)
RCC_PCLK2Config                                   obj/main/BETAFLIGHTF3/stm32f30x_rcc.o (symbol from plugin)
RCC_PLLCmd                                        obj/main/BETAFLIGHTF3/stm32f30x_rcc.o (symbol from plugin)
RCC_PLLConfig                                     obj/main/BETAFLIGHTF3/stm32f30x_rcc.o (symbol from plugin)
RCC_PREDIV1Config                                 obj/main/BETAFLIGHTF3/stm32f30x_rcc.o (symbol from plugin)
RCC_RTCCLKCmd                                     obj/main/BETAFLIGHTF3/stm32f30x_rcc.o (symbol from plugin)
RCC_RTCCLKConfig                                  obj/main/BETAFLIGHTF3/stm32f30x_rcc.o (symbol from plugin)
RCC_ResetCmd                                      obj/main/BETAFLIGHTF3/drivers/rcc.o (symbol from plugin)
                                                  obj/main/BETAFLIGHTF3/drivers/bus_spi_stdperiph.o (symbol from plugin)
RCC_SYSCLKConfig                                  obj/main/BETAFLIGHTF3/stm32f30x_rcc.o (symbol from plugin)
RCC_TIMCLKConfig                                  obj/main/BETAFLIGHTF3/stm32f30x_rcc.o (symbol from plugin)
RCC_USARTCLKConfig                                obj/main/BETAFLIGHTF3/stm32f30x_rcc.o (symbol from plugin)
RCC_USBCLKConfig                                  obj/main/BETAFLIGHTF3/stm32f30x_rcc.o (symbol from plugin)
                                                  obj/main/BETAFLIGHTF3/vcp/hw_config.o (symbol from plugin)
RCC_WaitForHSEStartUp                             obj/main/BETAFLIGHTF3/stm32f30x_rcc.o (symbol from plugin)
RTC_AlarmCmd                                      obj/main/BETAFLIGHTF3/stm32f30x_rtc.o (symbol from plugin)
RTC_AlarmStructInit                               obj/main/BETAFLIGHTF3/stm32f30x_rtc.o (symbol from plugin)
RTC_AlarmSubSecondConfig                          obj/main/BETAFLIGHTF3/stm32f30x_rtc.o (symbol from plugin)
RTC_Alarm_IRQHandler                              obj/main/BETAFLIGHTF3/startup_stm32f30x_md_gcc.o
RTC_BypassShadowCmd                               obj/main/BETAFLIGHTF3/stm32f30x_rtc.o (symbol from plugin)
RTC_CalibOutputCmd                                obj/main/BETAFLIGHTF3/stm32f30x_rtc.o (symbol from plugin)
RTC_CalibOutputConfig                             obj/main/BETAFLIGHTF3/stm32f30x_rtc.o (symbol from plugin)
RTC_ClearFlag                                     obj/main/BETAFLIGHTF3/stm32f30x_rtc.o (symbol from plugin)
RTC_ClearITPendingBit                             obj/main/BETAFLIGHTF3/stm32f30x_rtc.o (symbol from plugin)
RTC_DateStructInit                                obj/main/BETAFLIGHTF3/stm32f30x_rtc.o (symbol from plugin)
RTC_DayLightSavingConfig                          obj/main/BETAFLIGHTF3/stm32f30x_rtc.o (symbol from plugin)
RTC_DeInit                                        obj/main/BETAFLIGHTF3/stm32f30x_rtc.o (symbol from plugin)
RTC_EnterInitMode                                 obj/main/BETAFLIGHTF3/stm32f30x_rtc.o (symbol from plugin)
RTC_ExitInitMode                                  obj/main/BETAFLIGHTF3/stm32f30x_rtc.o (symbol from plugin)
RTC_GetAlarm                                      obj/main/BETAFLIGHTF3/stm32f30x_rtc.o (symbol from plugin)
RTC_GetAlarmSubSecond                             obj/main/BETAFLIGHTF3/stm32f30x_rtc.o (symbol from plugin)
RTC_GetDate                                       obj/main/BETAFLIGHTF3/stm32f30x_rtc.o (symbol from plugin)
RTC_GetFlagStatus                                 obj/main/BETAFLIGHTF3/stm32f30x_rtc.o (symbol from plugin)
RTC_GetITStatus                                   obj/main/BETAFLIGHTF3/stm32f30x_rtc.o (symbol from plugin)
RTC_GetStoreOperation                             obj/main/BETAFLIGHTF3/stm32f30x_rtc.o (symbol from plugin)
RTC_GetSubSecond                                  obj/main/BETAFLIGHTF3/stm32f30x_rtc.o (symbol from plugin)
RTC_GetTime                                       obj/main/BETAFLIGHTF3/stm32f30x_rtc.o (symbol from plugin)
RTC_GetTimeStamp                                  obj/main/BETAFLIGHTF3/stm32f30x_rtc.o (symbol from plugin)
RTC_GetTimeStampSubSecond                         obj/main/BETAFLIGHTF3/stm32f30x_rtc.o (symbol from plugin)
RTC_GetWakeUpCounter                              obj/main/BETAFLIGHTF3/stm32f30x_rtc.o (symbol from plugin)
RTC_ITConfig                                      obj/main/BETAFLIGHTF3/stm32f30x_rtc.o (symbol from plugin)
RTC_Init                                          obj/main/BETAFLIGHTF3/stm32f30x_rtc.o (symbol from plugin)
RTC_OutputConfig                                  obj/main/BETAFLIGHTF3/stm32f30x_rtc.o (symbol from plugin)
RTC_OutputTypeConfig                              obj/main/BETAFLIGHTF3/stm32f30x_rtc.o (symbol from plugin)
RTC_ReadBackupRegister                            obj/main/BETAFLIGHTF3/stm32f30x_rtc.o (symbol from plugin)
RTC_RefClockCmd                                   obj/main/BETAFLIGHTF3/stm32f30x_rtc.o (symbol from plugin)
RTC_SetAlarm                                      obj/main/BETAFLIGHTF3/stm32f30x_rtc.o (symbol from plugin)
RTC_SetDate                                       obj/main/BETAFLIGHTF3/stm32f30x_rtc.o (symbol from plugin)
RTC_SetTime                                       obj/main/BETAFLIGHTF3/stm32f30x_rtc.o (symbol from plugin)
RTC_SetWakeUpCounter                              obj/main/BETAFLIGHTF3/stm32f30x_rtc.o (symbol from plugin)
RTC_SmoothCalibConfig                             obj/main/BETAFLIGHTF3/stm32f30x_rtc.o (symbol from plugin)
RTC_StructInit                                    obj/main/BETAFLIGHTF3/stm32f30x_rtc.o (symbol from plugin)
RTC_SynchroShiftConfig                            obj/main/BETAFLIGHTF3/stm32f30x_rtc.o (symbol from plugin)
RTC_TamperCmd                                     obj/main/BETAFLIGHTF3/stm32f30x_rtc.o (symbol from plugin)
RTC_TamperFilterConfig                            obj/main/BETAFLIGHTF3/stm32f30x_rtc.o (symbol from plugin)
RTC_TamperPinsPrechargeDuration                   obj/main/BETAFLIGHTF3/stm32f30x_rtc.o (symbol from plugin)
RTC_TamperPullUpCmd                               obj/main/BETAFLIGHTF3/stm32f30x_rtc.o (symbol from plugin)
RTC_TamperSamplingFreqConfig                      obj/main/BETAFLIGHTF3/stm32f30x_rtc.o (symbol from plugin)
RTC_TamperTriggerConfig                           obj/main/BETAFLIGHTF3/stm32f30x_rtc.o (symbol from plugin)
RTC_TimeStampCmd                                  obj/main/BETAFLIGHTF3/stm32f30x_rtc.o (symbol from plugin)
RTC_TimeStampOnTamperDetectionCmd                 obj/main/BETAFLIGHTF3/stm32f30x_rtc.o (symbol from plugin)
RTC_TimeStructInit                                obj/main/BETAFLIGHTF3/stm32f30x_rtc.o (symbol from plugin)
RTC_WKUP_IRQHandler                               obj/main/BETAFLIGHTF3/startup_stm32f30x_md_gcc.o
RTC_WaitForSynchro                                obj/main/BETAFLIGHTF3/stm32f30x_rtc.o (symbol from plugin)
RTC_WakeUpClockConfig                             obj/main/BETAFLIGHTF3/stm32f30x_rtc.o (symbol from plugin)
RTC_WakeUpCmd                                     obj/main/BETAFLIGHTF3/stm32f30x_rtc.o (symbol from plugin)
RTC_WriteBackupRegister                           obj/main/BETAFLIGHTF3/stm32f30x_rtc.o (symbol from plugin)
RTC_WriteProtectionCmd                            obj/main/BETAFLIGHTF3/stm32f30x_rtc.o (symbol from plugin)
ReadByte.lto_priv.350                             C:\cygwin64\tmp\ccTUqUH8.ltrans3.ltrans.o
                                                  C:\cygwin64\tmp\ccTUqUH8.ltrans1.ltrans.o
ReadByteCrc.lto_priv.408                          C:\cygwin64\tmp\ccTUqUH8.ltrans3.ltrans.o
                                                  C:\cygwin64\tmp\ccTUqUH8.ltrans1.ltrans.o
Request                                           obj/main/BETAFLIGHTF3/vcp/usb_prop.o (symbol from plugin)
Reset_Handler                                     obj/main/BETAFLIGHTF3/startup_stm32f30x_md_gcc.o
Resume                                            obj/main/BETAFLIGHTF3/vcp/usb_pwr.o (symbol from plugin)
                                                  obj/main/BETAFLIGHTF3/vcp/usb_istr.o (symbol from plugin)
ResumeS                                           obj/main/BETAFLIGHTF3/vcp/usb_pwr.o (symbol from plugin)
Resume_Init                                       obj/main/BETAFLIGHTF3/vcp/usb_pwr.o (symbol from plugin)
SPI1_IRQHandler                                   obj/main/BETAFLIGHTF3/startup_stm32f30x_md_gcc.o
SPI2_IRQHandler                                   obj/main/BETAFLIGHTF3/startup_stm32f30x_md_gcc.o
SPI3_IRQHandler                                   obj/main/BETAFLIGHTF3/startup_stm32f30x_md_gcc.o
SPI_BiDirectionalLineConfig                       obj/main/BETAFLIGHTF3/stm32f30x_spi.o (symbol from plugin)
SPI_CRCLengthConfig                               obj/main/BETAFLIGHTF3/stm32f30x_spi.o (symbol from plugin)
SPI_CalculateCRC                                  obj/main/BETAFLIGHTF3/stm32f30x_spi.o (symbol from plugin)
SPI_Cmd                                           obj/main/BETAFLIGHTF3/stm32f30x_spi.o (symbol from plugin)
                                                  obj/main/BETAFLIGHTF3/drivers/bus_spi_stdperiph.o (symbol from plugin)
SPI_DataSizeConfig                                obj/main/BETAFLIGHTF3/stm32f30x_spi.o (symbol from plugin)
SPI_GetCRC                                        obj/main/BETAFLIGHTF3/stm32f30x_spi.o (symbol from plugin)
SPI_GetCRCPolynomial                              obj/main/BETAFLIGHTF3/stm32f30x_spi.o (symbol from plugin)
SPI_GetReceptionFIFOStatus                        obj/main/BETAFLIGHTF3/stm32f30x_spi.o (symbol from plugin)
SPI_GetTransmissionFIFOStatus                     obj/main/BETAFLIGHTF3/stm32f30x_spi.o (symbol from plugin)
                                                  obj/main/BETAFLIGHTF3/drivers/bus_spi_stdperiph.o (symbol from plugin)
SPI_I2S_ClearFlag                                 obj/main/BETAFLIGHTF3/stm32f30x_spi.o (symbol from plugin)
SPI_I2S_DMACmd                                    obj/main/BETAFLIGHTF3/stm32f30x_spi.o (symbol from plugin)
                                                  obj/main/BETAFLIGHTF3/drivers/sdcard.o (symbol from plugin)
SPI_I2S_DeInit                                    obj/main/BETAFLIGHTF3/stm32f30x_spi.o (symbol from plugin)
                                                  obj/main/BETAFLIGHTF3/drivers/bus_spi_stdperiph.o (symbol from plugin)
SPI_I2S_GetFlagStatus                             obj/main/BETAFLIGHTF3/stm32f30x_spi.o (symbol from plugin)
                                                  obj/main/BETAFLIGHTF3/drivers/sdcard.o (symbol from plugin)
                                                  obj/main/BETAFLIGHTF3/drivers/bus_spi_stdperiph.o (symbol from plugin)
SPI_I2S_GetITStatus                               obj/main/BETAFLIGHTF3/stm32f30x_spi.o (symbol from plugin)
SPI_I2S_ITConfig                                  obj/main/BETAFLIGHTF3/stm32f30x_spi.o (symbol from plugin)
SPI_I2S_ReceiveData16                             obj/main/BETAFLIGHTF3/stm32f30x_spi.o (symbol from plugin)
SPI_I2S_SendData16                                obj/main/BETAFLIGHTF3/stm32f30x_spi.o (symbol from plugin)
SPI_Init                                          obj/main/BETAFLIGHTF3/stm32f30x_spi.o (symbol from plugin)
                                                  obj/main/BETAFLIGHTF3/drivers/bus_spi_stdperiph.o (symbol from plugin)
SPI_LastDMATransferCmd                            obj/main/BETAFLIGHTF3/stm32f30x_spi.o (symbol from plugin)
SPI_NSSInternalSoftwareConfig                     obj/main/BETAFLIGHTF3/stm32f30x_spi.o (symbol from plugin)
SPI_NSSPulseModeCmd                               obj/main/BETAFLIGHTF3/stm32f30x_spi.o (symbol from plugin)
SPI_ReceiveData8                                  obj/main/BETAFLIGHTF3/stm32f30x_spi.o (symbol from plugin)
                                                  obj/main/BETAFLIGHTF3/drivers/bus_spi_stdperiph.o (symbol from plugin)
SPI_RxFIFOThresholdConfig                         obj/main/BETAFLIGHTF3/stm32f30x_spi.o (symbol from plugin)
                                                  obj/main/BETAFLIGHTF3/drivers/bus_spi_stdperiph.o (symbol from plugin)
SPI_SSOutputCmd                                   obj/main/BETAFLIGHTF3/stm32f30x_spi.o (symbol from plugin)
SPI_SendData8                                     obj/main/BETAFLIGHTF3/stm32f30x_spi.o (symbol from plugin)
                                                  obj/main/BETAFLIGHTF3/drivers/bus_spi_stdperiph.o (symbol from plugin)
SPI_StructInit                                    obj/main/BETAFLIGHTF3/stm32f30x_spi.o (symbol from plugin)
SPI_TIModeCmd                                     obj/main/BETAFLIGHTF3/stm32f30x_spi.o (symbol from plugin)
SPI_TransmitCRC                                   obj/main/BETAFLIGHTF3/stm32f30x_spi.o (symbol from plugin)
SVC_Handler                                       C:\cygwin64\tmp\ccTUqUH8.ltrans6.ltrans.o
                                                  obj/main/BETAFLIGHTF3/vcp/stm32_it.o (symbol from plugin)
                                                  obj/main/BETAFLIGHTF3/startup_stm32f30x_md_gcc.o
SYSCFG_BreakConfig                                obj/main/BETAFLIGHTF3/stm32f30x_syscfg.o (symbol from plugin)
SYSCFG_BypassParityCheckDisable                   obj/main/BETAFLIGHTF3/stm32f30x_syscfg.o (symbol from plugin)
SYSCFG_ClearFlag                                  obj/main/BETAFLIGHTF3/stm32f30x_syscfg.o (symbol from plugin)
SYSCFG_DMAChannelRemapConfig                      obj/main/BETAFLIGHTF3/stm32f30x_syscfg.o (symbol from plugin)
                                                  obj/main/BETAFLIGHTF3/drivers/exti.o (symbol from plugin)
                                                  obj/main/BETAFLIGHTF3/drivers/adc_stm32f30x.o (symbol from plugin)
SYSCFG_DeInit                                     obj/main/BETAFLIGHTF3/stm32f30x_syscfg.o (symbol from plugin)
SYSCFG_EXTILineConfig                             obj/main/BETAFLIGHTF3/stm32f30x_syscfg.o (symbol from plugin)
                                                  obj/main/BETAFLIGHTF3/drivers/exti.o (symbol from plugin)
SYSCFG_EncoderRemapConfig                         obj/main/BETAFLIGHTF3/stm32f30x_syscfg.o (symbol from plugin)
SYSCFG_GetFlagStatus                              obj/main/BETAFLIGHTF3/stm32f30x_syscfg.o (symbol from plugin)
SYSCFG_I2CFastModePlusConfig                      obj/main/BETAFLIGHTF3/stm32f30x_syscfg.o (symbol from plugin)
SYSCFG_ITConfig                                   obj/main/BETAFLIGHTF3/stm32f30x_syscfg.o (symbol from plugin)
SYSCFG_MemoryRemapConfig                          obj/main/BETAFLIGHTF3/stm32f30x_syscfg.o (symbol from plugin)
SYSCFG_SRAMWRPEnable                              obj/main/BETAFLIGHTF3/stm32f30x_syscfg.o (symbol from plugin)
SYSCFG_TriggerRemapConfig                         obj/main/BETAFLIGHTF3/stm32f30x_syscfg.o (symbol from plugin)
SYSCFG_USBInterruptLineRemapCmd                   obj/main/BETAFLIGHTF3/stm32f30x_syscfg.o (symbol from plugin)
SaveRState                                        C:\cygwin64\tmp\ccTUqUH8.ltrans6.ltrans.o
                                                  obj/main/BETAFLIGHTF3/usb_int.o (symbol from plugin)
                                                  C:\cygwin64\tmp\ccTUqUH8.ltrans2.ltrans.o
                                                  obj/main/BETAFLIGHTF3/usb_core.o (symbol from plugin)
SaveState                                         obj/main/BETAFLIGHTF3/usb_init.o (symbol from plugin)
SaveTState                                        C:\cygwin64\tmp\ccTUqUH8.ltrans6.ltrans.o
                                                  obj/main/BETAFLIGHTF3/usb_int.o (symbol from plugin)
                                                  C:\cygwin64\tmp\ccTUqUH8.ltrans2.ltrans.o
                                                  obj/main/BETAFLIGHTF3/usb_core.o (symbol from plugin)
SetBTABLE                                         obj/main/BETAFLIGHTF3/usb_regs.o (symbol from plugin)
                                                  obj/main/BETAFLIGHTF3/vcp/usb_prop.o (symbol from plugin)
SetCNTR                                           obj/main/BETAFLIGHTF3/usb_regs.o (symbol from plugin)
SetDADDR                                          obj/main/BETAFLIGHTF3/usb_regs.o (symbol from plugin)
SetDeviceAddress                                  obj/main/BETAFLIGHTF3/usb_core.o (symbol from plugin)
                                                  obj/main/BETAFLIGHTF3/vcp/usb_prop.o (symbol from plugin)
SetDouBleBuffEPStall                              obj/main/BETAFLIGHTF3/usb_regs.o (symbol from plugin)
SetENDPOINT                                       obj/main/BETAFLIGHTF3/usb_regs.o (symbol from plugin)
SetEPAddress                                      obj/main/BETAFLIGHTF3/usb_regs.o (symbol from plugin)
SetEPCountRxReg                                   obj/main/BETAFLIGHTF3/usb_regs.o (symbol from plugin)
SetEPDblBuf0Addr                                  obj/main/BETAFLIGHTF3/usb_regs.o (symbol from plugin)
SetEPDblBuf0Count                                 obj/main/BETAFLIGHTF3/usb_regs.o (symbol from plugin)
SetEPDblBuf1Addr                                  obj/main/BETAFLIGHTF3/usb_regs.o (symbol from plugin)
SetEPDblBuf1Count                                 obj/main/BETAFLIGHTF3/usb_regs.o (symbol from plugin)
SetEPDblBuffAddr                                  obj/main/BETAFLIGHTF3/usb_regs.o (symbol from plugin)
SetEPDblBuffCount                                 obj/main/BETAFLIGHTF3/usb_regs.o (symbol from plugin)
SetEPDoubleBuff                                   obj/main/BETAFLIGHTF3/usb_regs.o (symbol from plugin)
SetEPRxAddr                                       obj/main/BETAFLIGHTF3/usb_regs.o (symbol from plugin)
                                                  obj/main/BETAFLIGHTF3/vcp/usb_prop.o (symbol from plugin)
SetEPRxCount                                      C:\cygwin64\tmp\ccTUqUH8.ltrans2.ltrans.o
                                                  obj/main/BETAFLIGHTF3/usb_regs.o (symbol from plugin)
                                                  C:\cygwin64\tmp\ccTUqUH8.ltrans6.ltrans.o
                                                  obj/main/BETAFLIGHTF3/vcp/usb_prop.o (symbol from plugin)
                                                  obj/main/BETAFLIGHTF3/vcp/hw_config.o (symbol from plugin)
                                                  obj/main/BETAFLIGHTF3/usb_core.o (symbol from plugin)
SetEPRxStatus                                     obj/main/BETAFLIGHTF3/usb_regs.o (symbol from plugin)
                                                  obj/main/BETAFLIGHTF3/vcp/usb_prop.o (symbol from plugin)
                                                  obj/main/BETAFLIGHTF3/vcp/hw_config.o (symbol from plugin)
SetEPRxValid                                      obj/main/BETAFLIGHTF3/usb_regs.o (symbol from plugin)
                                                  obj/main/BETAFLIGHTF3/vcp/usb_prop.o (symbol from plugin)
SetEPTxAddr                                       obj/main/BETAFLIGHTF3/usb_regs.o (symbol from plugin)
                                                  obj/main/BETAFLIGHTF3/vcp/usb_prop.o (symbol from plugin)
SetEPTxCount                                      C:\cygwin64\tmp\ccTUqUH8.ltrans2.ltrans.o
                                                  obj/main/BETAFLIGHTF3/usb_regs.o (symbol from plugin)
                                                  C:\cygwin64\tmp\ccTUqUH8.ltrans6.ltrans.o
                                                  obj/main/BETAFLIGHTF3/vcp/hw_config.o (symbol from plugin)
                                                  obj/main/BETAFLIGHTF3/usb_sil.o (symbol from plugin)
                                                  obj/main/BETAFLIGHTF3/usb_core.o (symbol from plugin)
SetEPTxStatus                                     obj/main/BETAFLIGHTF3/usb_regs.o (symbol from plugin)
                                                  obj/main/BETAFLIGHTF3/vcp/usb_prop.o (symbol from plugin)
                                                  obj/main/BETAFLIGHTF3/usb_core.o (symbol from plugin)
SetEPTxValid                                      obj/main/BETAFLIGHTF3/usb_regs.o (symbol from plugin)
                                                  obj/main/BETAFLIGHTF3/vcp/hw_config.o (symbol from plugin)
SetEPType                                         obj/main/BETAFLIGHTF3/usb_regs.o (symbol from plugin)
                                                  obj/main/BETAFLIGHTF3/vcp/usb_prop.o (symbol from plugin)
SetEP_KIND                                        obj/main/BETAFLIGHTF3/usb_regs.o (symbol from plugin)
SetISTR                                           obj/main/BETAFLIGHTF3/usb_regs.o (symbol from plugin)
SetSysClock                                       C:\cygwin64\tmp\ccTUqUH8.ltrans5.ltrans.o
                                                  obj/main/BETAFLIGHTF3/target/system_stm32f30x.o (symbol from plugin)
                                                  C:\cygwin64\tmp\ccTUqUH8.ltrans4.ltrans.o
                                                  obj/main/BETAFLIGHTF3/drivers/system_stm32f30x.o (symbol from plugin)
Set_Status_Out                                    obj/main/BETAFLIGHTF3/usb_regs.o (symbol from plugin)
Set_System                                        C:\cygwin64\tmp\ccTUqUH8.ltrans2.ltrans.o
                                                  obj/main/BETAFLIGHTF3/vcp/hw_config.o (symbol from plugin)
                                                  C:\cygwin64\tmp\ccTUqUH8.ltrans4.ltrans.o
                                                  obj/main/BETAFLIGHTF3/drivers/serial_usb_vcp.o (symbol from plugin)
Set_USBClock                                      obj/main/BETAFLIGHTF3/vcp/hw_config.o (symbol from plugin)
                                                  obj/main/BETAFLIGHTF3/drivers/serial_usb_vcp.o (symbol from plugin)
Setup0_Process                                    obj/main/BETAFLIGHTF3/usb_core.o (symbol from plugin)
                                                  obj/main/BETAFLIGHTF3/usb_int.o (symbol from plugin)
Standard_ClearFeature                             C:\cygwin64\tmp\ccTUqUH8.ltrans2.ltrans.o
                                                  obj/main/BETAFLIGHTF3/usb_core.o (symbol from plugin)
                                                  C:\cygwin64\tmp\ccTUqUH8.ltrans6.ltrans.o
Standard_GetConfiguration                         C:\cygwin64\tmp\ccTUqUH8.ltrans2.ltrans.o
                                                  obj/main/BETAFLIGHTF3/usb_core.o (symbol from plugin)
                                                  C:\cygwin64\tmp\ccTUqUH8.ltrans6.ltrans.o
Standard_GetDescriptorData                        obj/main/BETAFLIGHTF3/usb_core.o (symbol from plugin)
                                                  obj/main/BETAFLIGHTF3/vcp/usb_prop.o (symbol from plugin)
Standard_GetInterface                             C:\cygwin64\tmp\ccTUqUH8.ltrans2.ltrans.o
                                                  obj/main/BETAFLIGHTF3/usb_core.o (symbol from plugin)
                                                  C:\cygwin64\tmp\ccTUqUH8.ltrans6.ltrans.o
Standard_GetStatus                                C:\cygwin64\tmp\ccTUqUH8.ltrans2.ltrans.o
                                                  obj/main/BETAFLIGHTF3/usb_core.o (symbol from plugin)
                                                  C:\cygwin64\tmp\ccTUqUH8.ltrans6.ltrans.o
Standard_SetConfiguration                         obj/main/BETAFLIGHTF3/usb_core.o (symbol from plugin)
Standard_SetDeviceFeature                         obj/main/BETAFLIGHTF3/usb_core.o (symbol from plugin)
Standard_SetEndPointFeature                       obj/main/BETAFLIGHTF3/usb_core.o (symbol from plugin)
Standard_SetInterface                             obj/main/BETAFLIGHTF3/usb_core.o (symbol from plugin)
StatusInfo                                        obj/main/BETAFLIGHTF3/usb_core.o (symbol from plugin)
StkCmd.lto_priv.348                               C:\cygwin64\tmp\ccTUqUH8.ltrans6.ltrans.o
                                                  C:\cygwin64\tmp\ccTUqUH8.ltrans1.ltrans.o
StkInBuf.lto_priv.349                             C:\cygwin64\tmp\ccTUqUH8.ltrans6.ltrans.o
                                                  C:\cygwin64\tmp\ccTUqUH8.ltrans1.ltrans.o
StkRcvPacket.lto_priv.295                         C:\cygwin64\tmp\ccTUqUH8.ltrans1.ltrans.o
                                                  C:\cygwin64\tmp\ccTUqUH8.ltrans6.ltrans.o
StkSendByte.lto_priv.293                          C:\cygwin64\tmp\ccTUqUH8.ltrans1.ltrans.o
                                                  C:\cygwin64\tmp\ccTUqUH8.ltrans6.ltrans.o
StkSendPacketFooter.lto_priv.294                  C:\cygwin64\tmp\ccTUqUH8.ltrans1.ltrans.o
                                                  C:\cygwin64\tmp\ccTUqUH8.ltrans6.ltrans.o
StkSendPacketHeader.lto_priv.292                  C:\cygwin64\tmp\ccTUqUH8.ltrans1.ltrans.o
                                                  C:\cygwin64\tmp\ccTUqUH8.ltrans6.ltrans.o
Stk_Chip_Erase                                    obj/main/BETAFLIGHTF3/io/serial_4way_stk500v2.o (symbol from plugin)
                                                  obj/main/BETAFLIGHTF3/io/serial_4way.o (symbol from plugin)
Stk_ConnectEx                                     obj/main/BETAFLIGHTF3/io/serial_4way_stk500v2.o (symbol from plugin)
                                                  obj/main/BETAFLIGHTF3/io/serial_4way.o (symbol from plugin)
Stk_ReadEEprom                                    obj/main/BETAFLIGHTF3/io/serial_4way_stk500v2.o (symbol from plugin)
                                                  obj/main/BETAFLIGHTF3/io/serial_4way.o (symbol from plugin)
Stk_ReadFlash                                     obj/main/BETAFLIGHTF3/io/serial_4way_stk500v2.o (symbol from plugin)
                                                  obj/main/BETAFLIGHTF3/io/serial_4way.o (symbol from plugin)
Stk_SignOn                                        obj/main/BETAFLIGHTF3/io/serial_4way_stk500v2.o (symbol from plugin)
                                                  obj/main/BETAFLIGHTF3/io/serial_4way.o (symbol from plugin)
Stk_WriteEEprom                                   obj/main/BETAFLIGHTF3/io/serial_4way_stk500v2.o (symbol from plugin)
                                                  obj/main/BETAFLIGHTF3/io/serial_4way.o (symbol from plugin)
Stk_WriteFlash                                    obj/main/BETAFLIGHTF3/io/serial_4way_stk500v2.o (symbol from plugin)
                                                  obj/main/BETAFLIGHTF3/io/serial_4way.o (symbol from plugin)
String_Descriptor                                 obj/main/BETAFLIGHTF3/vcp/usb_prop.o (symbol from plugin)
Suspend                                           obj/main/BETAFLIGHTF3/vcp/usb_pwr.o (symbol from plugin)
SysTick_CLKSourceConfig                           obj/main/BETAFLIGHTF3/stm32f30x_misc.o (symbol from plugin)
SysTick_Handler                                   C:\cygwin64\tmp\ccTUqUH8.ltrans0.ltrans.o
                                                  obj/main/BETAFLIGHTF3/drivers/system.o (symbol from plugin)
                                                  obj/main/BETAFLIGHTF3/startup_stm32f30x_md_gcc.o
SystemCoreClock                                   C:\cygwin64\tmp\ccTUqUH8.ltrans6.ltrans.o
                                                  obj/main/BETAFLIGHTF3/target/system_stm32f30x.o (symbol from plugin)
                                                  obj/main/BETAFLIGHTF3/drivers/serial_escserial.o (symbol from plugin)
                                                  obj/main/BETAFLIGHTF3/interface/cli.o (symbol from plugin)
                                                  obj/main/BETAFLIGHTF3/drivers/timer_stm32f30x.o (symbol from plugin)
                                                  obj/main/BETAFLIGHTF3/drivers/system_stm32f30x.o (symbol from plugin)
SystemCoreClockUpdate                             obj/main/BETAFLIGHTF3/target/system_stm32f30x.o (symbol from plugin)
SystemInit                                        C:\cygwin64\tmp\ccTUqUH8.ltrans5.ltrans.o
                                                  obj/main/BETAFLIGHTF3/target/system_stm32f30x.o (symbol from plugin)
                                                  C:\cygwin64\tmp\ccTUqUH8.ltrans6.ltrans.o
                                                  obj/main/BETAFLIGHTF3/vcp/hw_config.o (symbol from plugin)
                                                  obj/main/BETAFLIGHTF3/startup_stm32f30x_md_gcc.o
TAMPER_STAMP_IRQHandler                           obj/main/BETAFLIGHTF3/startup_stm32f30x_md_gcc.o
TIM1_BRK_TIM15_IRQHandler                         C:\cygwin64\tmp\ccTUqUH8.ltrans0.ltrans.o
                                                  obj/main/BETAFLIGHTF3/drivers/timer.o (symbol from plugin)
                                                  obj/main/BETAFLIGHTF3/startup_stm32f30x_md_gcc.o
TIM1_CC_IRQHandler                                C:\cygwin64\tmp\ccTUqUH8.ltrans0.ltrans.o
                                                  obj/main/BETAFLIGHTF3/drivers/timer.o (symbol from plugin)
                                                  obj/main/BETAFLIGHTF3/startup_stm32f30x_md_gcc.o
TIM1_TRG_COM_TIM17_IRQHandler                     C:\cygwin64\tmp\ccTUqUH8.ltrans0.ltrans.o
                                                  obj/main/BETAFLIGHTF3/drivers/timer.o (symbol from plugin)
                                                  obj/main/BETAFLIGHTF3/startup_stm32f30x_md_gcc.o
TIM1_UP_TIM16_IRQHandler                          C:\cygwin64\tmp\ccTUqUH8.ltrans0.ltrans.o
                                                  obj/main/BETAFLIGHTF3/drivers/timer.o (symbol from plugin)
                                                  obj/main/BETAFLIGHTF3/startup_stm32f30x_md_gcc.o
TIM2_IRQHandler                                   C:\cygwin64\tmp\ccTUqUH8.ltrans0.ltrans.o
                                                  obj/main/BETAFLIGHTF3/drivers/timer.o (symbol from plugin)
                                                  obj/main/BETAFLIGHTF3/startup_stm32f30x_md_gcc.o
TIM3_IRQHandler                                   C:\cygwin64\tmp\ccTUqUH8.ltrans0.ltrans.o
                                                  obj/main/BETAFLIGHTF3/drivers/timer.o (symbol from plugin)
                                                  obj/main/BETAFLIGHTF3/startup_stm32f30x_md_gcc.o
TIM4_IRQHandler                                   C:\cygwin64\tmp\ccTUqUH8.ltrans0.ltrans.o
                                                  obj/main/BETAFLIGHTF3/drivers/timer.o (symbol from plugin)
                                                  obj/main/BETAFLIGHTF3/startup_stm32f30x_md_gcc.o
TIM6_DAC_IRQHandler                               C:\cygwin64\tmp\ccTUqUH8.ltrans4.ltrans.o
                                                  obj/main/BETAFLIGHTF3/drivers/camera_control.o (symbol from plugin)
                                                  obj/main/BETAFLIGHTF3/startup_stm32f30x_md_gcc.o
TIM7_IRQHandler                                   C:\cygwin64\tmp\ccTUqUH8.ltrans4.ltrans.o
                                                  obj/main/BETAFLIGHTF3/drivers/camera_control.o (symbol from plugin)
                                                  obj/main/BETAFLIGHTF3/startup_stm32f30x_md_gcc.o
TIM8_BRK_IRQHandler                               obj/main/BETAFLIGHTF3/startup_stm32f30x_md_gcc.o
TIM8_CC_IRQHandler                                C:\cygwin64\tmp\ccTUqUH8.ltrans0.ltrans.o
                                                  obj/main/BETAFLIGHTF3/drivers/timer.o (symbol from plugin)
                                                  obj/main/BETAFLIGHTF3/startup_stm32f30x_md_gcc.o
TIM8_TRG_COM_IRQHandler                           obj/main/BETAFLIGHTF3/startup_stm32f30x_md_gcc.o
TIM8_UP_IRQHandler                                C:\cygwin64\tmp\ccTUqUH8.ltrans0.ltrans.o
                                                  obj/main/BETAFLIGHTF3/drivers/timer.o (symbol from plugin)
                                                  obj/main/BETAFLIGHTF3/startup_stm32f30x_md_gcc.o
TIM_ARRPreloadConfig                              obj/main/BETAFLIGHTF3/stm32f30x_tim.o (symbol from plugin)
                                                  obj/main/BETAFLIGHTF3/drivers/pwm_output_dshot.o (symbol from plugin)
                                                  obj/main/BETAFLIGHTF3/drivers/light_ws2811strip_stdperiph.o (symbol from plugin)
TIM_BDTRConfig                                    obj/main/BETAFLIGHTF3/stm32f30x_tim.o (symbol from plugin)
TIM_BDTRStructInit                                obj/main/BETAFLIGHTF3/stm32f30x_tim.o (symbol from plugin)
TIM_Break1Cmd                                     obj/main/BETAFLIGHTF3/stm32f30x_tim.o (symbol from plugin)
TIM_Break1Config                                  obj/main/BETAFLIGHTF3/stm32f30x_tim.o (symbol from plugin)
TIM_Break2Cmd                                     obj/main/BETAFLIGHTF3/stm32f30x_tim.o (symbol from plugin)
TIM_Break2Config                                  obj/main/BETAFLIGHTF3/stm32f30x_tim.o (symbol from plugin)
TIM_CCPreloadControl                              obj/main/BETAFLIGHTF3/stm32f30x_tim.o (symbol from plugin)
TIM_CCxCmd                                        C:\cygwin64\tmp\ccTUqUH8.ltrans2.ltrans.o
                                                  obj/main/BETAFLIGHTF3/stm32f30x_tim.o (symbol from plugin)
                                                  C:\cygwin64\tmp\ccTUqUH8.ltrans6.ltrans.o
                                                  C:\cygwin64\tmp\ccTUqUH8.ltrans5.ltrans.o
                                                  C:\cygwin64\tmp\ccTUqUH8.ltrans4.ltrans.o
                                                  obj/main/BETAFLIGHTF3/drivers/serial_softserial.o (symbol from plugin)
                                                  obj/main/BETAFLIGHTF3/drivers/pwm_output_dshot.o (symbol from plugin)
                                                  obj/main/BETAFLIGHTF3/drivers/light_ws2811strip_stdperiph.o (symbol from plugin)
TIM_CCxNCmd                                       obj/main/BETAFLIGHTF3/stm32f30x_tim.o (symbol from plugin)
                                                  obj/main/BETAFLIGHTF3/drivers/pwm_output_dshot.o (symbol from plugin)
                                                  obj/main/BETAFLIGHTF3/drivers/light_ws2811strip_stdperiph.o (symbol from plugin)
TIM_ClearFlag                                     obj/main/BETAFLIGHTF3/stm32f30x_tim.o (symbol from plugin)
                                                  obj/main/BETAFLIGHTF3/drivers/timer.o (symbol from plugin)
TIM_ClearITPendingBit                             obj/main/BETAFLIGHTF3/stm32f30x_tim.o (symbol from plugin)
TIM_ClearOC1Ref                                   obj/main/BETAFLIGHTF3/stm32f30x_tim.o (symbol from plugin)
TIM_ClearOC2Ref                                   obj/main/BETAFLIGHTF3/stm32f30x_tim.o (symbol from plugin)
TIM_ClearOC3Ref                                   obj/main/BETAFLIGHTF3/stm32f30x_tim.o (symbol from plugin)
TIM_ClearOC4Ref                                   obj/main/BETAFLIGHTF3/stm32f30x_tim.o (symbol from plugin)
TIM_ClearOC5Ref                                   obj/main/BETAFLIGHTF3/stm32f30x_tim.o (symbol from plugin)
TIM_ClearOC6Ref                                   obj/main/BETAFLIGHTF3/stm32f30x_tim.o (symbol from plugin)
TIM_Cmd                                           obj/main/BETAFLIGHTF3/stm32f30x_tim.o (symbol from plugin)
                                                  obj/main/BETAFLIGHTF3/drivers/pwm_output.o (symbol from plugin)
                                                  obj/main/BETAFLIGHTF3/drivers/timer.o (symbol from plugin)
                                                  obj/main/BETAFLIGHTF3/drivers/pwm_output_dshot.o (symbol from plugin)
                                                  obj/main/BETAFLIGHTF3/drivers/light_ws2811strip_stdperiph.o (symbol from plugin)
TIM_CounterModeConfig                             obj/main/BETAFLIGHTF3/stm32f30x_tim.o (symbol from plugin)
TIM_CtrlPWMOutputs                                obj/main/BETAFLIGHTF3/stm32f30x_tim.o (symbol from plugin)
                                                  obj/main/BETAFLIGHTF3/drivers/pwm_output.o (symbol from plugin)
                                                  obj/main/BETAFLIGHTF3/drivers/pwm_output_dshot.o (symbol from plugin)
                                                  obj/main/BETAFLIGHTF3/drivers/light_ws2811strip_stdperiph.o (symbol from plugin)
TIM_DMACmd                                        obj/main/BETAFLIGHTF3/stm32f30x_tim.o (symbol from plugin)
                                                  obj/main/BETAFLIGHTF3/drivers/pwm_output_dshot.o (symbol from plugin)
                                                  obj/main/BETAFLIGHTF3/drivers/light_ws2811strip_stdperiph.o (symbol from plugin)
TIM_DMAConfig                                     obj/main/BETAFLIGHTF3/stm32f30x_tim.o (symbol from plugin)
                                                  obj/main/BETAFLIGHTF3/drivers/pwm_output_dshot.o (symbol from plugin)
TIM_DeInit                                        C:\cygwin64\tmp\ccTUqUH8.ltrans2.ltrans.o
                                                  obj/main/BETAFLIGHTF3/stm32f30x_tim.o (symbol from plugin)
                                                  C:\cygwin64\tmp\ccTUqUH8.ltrans6.ltrans.o
                                                  obj/main/BETAFLIGHTF3/drivers/serial_escserial.o (symbol from plugin)
TIM_ETRClockMode1Config                           obj/main/BETAFLIGHTF3/stm32f30x_tim.o (symbol from plugin)
TIM_ETRClockMode2Config                           obj/main/BETAFLIGHTF3/stm32f30x_tim.o (symbol from plugin)
TIM_ETRConfig                                     obj/main/BETAFLIGHTF3/stm32f30x_tim.o (symbol from plugin)
TIM_EncoderInterfaceConfig                        obj/main/BETAFLIGHTF3/stm32f30x_tim.o (symbol from plugin)
TIM_ForcedOC1Config                               obj/main/BETAFLIGHTF3/stm32f30x_tim.o (symbol from plugin)
TIM_ForcedOC2Config                               obj/main/BETAFLIGHTF3/stm32f30x_tim.o (symbol from plugin)
TIM_ForcedOC3Config                               obj/main/BETAFLIGHTF3/stm32f30x_tim.o (symbol from plugin)
TIM_ForcedOC4Config                               obj/main/BETAFLIGHTF3/stm32f30x_tim.o (symbol from plugin)
TIM_ForcedOC5Config                               obj/main/BETAFLIGHTF3/stm32f30x_tim.o (symbol from plugin)
TIM_ForcedOC6Config                               obj/main/BETAFLIGHTF3/stm32f30x_tim.o (symbol from plugin)
TIM_GenerateEvent                                 obj/main/BETAFLIGHTF3/stm32f30x_tim.o (symbol from plugin)
TIM_GetCapture1                                   obj/main/BETAFLIGHTF3/stm32f30x_tim.o (symbol from plugin)
TIM_GetCapture2                                   obj/main/BETAFLIGHTF3/stm32f30x_tim.o (symbol from plugin)
TIM_GetCapture3                                   obj/main/BETAFLIGHTF3/stm32f30x_tim.o (symbol from plugin)
TIM_GetCapture4                                   obj/main/BETAFLIGHTF3/stm32f30x_tim.o (symbol from plugin)
TIM_GetCounter                                    obj/main/BETAFLIGHTF3/stm32f30x_tim.o (symbol from plugin)
TIM_GetFlagStatus                                 obj/main/BETAFLIGHTF3/stm32f30x_tim.o (symbol from plugin)
TIM_GetITStatus                                   obj/main/BETAFLIGHTF3/stm32f30x_tim.o (symbol from plugin)
TIM_GetPrescaler                                  obj/main/BETAFLIGHTF3/stm32f30x_tim.o (symbol from plugin)
TIM_ICInit                                        obj/main/BETAFLIGHTF3/stm32f30x_tim.o (symbol from plugin)
                                                  obj/main/BETAFLIGHTF3/drivers/rx/rx_pwm.o (symbol from plugin)
                                                  obj/main/BETAFLIGHTF3/drivers/timer.o (symbol from plugin)
TIM_ICStructInit                                  obj/main/BETAFLIGHTF3/stm32f30x_tim.o (symbol from plugin)
                                                  obj/main/BETAFLIGHTF3/drivers/rx/rx_pwm.o (symbol from plugin)
                                                  obj/main/BETAFLIGHTF3/drivers/timer.o (symbol from plugin)
TIM_ITConfig                                      obj/main/BETAFLIGHTF3/stm32f30x_tim.o (symbol from plugin)
                                                  obj/main/BETAFLIGHTF3/drivers/timer.o (symbol from plugin)
TIM_ITRxExternalClockConfig                       obj/main/BETAFLIGHTF3/stm32f30x_tim.o (symbol from plugin)
TIM_InternalClockConfig                           obj/main/BETAFLIGHTF3/stm32f30x_tim.o (symbol from plugin)
TIM_OC1FastConfig                                 obj/main/BETAFLIGHTF3/stm32f30x_tim.o (symbol from plugin)
TIM_OC1Init                                       obj/main/BETAFLIGHTF3/stm32f30x_tim.o (symbol from plugin)
                                                  obj/main/BETAFLIGHTF3/drivers/timer.o (symbol from plugin)
TIM_OC1NPolarityConfig                            obj/main/BETAFLIGHTF3/stm32f30x_tim.o (symbol from plugin)
TIM_OC1PolarityConfig                             obj/main/BETAFLIGHTF3/stm32f30x_tim.o (symbol from plugin)
TIM_OC1PreloadConfig                              obj/main/BETAFLIGHTF3/stm32f30x_tim.o (symbol from plugin)
                                                  obj/main/BETAFLIGHTF3/drivers/timer.o (symbol from plugin)
TIM_OC2FastConfig                                 obj/main/BETAFLIGHTF3/stm32f30x_tim.o (symbol from plugin)
TIM_OC2Init                                       obj/main/BETAFLIGHTF3/stm32f30x_tim.o (symbol from plugin)
                                                  obj/main/BETAFLIGHTF3/drivers/timer.o (symbol from plugin)
TIM_OC2NPolarityConfig                            obj/main/BETAFLIGHTF3/stm32f30x_tim.o (symbol from plugin)
TIM_OC2PolarityConfig                             obj/main/BETAFLIGHTF3/stm32f30x_tim.o (symbol from plugin)
TIM_OC2PreloadConfig                              obj/main/BETAFLIGHTF3/stm32f30x_tim.o (symbol from plugin)
                                                  obj/main/BETAFLIGHTF3/drivers/timer.o (symbol from plugin)
TIM_OC3FastConfig                                 obj/main/BETAFLIGHTF3/stm32f30x_tim.o (symbol from plugin)
TIM_OC3Init                                       obj/main/BETAFLIGHTF3/stm32f30x_tim.o (symbol from plugin)
                                                  obj/main/BETAFLIGHTF3/drivers/timer.o (symbol from plugin)
TIM_OC3NPolarityConfig                            obj/main/BETAFLIGHTF3/stm32f30x_tim.o (symbol from plugin)
TIM_OC3PolarityConfig                             obj/main/BETAFLIGHTF3/stm32f30x_tim.o (symbol from plugin)
TIM_OC3PreloadConfig                              obj/main/BETAFLIGHTF3/stm32f30x_tim.o (symbol from plugin)
                                                  obj/main/BETAFLIGHTF3/drivers/timer.o (symbol from plugin)
TIM_OC4FastConfig                                 obj/main/BETAFLIGHTF3/stm32f30x_tim.o (symbol from plugin)
TIM_OC4Init                                       obj/main/BETAFLIGHTF3/stm32f30x_tim.o (symbol from plugin)
                                                  obj/main/BETAFLIGHTF3/drivers/timer.o (symbol from plugin)
TIM_OC4PolarityConfig                             obj/main/BETAFLIGHTF3/stm32f30x_tim.o (symbol from plugin)
TIM_OC4PreloadConfig                              obj/main/BETAFLIGHTF3/stm32f30x_tim.o (symbol from plugin)
                                                  obj/main/BETAFLIGHTF3/drivers/timer.o (symbol from plugin)
TIM_OC5Init                                       obj/main/BETAFLIGHTF3/stm32f30x_tim.o (symbol from plugin)
TIM_OC5PolarityConfig                             obj/main/BETAFLIGHTF3/stm32f30x_tim.o (symbol from plugin)
TIM_OC5PreloadConfig                              obj/main/BETAFLIGHTF3/stm32f30x_tim.o (symbol from plugin)
TIM_OC6Init                                       obj/main/BETAFLIGHTF3/stm32f30x_tim.o (symbol from plugin)
TIM_OC6PolarityConfig                             obj/main/BETAFLIGHTF3/stm32f30x_tim.o (symbol from plugin)
TIM_OC6PreloadConfig                              obj/main/BETAFLIGHTF3/stm32f30x_tim.o (symbol from plugin)
TIM_OCStructInit                                  obj/main/BETAFLIGHTF3/stm32f30x_tim.o (symbol from plugin)
                                                  obj/main/BETAFLIGHTF3/drivers/pwm_output.o (symbol from plugin)
                                                  obj/main/BETAFLIGHTF3/drivers/timer.o (symbol from plugin)
                                                  obj/main/BETAFLIGHTF3/drivers/pwm_output_dshot.o (symbol from plugin)
                                                  obj/main/BETAFLIGHTF3/drivers/light_ws2811strip_stdperiph.o (symbol from plugin)
TIM_PWMIConfig                                    obj/main/BETAFLIGHTF3/stm32f30x_tim.o (symbol from plugin)
TIM_PrescalerConfig                               obj/main/BETAFLIGHTF3/stm32f30x_tim.o (symbol from plugin)
TIM_RemapConfig                                   obj/main/BETAFLIGHTF3/stm32f30x_tim.o (symbol from plugin)
TIM_SelectCCDMA                                   obj/main/BETAFLIGHTF3/stm32f30x_tim.o (symbol from plugin)
TIM_SelectCOM                                     obj/main/BETAFLIGHTF3/stm32f30x_tim.o (symbol from plugin)
TIM_SelectGC5C1                                   obj/main/BETAFLIGHTF3/stm32f30x_tim.o (symbol from plugin)
TIM_SelectGC5C2                                   obj/main/BETAFLIGHTF3/stm32f30x_tim.o (symbol from plugin)
TIM_SelectGC5C3                                   obj/main/BETAFLIGHTF3/stm32f30x_tim.o (symbol from plugin)
TIM_SelectHallSensor                              obj/main/BETAFLIGHTF3/stm32f30x_tim.o (symbol from plugin)
TIM_SelectInputTrigger                            obj/main/BETAFLIGHTF3/stm32f30x_tim.o (symbol from plugin)
TIM_SelectMasterSlaveMode                         obj/main/BETAFLIGHTF3/stm32f30x_tim.o (symbol from plugin)
TIM_SelectOCREFClear                              obj/main/BETAFLIGHTF3/stm32f30x_tim.o (symbol from plugin)
TIM_SelectOCxM                                    obj/main/BETAFLIGHTF3/stm32f30x_tim.o (symbol from plugin)
TIM_SelectOnePulseMode                            obj/main/BETAFLIGHTF3/stm32f30x_tim.o (symbol from plugin)
TIM_SelectOutputTrigger                           obj/main/BETAFLIGHTF3/stm32f30x_tim.o (symbol from plugin)
TIM_SelectOutputTrigger2                          obj/main/BETAFLIGHTF3/stm32f30x_tim.o (symbol from plugin)
TIM_SelectSlaveMode                               obj/main/BETAFLIGHTF3/stm32f30x_tim.o (symbol from plugin)
TIM_SetAutoreload                                 obj/main/BETAFLIGHTF3/stm32f30x_tim.o (symbol from plugin)
TIM_SetClockDivision                              obj/main/BETAFLIGHTF3/stm32f30x_tim.o (symbol from plugin)
TIM_SetCompare1                                   obj/main/BETAFLIGHTF3/stm32f30x_tim.o (symbol from plugin)
TIM_SetCompare2                                   obj/main/BETAFLIGHTF3/stm32f30x_tim.o (symbol from plugin)
TIM_SetCompare3                                   obj/main/BETAFLIGHTF3/stm32f30x_tim.o (symbol from plugin)
TIM_SetCompare4                                   obj/main/BETAFLIGHTF3/stm32f30x_tim.o (symbol from plugin)
TIM_SetCompare5                                   obj/main/BETAFLIGHTF3/stm32f30x_tim.o (symbol from plugin)
TIM_SetCompare6                                   obj/main/BETAFLIGHTF3/stm32f30x_tim.o (symbol from plugin)
TIM_SetCounter                                    obj/main/BETAFLIGHTF3/stm32f30x_tim.o (symbol from plugin)
                                                  obj/main/BETAFLIGHTF3/drivers/serial_escserial.o (symbol from plugin)
                                                  obj/main/BETAFLIGHTF3/drivers/serial_softserial.o (symbol from plugin)
                                                  obj/main/BETAFLIGHTF3/drivers/light_ws2811strip_stdperiph.o (symbol from plugin)
TIM_SetIC1Prescaler                               obj/main/BETAFLIGHTF3/stm32f30x_tim.o (symbol from plugin)
TIM_SetIC2Prescaler                               obj/main/BETAFLIGHTF3/stm32f30x_tim.o (symbol from plugin)
TIM_SetIC3Prescaler                               obj/main/BETAFLIGHTF3/stm32f30x_tim.o (symbol from plugin)
TIM_SetIC4Prescaler                               obj/main/BETAFLIGHTF3/stm32f30x_tim.o (symbol from plugin)
TIM_TIxExternalClockConfig                        obj/main/BETAFLIGHTF3/stm32f30x_tim.o (symbol from plugin)
TIM_TimeBaseInit                                  obj/main/BETAFLIGHTF3/stm32f30x_tim.o (symbol from plugin)
                                                  obj/main/BETAFLIGHTF3/drivers/timer.o (symbol from plugin)
                                                  obj/main/BETAFLIGHTF3/drivers/pwm_output_dshot.o (symbol from plugin)
                                                  obj/main/BETAFLIGHTF3/drivers/light_ws2811strip_stdperiph.o (symbol from plugin)
TIM_TimeBaseInit.constprop.225                    C:\cygwin64\tmp\ccTUqUH8.ltrans6.ltrans.o
                                                  C:\cygwin64\tmp\ccTUqUH8.ltrans5.ltrans.o
TIM_TimeBaseStructInit                            obj/main/BETAFLIGHTF3/stm32f30x_tim.o (symbol from plugin)
                                                  obj/main/BETAFLIGHTF3/drivers/timer.o (symbol from plugin)
                                                  obj/main/BETAFLIGHTF3/drivers/pwm_output_dshot.o (symbol from plugin)
                                                  obj/main/BETAFLIGHTF3/drivers/light_ws2811strip_stdperiph.o (symbol from plugin)
TIM_UIFRemap                                      obj/main/BETAFLIGHTF3/stm32f30x_tim.o (symbol from plugin)
TIM_UpdateDisableConfig                           obj/main/BETAFLIGHTF3/stm32f30x_tim.o (symbol from plugin)
TIM_UpdateRequestConfig                           obj/main/BETAFLIGHTF3/stm32f30x_tim.o (symbol from plugin)
ToWord                                            obj/main/BETAFLIGHTF3/usb_regs.o (symbol from plugin)
ToggleDTOG_RX                                     obj/main/BETAFLIGHTF3/usb_regs.o (symbol from plugin)
ToggleDTOG_TX                                     obj/main/BETAFLIGHTF3/usb_regs.o (symbol from plugin)
UART4_IRQHandler                                  obj/main/BETAFLIGHTF3/startup_stm32f30x_md_gcc.o
UART5_IRQHandler                                  obj/main/BETAFLIGHTF3/startup_stm32f30x_md_gcc.o
USART1_IRQHandler                                 C:\cygwin64\tmp\ccTUqUH8.ltrans0.ltrans.o
                                                  obj/main/BETAFLIGHTF3/drivers/serial_uart.o (symbol from plugin)
                                                  obj/main/BETAFLIGHTF3/startup_stm32f30x_md_gcc.o
USART2_IRQHandler                                 C:\cygwin64\tmp\ccTUqUH8.ltrans0.ltrans.o
                                                  obj/main/BETAFLIGHTF3/drivers/serial_uart.o (symbol from plugin)
                                                  obj/main/BETAFLIGHTF3/startup_stm32f30x_md_gcc.o
USART3_IRQHandler                                 C:\cygwin64\tmp\ccTUqUH8.ltrans0.ltrans.o
                                                  obj/main/BETAFLIGHTF3/drivers/serial_uart.o (symbol from plugin)
                                                  obj/main/BETAFLIGHTF3/startup_stm32f30x_md_gcc.o
USART_AddressDetectionConfig                      obj/main/BETAFLIGHTF3/stm32f30x_usart.o (symbol from plugin)
USART_AutoBaudRateCmd                             obj/main/BETAFLIGHTF3/stm32f30x_usart.o (symbol from plugin)
USART_AutoBaudRateConfig                          obj/main/BETAFLIGHTF3/stm32f30x_usart.o (symbol from plugin)
USART_ClearFlag                                   obj/main/BETAFLIGHTF3/stm32f30x_usart.o (symbol from plugin)
USART_ClearITPendingBit                           obj/main/BETAFLIGHTF3/stm32f30x_usart.o (symbol from plugin)
                                                  obj/main/BETAFLIGHTF3/drivers/serial_uart_stm32f30x.o (symbol from plugin)
                                                  obj/main/BETAFLIGHTF3/drivers/serial_uart_init.o (symbol from plugin)
USART_ClockInit                                   obj/main/BETAFLIGHTF3/stm32f30x_usart.o (symbol from plugin)
USART_ClockStructInit                             obj/main/BETAFLIGHTF3/stm32f30x_usart.o (symbol from plugin)
USART_Cmd                                         obj/main/BETAFLIGHTF3/stm32f30x_usart.o (symbol from plugin)
                                                  obj/main/BETAFLIGHTF3/drivers/serial_uart_init.o (symbol from plugin)
USART_DECmd                                       obj/main/BETAFLIGHTF3/stm32f30x_usart.o (symbol from plugin)
USART_DEPolarityConfig                            obj/main/BETAFLIGHTF3/stm32f30x_usart.o (symbol from plugin)
USART_DMACmd                                      obj/main/BETAFLIGHTF3/stm32f30x_usart.o (symbol from plugin)
                                                  obj/main/BETAFLIGHTF3/drivers/serial_uart_init.o (symbol from plugin)
USART_DMAReceptionErrorConfig                     obj/main/BETAFLIGHTF3/stm32f30x_usart.o (symbol from plugin)
USART_DataInvCmd                                  obj/main/BETAFLIGHTF3/stm32f30x_usart.o (symbol from plugin)
USART_DeInit                                      obj/main/BETAFLIGHTF3/stm32f30x_usart.o (symbol from plugin)
USART_DirectionModeCmd                            obj/main/BETAFLIGHTF3/stm32f30x_usart.o (symbol from plugin)
USART_GetFlagStatus                               obj/main/BETAFLIGHTF3/stm32f30x_usart.o (symbol from plugin)
USART_GetITStatus                                 obj/main/BETAFLIGHTF3/stm32f30x_usart.o (symbol from plugin)
USART_HalfDuplexCmd                               obj/main/BETAFLIGHTF3/stm32f30x_usart.o (symbol from plugin)
                                                  obj/main/BETAFLIGHTF3/drivers/serial_uart_init.o (symbol from plugin)
USART_ITConfig                                    obj/main/BETAFLIGHTF3/stm32f30x_usart.o (symbol from plugin)
                                                  obj/main/BETAFLIGHTF3/drivers/serial_uart.o (symbol from plugin)
                                                  obj/main/BETAFLIGHTF3/drivers/serial_uart_stm32f30x.o (symbol from plugin)
                                                  obj/main/BETAFLIGHTF3/drivers/serial_uart_init.o (symbol from plugin)
USART_Init                                        C:\cygwin64\tmp\ccTUqUH8.ltrans2.ltrans.o
                                                  obj/main/BETAFLIGHTF3/stm32f30x_usart.o (symbol from plugin)
                                                  C:\cygwin64\tmp\ccTUqUH8.ltrans5.ltrans.o
                                                  C:\cygwin64\tmp\ccTUqUH8.ltrans4.ltrans.o
                                                  C:\cygwin64\tmp\ccTUqUH8.ltrans0.ltrans.o
                                                  obj/main/BETAFLIGHTF3/drivers/serial_uart_init.o (symbol from plugin)
USART_InvPinCmd                                   obj/main/BETAFLIGHTF3/stm32f30x_usart.o (symbol from plugin)
                                                  obj/main/BETAFLIGHTF3/drivers/serial_uart_init.o (symbol from plugin)
USART_IrDACmd                                     obj/main/BETAFLIGHTF3/stm32f30x_usart.o (symbol from plugin)
USART_IrDAConfig                                  obj/main/BETAFLIGHTF3/stm32f30x_usart.o (symbol from plugin)
USART_LINBreakDetectLengthConfig                  obj/main/BETAFLIGHTF3/stm32f30x_usart.o (symbol from plugin)
USART_LINCmd                                      obj/main/BETAFLIGHTF3/stm32f30x_usart.o (symbol from plugin)
USART_MSBFirstCmd                                 obj/main/BETAFLIGHTF3/stm32f30x_usart.o (symbol from plugin)
USART_MuteModeCmd                                 obj/main/BETAFLIGHTF3/stm32f30x_usart.o (symbol from plugin)
USART_MuteModeWakeUpConfig                        obj/main/BETAFLIGHTF3/stm32f30x_usart.o (symbol from plugin)
USART_OneBitMethodCmd                             obj/main/BETAFLIGHTF3/stm32f30x_usart.o (symbol from plugin)
USART_OverSampling8Cmd                            obj/main/BETAFLIGHTF3/stm32f30x_usart.o (symbol from plugin)
USART_OverrunDetectionConfig                      obj/main/BETAFLIGHTF3/stm32f30x_usart.o (symbol from plugin)
USART_ReceiveData                                 obj/main/BETAFLIGHTF3/stm32f30x_usart.o (symbol from plugin)
USART_ReceiverTimeOutCmd                          obj/main/BETAFLIGHTF3/stm32f30x_usart.o (symbol from plugin)
USART_RequestCmd                                  obj/main/BETAFLIGHTF3/stm32f30x_usart.o (symbol from plugin)
USART_STOPModeCmd                                 obj/main/BETAFLIGHTF3/stm32f30x_usart.o (symbol from plugin)
USART_SWAPPinCmd                                  obj/main/BETAFLIGHTF3/stm32f30x_usart.o (symbol from plugin)
USART_SendData                                    obj/main/BETAFLIGHTF3/stm32f30x_usart.o (symbol from plugin)
                                                  obj/main/BETAFLIGHTF3/drivers/serial_uart_stm32f30x.o (symbol from plugin)
USART_SetAddress                                  obj/main/BETAFLIGHTF3/stm32f30x_usart.o (symbol from plugin)
USART_SetAutoRetryCount                           obj/main/BETAFLIGHTF3/stm32f30x_usart.o (symbol from plugin)
USART_SetBlockLength                              obj/main/BETAFLIGHTF3/stm32f30x_usart.o (symbol from plugin)
USART_SetDEAssertionTime                          obj/main/BETAFLIGHTF3/stm32f30x_usart.o (symbol from plugin)
USART_SetDEDeassertionTime                        obj/main/BETAFLIGHTF3/stm32f30x_usart.o (symbol from plugin)
USART_SetGuardTime                                obj/main/BETAFLIGHTF3/stm32f30x_usart.o (symbol from plugin)
USART_SetPrescaler                                obj/main/BETAFLIGHTF3/stm32f30x_usart.o (symbol from plugin)
USART_SetReceiverTimeOut                          obj/main/BETAFLIGHTF3/stm32f30x_usart.o (symbol from plugin)
USART_SmartCardCmd                                obj/main/BETAFLIGHTF3/stm32f30x_usart.o (symbol from plugin)
USART_SmartCardNACKCmd                            obj/main/BETAFLIGHTF3/stm32f30x_usart.o (symbol from plugin)
USART_StopModeWakeUpSourceConfig                  obj/main/BETAFLIGHTF3/stm32f30x_usart.o (symbol from plugin)
USART_StructInit                                  obj/main/BETAFLIGHTF3/stm32f30x_usart.o (symbol from plugin)
USBWakeUp_IRQHandler                              C:\cygwin64\tmp\ccTUqUH8.ltrans6.ltrans.o
                                                  obj/main/BETAFLIGHTF3/vcp/stm32_it.o (symbol from plugin)
                                                  obj/main/BETAFLIGHTF3/startup_stm32f30x_md_gcc.o
USBWakeUp_RMP_IRQHandler                          obj/main/BETAFLIGHTF3/startup_stm32f30x_md_gcc.o
USB_Cable_Config                                  obj/main/BETAFLIGHTF3/vcp/hw_config.o (symbol from plugin)
                                                  obj/main/BETAFLIGHTF3/vcp/usb_pwr.o (symbol from plugin)
USB_HP_CAN1_TX_IRQHandler                         obj/main/BETAFLIGHTF3/startup_stm32f30x_md_gcc.o
USB_HP_IRQHandler                                 obj/main/BETAFLIGHTF3/startup_stm32f30x_md_gcc.o
USB_Init                                          obj/main/BETAFLIGHTF3/usb_init.o (symbol from plugin)
                                                  obj/main/BETAFLIGHTF3/drivers/serial_usb_vcp.o (symbol from plugin)
USB_Interrupts_Config                             C:\cygwin64\tmp\ccTUqUH8.ltrans6.ltrans.o
                                                  obj/main/BETAFLIGHTF3/vcp/hw_config.o (symbol from plugin)
                                                  C:\cygwin64\tmp\ccTUqUH8.ltrans4.ltrans.o
                                                  obj/main/BETAFLIGHTF3/drivers/serial_usb_vcp.o (symbol from plugin)
USB_Istr                                          obj/main/BETAFLIGHTF3/vcp/usb_istr.o (symbol from plugin)
                                                  obj/main/BETAFLIGHTF3/vcp/stm32_it.o (symbol from plugin)
USB_LP_CAN1_RX0_IRQHandler                        C:\cygwin64\tmp\ccTUqUH8.ltrans6.ltrans.o
                                                  obj/main/BETAFLIGHTF3/vcp/stm32_it.o (symbol from plugin)
                                                  obj/main/BETAFLIGHTF3/startup_stm32f30x_md_gcc.o
USB_LP_IRQHandler                                 obj/main/BETAFLIGHTF3/startup_stm32f30x_md_gcc.o
USB_SIL_Init                                      obj/main/BETAFLIGHTF3/usb_sil.o (symbol from plugin)
                                                  obj/main/BETAFLIGHTF3/vcp/usb_prop.o (symbol from plugin)
USB_SIL_Read                                      obj/main/BETAFLIGHTF3/usb_sil.o (symbol from plugin)
USB_SIL_Write                                     obj/main/BETAFLIGHTF3/usb_sil.o (symbol from plugin)
UsageFault_Handler                                C:\cygwin64\tmp\ccTUqUH8.ltrans6.ltrans.o
                                                  obj/main/BETAFLIGHTF3/vcp/stm32_it.o (symbol from plugin)
                                                  obj/main/BETAFLIGHTF3/startup_stm32f30x_md_gcc.o
UserToPMABufferCopy                               obj/main/BETAFLIGHTF3/usb_mem.o (symbol from plugin)
                                                  obj/main/BETAFLIGHTF3/vcp/hw_config.o (symbol from plugin)
                                                  obj/main/BETAFLIGHTF3/usb_sil.o (symbol from plugin)
                                                  obj/main/BETAFLIGHTF3/usb_core.o (symbol from plugin)
User_Standard_Requests                            obj/main/BETAFLIGHTF3/vcp/usb_prop.o (symbol from plugin)
                                                  obj/main/BETAFLIGHTF3/usb_init.o (symbol from plugin)
Virtual_Com_Port_ConfigDescriptor                 obj/main/BETAFLIGHTF3/vcp/usb_desc.o (symbol from plugin)
                                                  obj/main/BETAFLIGHTF3/vcp/usb_prop.o (symbol from plugin)
Virtual_Com_Port_Data_Setup                       obj/main/BETAFLIGHTF3/vcp/usb_prop.o (symbol from plugin)
Virtual_Com_Port_DeviceDescriptor                 obj/main/BETAFLIGHTF3/vcp/usb_desc.o (symbol from plugin)
                                                  obj/main/BETAFLIGHTF3/vcp/usb_prop.o (symbol from plugin)
Virtual_Com_Port_GetBaudRate                      obj/main/BETAFLIGHTF3/vcp/usb_prop.o (symbol from plugin)
                                                  obj/main/BETAFLIGHTF3/vcp/hw_config.o (symbol from plugin)
Virtual_Com_Port_GetConfigDescriptor              obj/main/BETAFLIGHTF3/vcp/usb_prop.o (symbol from plugin)
Virtual_Com_Port_GetDeviceDescriptor              obj/main/BETAFLIGHTF3/vcp/usb_prop.o (symbol from plugin)
Virtual_Com_Port_GetLineCoding                    obj/main/BETAFLIGHTF3/vcp/usb_prop.o (symbol from plugin)
Virtual_Com_Port_GetStringDescriptor              obj/main/BETAFLIGHTF3/vcp/usb_prop.o (symbol from plugin)
Virtual_Com_Port_Get_Interface_Setting            obj/main/BETAFLIGHTF3/vcp/usb_prop.o (symbol from plugin)
Virtual_Com_Port_NoData_Setup                     obj/main/BETAFLIGHTF3/vcp/usb_prop.o (symbol from plugin)
Virtual_Com_Port_Reset                            obj/main/BETAFLIGHTF3/vcp/usb_prop.o (symbol from plugin)
Virtual_Com_Port_SetConfiguration                 C:\cygwin64\tmp\ccTUqUH8.ltrans6.ltrans.o
                                                  obj/main/BETAFLIGHTF3/vcp/usb_prop.o (symbol from plugin)
                                                  C:\cygwin64\tmp\ccTUqUH8.ltrans4.ltrans.o
Virtual_Com_Port_SetDeviceAddress                 C:\cygwin64\tmp\ccTUqUH8.ltrans6.ltrans.o
                                                  obj/main/BETAFLIGHTF3/vcp/usb_prop.o (symbol from plugin)
                                                  C:\cygwin64\tmp\ccTUqUH8.ltrans4.ltrans.o
Virtual_Com_Port_SetLineCoding                    obj/main/BETAFLIGHTF3/vcp/usb_prop.o (symbol from plugin)
Virtual_Com_Port_Status_In                        obj/main/BETAFLIGHTF3/vcp/usb_prop.o (symbol from plugin)
Virtual_Com_Port_Status_Out                       obj/main/BETAFLIGHTF3/vcp/usb_prop.o (symbol from plugin)
Virtual_Com_Port_StringLangID                     obj/main/BETAFLIGHTF3/vcp/usb_desc.o (symbol from plugin)
                                                  obj/main/BETAFLIGHTF3/vcp/usb_prop.o (symbol from plugin)
Virtual_Com_Port_StringProduct                    obj/main/BETAFLIGHTF3/vcp/usb_desc.o (symbol from plugin)
                                                  obj/main/BETAFLIGHTF3/vcp/usb_prop.o (symbol from plugin)
Virtual_Com_Port_StringSerial                     obj/main/BETAFLIGHTF3/vcp/usb_desc.o (symbol from plugin)
                                                  obj/main/BETAFLIGHTF3/vcp/usb_prop.o (symbol from plugin)
                                                  obj/main/BETAFLIGHTF3/vcp/hw_config.o (symbol from plugin)
Virtual_Com_Port_StringVendor                     obj/main/BETAFLIGHTF3/vcp/usb_desc.o (symbol from plugin)
                                                  obj/main/BETAFLIGHTF3/vcp/usb_prop.o (symbol from plugin)
Virtual_Com_Port_init                             obj/main/BETAFLIGHTF3/vcp/usb_prop.o (symbol from plugin)
WWDG_ClearFlag                                    obj/main/BETAFLIGHTF3/stm32f30x_wwdg.o (symbol from plugin)
WWDG_DeInit                                       obj/main/BETAFLIGHTF3/stm32f30x_wwdg.o (symbol from plugin)
WWDG_Enable                                       obj/main/BETAFLIGHTF3/stm32f30x_wwdg.o (symbol from plugin)
WWDG_EnableIT                                     obj/main/BETAFLIGHTF3/stm32f30x_wwdg.o (symbol from plugin)
WWDG_GetFlagStatus                                obj/main/BETAFLIGHTF3/stm32f30x_wwdg.o (symbol from plugin)
WWDG_IRQHandler                                   obj/main/BETAFLIGHTF3/startup_stm32f30x_md_gcc.o
WWDG_SetCounter                                   obj/main/BETAFLIGHTF3/stm32f30x_wwdg.o (symbol from plugin)
WWDG_SetPrescaler                                 obj/main/BETAFLIGHTF3/stm32f30x_wwdg.o (symbol from plugin)
WWDG_SetWindowValue                               obj/main/BETAFLIGHTF3/stm32f30x_wwdg.o (symbol from plugin)
WriteByteCrc.lto_priv.407                         C:\cygwin64\tmp\ccTUqUH8.ltrans3.ltrans.o
                                                  C:\cygwin64\tmp\ccTUqUH8.ltrans1.ltrans.o
XN297_UnscramblePayload                           obj/main/BETAFLIGHTF3/drivers/rx/rx_xn297.o (symbol from plugin)
XN297_WritePayload                                obj/main/BETAFLIGHTF3/drivers/rx/rx_xn297.o (symbol from plugin)
_CMD_SPI_MULTI_EX.constprop.30                    C:\cygwin64\tmp\ccTUqUH8.ltrans6.ltrans.o
                                                  C:\cygwin64\tmp\ccTUqUH8.ltrans1.ltrans.o
_Min_Stack_Size                                   C:\cygwin64\tmp\ccTUqUH8.ltrans3.ltrans.o
                                                  obj/main/BETAFLIGHTF3/drivers/stack_check.o (symbol from plugin)
_PathLocale                                       d:/gcc-arm-none-eabi-7-2017-q4-major-win32/bin/../lib/gcc/arm-none-eabi/7.2.1/../../../../arm-none-eabi/lib/thumb/v7e-m/fpv4-sp/hard\libc_nano.a(lib_a-locale.o)
__adddf3                                          d:/gcc-arm-none-eabi-7-2017-q4-major-win32/bin/../lib/gcc/arm-none-eabi/7.2.1/thumb/v7e-m/fpv4-sp/hard\libgcc.a(_arm_addsubdf3.o)
__aeabi_cdcmpeq                                   d:/gcc-arm-none-eabi-7-2017-q4-major-win32/bin/../lib/gcc/arm-none-eabi/7.2.1/thumb/v7e-m/fpv4-sp/hard\libgcc.a(_arm_cmpdf2.o)
__aeabi_cdcmple                                   d:/gcc-arm-none-eabi-7-2017-q4-major-win32/bin/../lib/gcc/arm-none-eabi/7.2.1/thumb/v7e-m/fpv4-sp/hard\libgcc.a(_arm_cmpdf2.o)
__aeabi_cdrcmple                                  d:/gcc-arm-none-eabi-7-2017-q4-major-win32/bin/../lib/gcc/arm-none-eabi/7.2.1/thumb/v7e-m/fpv4-sp/hard\libgcc.a(_arm_cmpdf2.o)
__aeabi_d2f                                       d:/gcc-arm-none-eabi-7-2017-q4-major-win32/bin/../lib/gcc/arm-none-eabi/7.2.1/thumb/v7e-m/fpv4-sp/hard\libgcc.a(_arm_truncdfsf2.o)
                                                  d:/gcc-arm-none-eabi-7-2017-q4-major-win32/bin/../lib/gcc/arm-none-eabi/7.2.1/../../../../arm-none-eabi/lib/thumb/v7e-m/fpv4-sp/hard\libm.a(lib_a-sf_pow.o)
                                                  d:/gcc-arm-none-eabi-7-2017-q4-major-win32/bin/../lib/gcc/arm-none-eabi/7.2.1/../../../../arm-none-eabi/lib/thumb/v7e-m/fpv4-sp/hard\libm.a(lib_a-sf_log2.o)
__aeabi_d2uiz                                     d:/gcc-arm-none-eabi-7-2017-q4-major-win32/bin/../lib/gcc/arm-none-eabi/7.2.1/thumb/v7e-m/fpv4-sp/hard\libgcc.a(_arm_fixunsdfsi.o)
                                                  C:\cygwin64\tmp\ccTUqUH8.ltrans5.ltrans.o
__aeabi_dadd                                      d:/gcc-arm-none-eabi-7-2017-q4-major-win32/bin/../lib/gcc/arm-none-eabi/7.2.1/thumb/v7e-m/fpv4-sp/hard\libgcc.a(_arm_addsubdf3.o)
                                                  d:/gcc-arm-none-eabi-7-2017-q4-major-win32/bin/../lib/gcc/arm-none-eabi/7.2.1/../../../../arm-none-eabi/lib/thumb/v7e-m/fpv4-sp/hard\libm.a(lib_a-sf_pow.o)
                                                  d:/gcc-arm-none-eabi-7-2017-q4-major-win32/bin/../lib/gcc/arm-none-eabi/7.2.1/../../../../arm-none-eabi/lib/thumb/v7e-m/fpv4-sp/hard\libm.a(lib_a-sf_log2.o)
                                                  d:/gcc-arm-none-eabi-7-2017-q4-major-win32/bin/../lib/gcc/arm-none-eabi/7.2.1/../../../../arm-none-eabi/lib/thumb/v7e-m/fpv4-sp/hard\libm.a(lib_a-s_ceil.o)
__aeabi_dcmpeq                                    d:/gcc-arm-none-eabi-7-2017-q4-major-win32/bin/../lib/gcc/arm-none-eabi/7.2.1/thumb/v7e-m/fpv4-sp/hard\libgcc.a(_arm_cmpdf2.o)
__aeabi_dcmpge                                    d:/gcc-arm-none-eabi-7-2017-q4-major-win32/bin/../lib/gcc/arm-none-eabi/7.2.1/thumb/v7e-m/fpv4-sp/hard\libgcc.a(_arm_cmpdf2.o)
__aeabi_dcmpgt                                    d:/gcc-arm-none-eabi-7-2017-q4-major-win32/bin/../lib/gcc/arm-none-eabi/7.2.1/thumb/v7e-m/fpv4-sp/hard\libgcc.a(_arm_cmpdf2.o)
                                                  d:/gcc-arm-none-eabi-7-2017-q4-major-win32/bin/../lib/gcc/arm-none-eabi/7.2.1/../../../../arm-none-eabi/lib/thumb/v7e-m/fpv4-sp/hard\libm.a(lib_a-sf_pow.o)
                                                  d:/gcc-arm-none-eabi-7-2017-q4-major-win32/bin/../lib/gcc/arm-none-eabi/7.2.1/../../../../arm-none-eabi/lib/thumb/v7e-m/fpv4-sp/hard\libm.a(lib_a-s_ceil.o)
__aeabi_dcmple                                    d:/gcc-arm-none-eabi-7-2017-q4-major-win32/bin/../lib/gcc/arm-none-eabi/7.2.1/thumb/v7e-m/fpv4-sp/hard\libgcc.a(_arm_cmpdf2.o)
                                                  d:/gcc-arm-none-eabi-7-2017-q4-major-win32/bin/../lib/gcc/arm-none-eabi/7.2.1/../../../../arm-none-eabi/lib/thumb/v7e-m/fpv4-sp/hard\libm.a(lib_a-sf_pow.o)
__aeabi_dcmplt                                    d:/gcc-arm-none-eabi-7-2017-q4-major-win32/bin/../lib/gcc/arm-none-eabi/7.2.1/thumb/v7e-m/fpv4-sp/hard\libgcc.a(_arm_cmpdf2.o)
                                                  d:/gcc-arm-none-eabi-7-2017-q4-major-win32/bin/../lib/gcc/arm-none-eabi/7.2.1/../../../../arm-none-eabi/lib/thumb/v7e-m/fpv4-sp/hard\libm.a(lib_a-sf_pow.o)
__aeabi_ddiv                                      d:/gcc-arm-none-eabi-7-2017-q4-major-win32/bin/../lib/gcc/arm-none-eabi/7.2.1/thumb/v7e-m/fpv4-sp/hard\libgcc.a(_arm_muldivdf3.o)
__aeabi_dmul                                      d:/gcc-arm-none-eabi-7-2017-q4-major-win32/bin/../lib/gcc/arm-none-eabi/7.2.1/thumb/v7e-m/fpv4-sp/hard\libgcc.a(_arm_muldivdf3.o)
                                                  d:/gcc-arm-none-eabi-7-2017-q4-major-win32/bin/../lib/gcc/arm-none-eabi/7.2.1/../../../../arm-none-eabi/lib/thumb/v7e-m/fpv4-sp/hard\libm.a(lib_a-sf_pow.o)
                                                  d:/gcc-arm-none-eabi-7-2017-q4-major-win32/bin/../lib/gcc/arm-none-eabi/7.2.1/../../../../arm-none-eabi/lib/thumb/v7e-m/fpv4-sp/hard\libm.a(lib_a-sf_log2.o)
__aeabi_drsub                                     d:/gcc-arm-none-eabi-7-2017-q4-major-win32/bin/../lib/gcc/arm-none-eabi/7.2.1/thumb/v7e-m/fpv4-sp/hard\libgcc.a(_arm_addsubdf3.o)
__aeabi_dsub                                      d:/gcc-arm-none-eabi-7-2017-q4-major-win32/bin/../lib/gcc/arm-none-eabi/7.2.1/thumb/v7e-m/fpv4-sp/hard\libgcc.a(_arm_addsubdf3.o)
                                                  d:/gcc-arm-none-eabi-7-2017-q4-major-win32/bin/../lib/gcc/arm-none-eabi/7.2.1/../../../../arm-none-eabi/lib/thumb/v7e-m/fpv4-sp/hard\libm.a(lib_a-sf_pow.o)
                                                  d:/gcc-arm-none-eabi-7-2017-q4-major-win32/bin/../lib/gcc/arm-none-eabi/7.2.1/../../../../arm-none-eabi/lib/thumb/v7e-m/fpv4-sp/hard\libm.a(lib_a-sf_log2.o)
__aeabi_f2d                                       d:/gcc-arm-none-eabi-7-2017-q4-major-win32/bin/../lib/gcc/arm-none-eabi/7.2.1/thumb/v7e-m/fpv4-sp/hard\libgcc.a(_arm_addsubdf3.o)
                                                  d:/gcc-arm-none-eabi-7-2017-q4-major-win32/bin/../lib/gcc/arm-none-eabi/7.2.1/../../../../arm-none-eabi/lib/thumb/v7e-m/fpv4-sp/hard\libm.a(lib_a-sf_pow.o)
                                                  d:/gcc-arm-none-eabi-7-2017-q4-major-win32/bin/../lib/gcc/arm-none-eabi/7.2.1/../../../../arm-none-eabi/lib/thumb/v7e-m/fpv4-sp/hard\libm.a(lib_a-sf_log2.o)
                                                  C:\cygwin64\tmp\ccTUqUH8.ltrans5.ltrans.o
__aeabi_i2d                                       d:/gcc-arm-none-eabi-7-2017-q4-major-win32/bin/../lib/gcc/arm-none-eabi/7.2.1/thumb/v7e-m/fpv4-sp/hard\libgcc.a(_arm_addsubdf3.o)
                                                  d:/gcc-arm-none-eabi-7-2017-q4-major-win32/bin/../lib/gcc/arm-none-eabi/7.2.1/../../../../arm-none-eabi/lib/thumb/v7e-m/fpv4-sp/hard\libm.a(lib_a-sf_pow.o)
                                                  d:/gcc-arm-none-eabi-7-2017-q4-major-win32/bin/../lib/gcc/arm-none-eabi/7.2.1/../../../../arm-none-eabi/lib/thumb/v7e-m/fpv4-sp/hard\libm.a(lib_a-sf_log2.o)
__aeabi_idiv0                                     d:/gcc-arm-none-eabi-7-2017-q4-major-win32/bin/../lib/gcc/arm-none-eabi/7.2.1/thumb/v7e-m/fpv4-sp/hard\libgcc.a(_dvmd_tls.o)
__aeabi_l2d                                       d:/gcc-arm-none-eabi-7-2017-q4-major-win32/bin/../lib/gcc/arm-none-eabi/7.2.1/thumb/v7e-m/fpv4-sp/hard\libgcc.a(_arm_addsubdf3.o)
__aeabi_ldiv0                                     d:/gcc-arm-none-eabi-7-2017-q4-major-win32/bin/../lib/gcc/arm-none-eabi/7.2.1/thumb/v7e-m/fpv4-sp/hard\libgcc.a(_dvmd_tls.o)
                                                  d:/gcc-arm-none-eabi-7-2017-q4-major-win32/bin/../lib/gcc/arm-none-eabi/7.2.1/thumb/v7e-m/fpv4-sp/hard\libgcc.a(_aeabi_ldivmod.o)
__aeabi_ldivmod                                   d:/gcc-arm-none-eabi-7-2017-q4-major-win32/bin/../lib/gcc/arm-none-eabi/7.2.1/thumb/v7e-m/fpv4-sp/hard\libgcc.a(_aeabi_ldivmod.o)
                                                  C:\cygwin64\tmp\ccTUqUH8.ltrans5.ltrans.o
__aeabi_ui2d                                      d:/gcc-arm-none-eabi-7-2017-q4-major-win32/bin/../lib/gcc/arm-none-eabi/7.2.1/thumb/v7e-m/fpv4-sp/hard\libgcc.a(_arm_addsubdf3.o)
__aeabi_ul2d                                      d:/gcc-arm-none-eabi-7-2017-q4-major-win32/bin/../lib/gcc/arm-none-eabi/7.2.1/thumb/v7e-m/fpv4-sp/hard\libgcc.a(_arm_addsubdf3.o)
__ascii_mbtowc                                    d:/gcc-arm-none-eabi-7-2017-q4-major-win32/bin/../lib/gcc/arm-none-eabi/7.2.1/../../../../arm-none-eabi/lib/thumb/v7e-m/fpv4-sp/hard\libc_nano.a(lib_a-mbtowc_r.o)
                                                  d:/gcc-arm-none-eabi-7-2017-q4-major-win32/bin/../lib/gcc/arm-none-eabi/7.2.1/../../../../arm-none-eabi/lib/thumb/v7e-m/fpv4-sp/hard\libc_nano.a(lib_a-locale.o)
__ascii_wctomb                                    d:/gcc-arm-none-eabi-7-2017-q4-major-win32/bin/../lib/gcc/arm-none-eabi/7.2.1/../../../../arm-none-eabi/lib/thumb/v7e-m/fpv4-sp/hard\libc_nano.a(lib_a-wctomb_r.o)
                                                  d:/gcc-arm-none-eabi-7-2017-q4-major-win32/bin/../lib/gcc/arm-none-eabi/7.2.1/../../../../arm-none-eabi/lib/thumb/v7e-m/fpv4-sp/hard\libc_nano.a(lib_a-locale.o)
__cmpdf2                                          d:/gcc-arm-none-eabi-7-2017-q4-major-win32/bin/../lib/gcc/arm-none-eabi/7.2.1/thumb/v7e-m/fpv4-sp/hard\libgcc.a(_arm_cmpdf2.o)
__config_end                                      C:\cygwin64\tmp\ccTUqUH8.ltrans5.ltrans.o
                                                  C:\cygwin64\tmp\ccTUqUH8.ltrans3.ltrans.o
                                                  C:\cygwin64\tmp\ccTUqUH8.ltrans0.ltrans.o
                                                  obj/main/BETAFLIGHTF3/interface/cli.o (symbol from plugin)
                                                  obj/main/BETAFLIGHTF3/config/config_eeprom.o (symbol from plugin)
__config_start                                    C:\cygwin64\tmp\ccTUqUH8.ltrans5.ltrans.o
                                                  C:\cygwin64\tmp\ccTUqUH8.ltrans3.ltrans.o
                                                  C:\cygwin64\tmp\ccTUqUH8.ltrans0.ltrans.o
                                                  obj/main/BETAFLIGHTF3/interface/cli.o (symbol from plugin)
                                                  obj/main/BETAFLIGHTF3/config/config_eeprom.o (symbol from plugin)
__divdf3                                          d:/gcc-arm-none-eabi-7-2017-q4-major-win32/bin/../lib/gcc/arm-none-eabi/7.2.1/thumb/v7e-m/fpv4-sp/hard\libgcc.a(_arm_muldivdf3.o)
__eqdf2                                           d:/gcc-arm-none-eabi-7-2017-q4-major-win32/bin/../lib/gcc/arm-none-eabi/7.2.1/thumb/v7e-m/fpv4-sp/hard\libgcc.a(_arm_cmpdf2.o)
__errno                                           d:/gcc-arm-none-eabi-7-2017-q4-major-win32/bin/../lib/gcc/arm-none-eabi/7.2.1/../../../../arm-none-eabi/lib/thumb/v7e-m/fpv4-sp/hard\libc_nano.a(lib_a-errno.o)
                                                  d:/gcc-arm-none-eabi-7-2017-q4-major-win32/bin/../lib/gcc/arm-none-eabi/7.2.1/../../../../arm-none-eabi/lib/thumb/v7e-m/fpv4-sp/hard\libm.a(lib_a-math_errf.o)
__exp2f_data                                      d:/gcc-arm-none-eabi-7-2017-q4-major-win32/bin/../lib/gcc/arm-none-eabi/7.2.1/../../../../arm-none-eabi/lib/thumb/v7e-m/fpv4-sp/hard\libm.a(lib_a-sf_exp2_data.o)
                                                  d:/gcc-arm-none-eabi-7-2017-q4-major-win32/bin/../lib/gcc/arm-none-eabi/7.2.1/../../../../arm-none-eabi/lib/thumb/v7e-m/fpv4-sp/hard\libm.a(lib_a-sf_pow.o)
__extendsfdf2                                     d:/gcc-arm-none-eabi-7-2017-q4-major-win32/bin/../lib/gcc/arm-none-eabi/7.2.1/thumb/v7e-m/fpv4-sp/hard\libgcc.a(_arm_addsubdf3.o)
__fixunsdfsi                                      d:/gcc-arm-none-eabi-7-2017-q4-major-win32/bin/../lib/gcc/arm-none-eabi/7.2.1/thumb/v7e-m/fpv4-sp/hard\libgcc.a(_arm_fixunsdfsi.o)
__floatdidf                                       d:/gcc-arm-none-eabi-7-2017-q4-major-win32/bin/../lib/gcc/arm-none-eabi/7.2.1/thumb/v7e-m/fpv4-sp/hard\libgcc.a(_arm_addsubdf3.o)
__floatsidf                                       d:/gcc-arm-none-eabi-7-2017-q4-major-win32/bin/../lib/gcc/arm-none-eabi/7.2.1/thumb/v7e-m/fpv4-sp/hard\libgcc.a(_arm_addsubdf3.o)
__floatundidf                                     d:/gcc-arm-none-eabi-7-2017-q4-major-win32/bin/../lib/gcc/arm-none-eabi/7.2.1/thumb/v7e-m/fpv4-sp/hard\libgcc.a(_arm_addsubdf3.o)
__floatunsidf                                     d:/gcc-arm-none-eabi-7-2017-q4-major-win32/bin/../lib/gcc/arm-none-eabi/7.2.1/thumb/v7e-m/fpv4-sp/hard\libgcc.a(_arm_addsubdf3.o)
__gedf2                                           d:/gcc-arm-none-eabi-7-2017-q4-major-win32/bin/../lib/gcc/arm-none-eabi/7.2.1/thumb/v7e-m/fpv4-sp/hard\libgcc.a(_arm_cmpdf2.o)
__global_locale                                   d:/gcc-arm-none-eabi-7-2017-q4-major-win32/bin/../lib/gcc/arm-none-eabi/7.2.1/../../../../arm-none-eabi/lib/thumb/v7e-m/fpv4-sp/hard\libc_nano.a(lib_a-locale.o)
                                                  d:/gcc-arm-none-eabi-7-2017-q4-major-win32/bin/../lib/gcc/arm-none-eabi/7.2.1/../../../../arm-none-eabi/lib/thumb/v7e-m/fpv4-sp/hard\libc_nano.a(lib_a-wctomb_r.o)
                                                  d:/gcc-arm-none-eabi-7-2017-q4-major-win32/bin/../lib/gcc/arm-none-eabi/7.2.1/../../../../arm-none-eabi/lib/thumb/v7e-m/fpv4-sp/hard\libc_nano.a(lib_a-mbtowc_r.o)
                                                  d:/gcc-arm-none-eabi-7-2017-q4-major-win32/bin/../lib/gcc/arm-none-eabi/7.2.1/../../../../arm-none-eabi/lib/thumb/v7e-m/fpv4-sp/hard\libc_nano.a(lib_a-strtol.o)
__gtdf2                                           d:/gcc-arm-none-eabi-7-2017-q4-major-win32/bin/../lib/gcc/arm-none-eabi/7.2.1/thumb/v7e-m/fpv4-sp/hard\libgcc.a(_arm_cmpdf2.o)
__ledf2                                           d:/gcc-arm-none-eabi-7-2017-q4-major-win32/bin/../lib/gcc/arm-none-eabi/7.2.1/thumb/v7e-m/fpv4-sp/hard\libgcc.a(_arm_cmpdf2.o)
__locale_ctype_ptr                                d:/gcc-arm-none-eabi-7-2017-q4-major-win32/bin/../lib/gcc/arm-none-eabi/7.2.1/../../../../arm-none-eabi/lib/thumb/v7e-m/fpv4-sp/hard\libc_nano.a(lib_a-locale.o)
__locale_ctype_ptr_l                              d:/gcc-arm-none-eabi-7-2017-q4-major-win32/bin/../lib/gcc/arm-none-eabi/7.2.1/../../../../arm-none-eabi/lib/thumb/v7e-m/fpv4-sp/hard\libc_nano.a(lib_a-locale.o)
                                                  d:/gcc-arm-none-eabi-7-2017-q4-major-win32/bin/../lib/gcc/arm-none-eabi/7.2.1/../../../../arm-none-eabi/lib/thumb/v7e-m/fpv4-sp/hard\libc_nano.a(lib_a-strtol.o)
__locale_mb_cur_max                               d:/gcc-arm-none-eabi-7-2017-q4-major-win32/bin/../lib/gcc/arm-none-eabi/7.2.1/../../../../arm-none-eabi/lib/thumb/v7e-m/fpv4-sp/hard\libc_nano.a(lib_a-locale.o)
__log2f_data                                      d:/gcc-arm-none-eabi-7-2017-q4-major-win32/bin/../lib/gcc/arm-none-eabi/7.2.1/../../../../arm-none-eabi/lib/thumb/v7e-m/fpv4-sp/hard\libm.a(lib_a-sf_log2_data.o)
                                                  d:/gcc-arm-none-eabi-7-2017-q4-major-win32/bin/../lib/gcc/arm-none-eabi/7.2.1/../../../../arm-none-eabi/lib/thumb/v7e-m/fpv4-sp/hard\libm.a(lib_a-sf_log2.o)
__ltdf2                                           d:/gcc-arm-none-eabi-7-2017-q4-major-win32/bin/../lib/gcc/arm-none-eabi/7.2.1/thumb/v7e-m/fpv4-sp/hard\libgcc.a(_arm_cmpdf2.o)
__malloc_free_list                                d:/gcc-arm-none-eabi-7-2017-q4-major-win32/bin/../lib/gcc/arm-none-eabi/7.2.1/../../../../arm-none-eabi/lib/thumb/v7e-m/fpv4-sp/hard\libc_nano.a(lib_a-nano-mallocr.o)
                                                  d:/gcc-arm-none-eabi-7-2017-q4-major-win32/bin/../lib/gcc/arm-none-eabi/7.2.1/../../../../arm-none-eabi/lib/thumb/v7e-m/fpv4-sp/hard\libc_nano.a(lib_a-nano-freer.o)
__malloc_lock                                     d:/gcc-arm-none-eabi-7-2017-q4-major-win32/bin/../lib/gcc/arm-none-eabi/7.2.1/../../../../arm-none-eabi/lib/thumb/v7e-m/fpv4-sp/hard\libc_nano.a(lib_a-mlock.o)
                                                  d:/gcc-arm-none-eabi-7-2017-q4-major-win32/bin/../lib/gcc/arm-none-eabi/7.2.1/../../../../arm-none-eabi/lib/thumb/v7e-m/fpv4-sp/hard\libc_nano.a(lib_a-nano-mallocr.o)
                                                  d:/gcc-arm-none-eabi-7-2017-q4-major-win32/bin/../lib/gcc/arm-none-eabi/7.2.1/../../../../arm-none-eabi/lib/thumb/v7e-m/fpv4-sp/hard\libc_nano.a(lib_a-nano-freer.o)
__malloc_sbrk_start                               d:/gcc-arm-none-eabi-7-2017-q4-major-win32/bin/../lib/gcc/arm-none-eabi/7.2.1/../../../../arm-none-eabi/lib/thumb/v7e-m/fpv4-sp/hard\libc_nano.a(lib_a-nano-mallocr.o)
__malloc_unlock                                   d:/gcc-arm-none-eabi-7-2017-q4-major-win32/bin/../lib/gcc/arm-none-eabi/7.2.1/../../../../arm-none-eabi/lib/thumb/v7e-m/fpv4-sp/hard\libc_nano.a(lib_a-mlock.o)
                                                  d:/gcc-arm-none-eabi-7-2017-q4-major-win32/bin/../lib/gcc/arm-none-eabi/7.2.1/../../../../arm-none-eabi/lib/thumb/v7e-m/fpv4-sp/hard\libc_nano.a(lib_a-nano-mallocr.o)
                                                  d:/gcc-arm-none-eabi-7-2017-q4-major-win32/bin/../lib/gcc/arm-none-eabi/7.2.1/../../../../arm-none-eabi/lib/thumb/v7e-m/fpv4-sp/hard\libc_nano.a(lib_a-nano-freer.o)
__math_divzerof                                   d:/gcc-arm-none-eabi-7-2017-q4-major-win32/bin/../lib/gcc/arm-none-eabi/7.2.1/../../../../arm-none-eabi/lib/thumb/v7e-m/fpv4-sp/hard\libm.a(lib_a-math_errf.o)
                                                  d:/gcc-arm-none-eabi-7-2017-q4-major-win32/bin/../lib/gcc/arm-none-eabi/7.2.1/../../../../arm-none-eabi/lib/thumb/v7e-m/fpv4-sp/hard\libm.a(lib_a-sf_pow.o)
                                                  d:/gcc-arm-none-eabi-7-2017-q4-major-win32/bin/../lib/gcc/arm-none-eabi/7.2.1/../../../../arm-none-eabi/lib/thumb/v7e-m/fpv4-sp/hard\libm.a(lib_a-sf_log2.o)
__math_invalidf                                   d:/gcc-arm-none-eabi-7-2017-q4-major-win32/bin/../lib/gcc/arm-none-eabi/7.2.1/../../../../arm-none-eabi/lib/thumb/v7e-m/fpv4-sp/hard\libm.a(lib_a-math_errf.o)
                                                  d:/gcc-arm-none-eabi-7-2017-q4-major-win32/bin/../lib/gcc/arm-none-eabi/7.2.1/../../../../arm-none-eabi/lib/thumb/v7e-m/fpv4-sp/hard\libm.a(lib_a-sf_pow.o)
                                                  d:/gcc-arm-none-eabi-7-2017-q4-major-win32/bin/../lib/gcc/arm-none-eabi/7.2.1/../../../../arm-none-eabi/lib/thumb/v7e-m/fpv4-sp/hard\libm.a(lib_a-sf_log2.o)
__math_may_uflowf                                 d:/gcc-arm-none-eabi-7-2017-q4-major-win32/bin/../lib/gcc/arm-none-eabi/7.2.1/../../../../arm-none-eabi/lib/thumb/v7e-m/fpv4-sp/hard\libm.a(lib_a-math_errf.o)
                                                  d:/gcc-arm-none-eabi-7-2017-q4-major-win32/bin/../lib/gcc/arm-none-eabi/7.2.1/../../../../arm-none-eabi/lib/thumb/v7e-m/fpv4-sp/hard\libm.a(lib_a-sf_pow.o)
__math_oflowf                                     d:/gcc-arm-none-eabi-7-2017-q4-major-win32/bin/../lib/gcc/arm-none-eabi/7.2.1/../../../../arm-none-eabi/lib/thumb/v7e-m/fpv4-sp/hard\libm.a(lib_a-math_errf.o)
                                                  d:/gcc-arm-none-eabi-7-2017-q4-major-win32/bin/../lib/gcc/arm-none-eabi/7.2.1/../../../../arm-none-eabi/lib/thumb/v7e-m/fpv4-sp/hard\libm.a(lib_a-sf_pow.o)
__math_uflowf                                     d:/gcc-arm-none-eabi-7-2017-q4-major-win32/bin/../lib/gcc/arm-none-eabi/7.2.1/../../../../arm-none-eabi/lib/thumb/v7e-m/fpv4-sp/hard\libm.a(lib_a-math_errf.o)
                                                  d:/gcc-arm-none-eabi-7-2017-q4-major-win32/bin/../lib/gcc/arm-none-eabi/7.2.1/../../../../arm-none-eabi/lib/thumb/v7e-m/fpv4-sp/hard\libm.a(lib_a-sf_pow.o)
__muldf3                                          d:/gcc-arm-none-eabi-7-2017-q4-major-win32/bin/../lib/gcc/arm-none-eabi/7.2.1/thumb/v7e-m/fpv4-sp/hard\libgcc.a(_arm_muldivdf3.o)
__nedf2                                           d:/gcc-arm-none-eabi-7-2017-q4-major-win32/bin/../lib/gcc/arm-none-eabi/7.2.1/thumb/v7e-m/fpv4-sp/hard\libgcc.a(_arm_cmpdf2.o)
__pg_registry_end                                 C:\cygwin64\tmp\ccTUqUH8.ltrans5.ltrans.o
                                                  C:\cygwin64\tmp\ccTUqUH8.ltrans4.ltrans.o
                                                  C:\cygwin64\tmp\ccTUqUH8.ltrans3.ltrans.o
                                                  C:\cygwin64\tmp\ccTUqUH8.ltrans0.ltrans.o
                                                  obj/main/BETAFLIGHTF3/interface/cli.o (symbol from plugin)
                                                  obj/main/BETAFLIGHTF3/pg/pg.o (symbol from plugin)
                                                  obj/main/BETAFLIGHTF3/config/config_eeprom.o (symbol from plugin)
__pg_registry_start                               C:\cygwin64\tmp\ccTUqUH8.ltrans5.ltrans.o
                                                  C:\cygwin64\tmp\ccTUqUH8.ltrans4.ltrans.o
                                                  C:\cygwin64\tmp\ccTUqUH8.ltrans3.ltrans.o
                                                  C:\cygwin64\tmp\ccTUqUH8.ltrans0.ltrans.o
                                                  obj/main/BETAFLIGHTF3/interface/cli.o (symbol from plugin)
                                                  obj/main/BETAFLIGHTF3/pg/pg.o (symbol from plugin)
                                                  obj/main/BETAFLIGHTF3/config/config_eeprom.o (symbol from plugin)
__pg_resetdata_end                                C:\cygwin64\tmp\ccTUqUH8.ltrans4.ltrans.o
                                                  obj/main/BETAFLIGHTF3/pg/pg.o (symbol from plugin)
__pg_resetdata_start                              C:\cygwin64\tmp\ccTUqUH8.ltrans4.ltrans.o
                                                  obj/main/BETAFLIGHTF3/pg/pg.o (symbol from plugin)
__popcountsi2                                     d:/gcc-arm-none-eabi-7-2017-q4-major-win32/bin/../lib/gcc/arm-none-eabi/7.2.1/thumb/v7e-m/fpv4-sp/hard\libgcc.a(_popcountsi2.o)
                                                  C:\cygwin64\tmp\ccTUqUH8.ltrans6.ltrans.o
                                                  C:\cygwin64\tmp\ccTUqUH8.ltrans5.ltrans.o
                                                  C:\cygwin64\tmp\ccTUqUH8.ltrans0.ltrans.o
__powf_log2_data                                  d:/gcc-arm-none-eabi-7-2017-q4-major-win32/bin/../lib/gcc/arm-none-eabi/7.2.1/../../../../arm-none-eabi/lib/thumb/v7e-m/fpv4-sp/hard\libm.a(lib_a-sf_pow_log2_data.o)
                                                  d:/gcc-arm-none-eabi-7-2017-q4-major-win32/bin/../lib/gcc/arm-none-eabi/7.2.1/../../../../arm-none-eabi/lib/thumb/v7e-m/fpv4-sp/hard\libm.a(lib_a-sf_pow.o)
__sf_fake_stderr                                  d:/gcc-arm-none-eabi-7-2017-q4-major-win32/bin/../lib/gcc/arm-none-eabi/7.2.1/../../../../arm-none-eabi/lib/thumb/v7e-m/fpv4-sp/hard\libc_nano.a(lib_a-impure.o)
__sf_fake_stdin                                   d:/gcc-arm-none-eabi-7-2017-q4-major-win32/bin/../lib/gcc/arm-none-eabi/7.2.1/../../../../arm-none-eabi/lib/thumb/v7e-m/fpv4-sp/hard\libc_nano.a(lib_a-impure.o)
__sf_fake_stdout                                  d:/gcc-arm-none-eabi-7-2017-q4-major-win32/bin/../lib/gcc/arm-none-eabi/7.2.1/../../../../arm-none-eabi/lib/thumb/v7e-m/fpv4-sp/hard\libc_nano.a(lib_a-impure.o)
__strtok_r                                        d:/gcc-arm-none-eabi-7-2017-q4-major-win32/bin/../lib/gcc/arm-none-eabi/7.2.1/../../../../arm-none-eabi/lib/thumb/v7e-m/fpv4-sp/hard\libc_nano.a(lib_a-strtok_r.o)
                                                  d:/gcc-arm-none-eabi-7-2017-q4-major-win32/bin/../lib/gcc/arm-none-eabi/7.2.1/../../../../arm-none-eabi/lib/thumb/v7e-m/fpv4-sp/hard\libc_nano.a(lib_a-strtok.o)
__subdf3                                          d:/gcc-arm-none-eabi-7-2017-q4-major-win32/bin/../lib/gcc/arm-none-eabi/7.2.1/thumb/v7e-m/fpv4-sp/hard\libgcc.a(_arm_addsubdf3.o)
__truncdfsf2                                      d:/gcc-arm-none-eabi-7-2017-q4-major-win32/bin/../lib/gcc/arm-none-eabi/7.2.1/thumb/v7e-m/fpv4-sp/hard\libgcc.a(_arm_truncdfsf2.o)
__udivmoddi4                                      d:/gcc-arm-none-eabi-7-2017-q4-major-win32/bin/../lib/gcc/arm-none-eabi/7.2.1/thumb/v7e-m/fpv4-sp/hard\libgcc.a(_udivmoddi4.o)
                                                  d:/gcc-arm-none-eabi-7-2017-q4-major-win32/bin/../lib/gcc/arm-none-eabi/7.2.1/thumb/v7e-m/fpv4-sp/hard\libgcc.a(_aeabi_ldivmod.o)
_atoi_r                                           d:/gcc-arm-none-eabi-7-2017-q4-major-win32/bin/../lib/gcc/arm-none-eabi/7.2.1/../../../../arm-none-eabi/lib/thumb/v7e-m/fpv4-sp/hard\libc_nano.a(lib_a-atoi.o)
_crc_xmodem_update                                obj/main/BETAFLIGHTF3/io/serial_4way.o (symbol from plugin)
_ctype_                                           d:/gcc-arm-none-eabi-7-2017-q4-major-win32/bin/../lib/gcc/arm-none-eabi/7.2.1/../../../../arm-none-eabi/lib/thumb/v7e-m/fpv4-sp/hard\libc_nano.a(lib_a-ctype_.o)
                                                  d:/gcc-arm-none-eabi-7-2017-q4-major-win32/bin/../lib/gcc/arm-none-eabi/7.2.1/../../../../arm-none-eabi/lib/thumb/v7e-m/fpv4-sp/hard\libc_nano.a(lib_a-locale.o)
_ebss                                             obj/main/BETAFLIGHTF3/startup_stm32f30x_md_gcc.o
_edata                                            obj/main/BETAFLIGHTF3/startup_stm32f30x_md_gcc.o
_estack                                           C:\cygwin64\tmp\ccTUqUH8.ltrans3.ltrans.o
                                                  obj/main/BETAFLIGHTF3/drivers/stack_check.o (symbol from plugin)
                                                  obj/main/BETAFLIGHTF3/startup_stm32f30x_md_gcc.o
_free_r                                           d:/gcc-arm-none-eabi-7-2017-q4-major-win32/bin/../lib/gcc/arm-none-eabi/7.2.1/../../../../arm-none-eabi/lib/thumb/v7e-m/fpv4-sp/hard\libc_nano.a(lib_a-nano-freer.o)
                                                  d:/gcc-arm-none-eabi-7-2017-q4-major-win32/bin/../lib/gcc/arm-none-eabi/7.2.1/../../../../arm-none-eabi/lib/thumb/v7e-m/fpv4-sp/hard\libc_nano.a(lib_a-reent.o)
                                                  d:/gcc-arm-none-eabi-7-2017-q4-major-win32/bin/../lib/gcc/arm-none-eabi/7.2.1/../../../../arm-none-eabi/lib/thumb/v7e-m/fpv4-sp/hard\libc_nano.a(lib_a-malloc.o)
_global_impure_ptr                                d:/gcc-arm-none-eabi-7-2017-q4-major-win32/bin/../lib/gcc/arm-none-eabi/7.2.1/../../../../arm-none-eabi/lib/thumb/v7e-m/fpv4-sp/hard\libc_nano.a(lib_a-impure.o)
_i2a.lto_priv.261                                 C:\cygwin64\tmp\ccTUqUH8.ltrans5.ltrans.o
                                                  C:\cygwin64\tmp\ccTUqUH8.ltrans6.ltrans.o
_impure_ptr                                       d:/gcc-arm-none-eabi-7-2017-q4-major-win32/bin/../lib/gcc/arm-none-eabi/7.2.1/../../../../arm-none-eabi/lib/thumb/v7e-m/fpv4-sp/hard\libc_nano.a(lib_a-impure.o)
                                                  d:/gcc-arm-none-eabi-7-2017-q4-major-win32/bin/../lib/gcc/arm-none-eabi/7.2.1/../../../../arm-none-eabi/lib/thumb/v7e-m/fpv4-sp/hard\libc_nano.a(lib_a-errno.o)
                                                  d:/gcc-arm-none-eabi-7-2017-q4-major-win32/bin/../lib/gcc/arm-none-eabi/7.2.1/../../../../arm-none-eabi/lib/thumb/v7e-m/fpv4-sp/hard\libc_nano.a(lib_a-reent.o)
                                                  d:/gcc-arm-none-eabi-7-2017-q4-major-win32/bin/../lib/gcc/arm-none-eabi/7.2.1/../../../../arm-none-eabi/lib/thumb/v7e-m/fpv4-sp/hard\libc_nano.a(lib_a-wctomb_r.o)
                                                  d:/gcc-arm-none-eabi-7-2017-q4-major-win32/bin/../lib/gcc/arm-none-eabi/7.2.1/../../../../arm-none-eabi/lib/thumb/v7e-m/fpv4-sp/hard\libc_nano.a(lib_a-mbtowc_r.o)
                                                  d:/gcc-arm-none-eabi-7-2017-q4-major-win32/bin/../lib/gcc/arm-none-eabi/7.2.1/../../../../arm-none-eabi/lib/thumb/v7e-m/fpv4-sp/hard\libc_nano.a(lib_a-malloc.o)
                                                  d:/gcc-arm-none-eabi-7-2017-q4-major-win32/bin/../lib/gcc/arm-none-eabi/7.2.1/../../../../arm-none-eabi/lib/thumb/v7e-m/fpv4-sp/hard\libc_nano.a(lib_a-locale.o)
                                                  d:/gcc-arm-none-eabi-7-2017-q4-major-win32/bin/../lib/gcc/arm-none-eabi/7.2.1/../../../../arm-none-eabi/lib/thumb/v7e-m/fpv4-sp/hard\libc_nano.a(lib_a-strtol.o)
                                                  d:/gcc-arm-none-eabi-7-2017-q4-major-win32/bin/../lib/gcc/arm-none-eabi/7.2.1/../../../../arm-none-eabi/lib/thumb/v7e-m/fpv4-sp/hard\libc_nano.a(lib_a-strtok.o)
_malloc_r                                         d:/gcc-arm-none-eabi-7-2017-q4-major-win32/bin/../lib/gcc/arm-none-eabi/7.2.1/../../../../arm-none-eabi/lib/thumb/v7e-m/fpv4-sp/hard\libc_nano.a(lib_a-nano-mallocr.o)
                                                  d:/gcc-arm-none-eabi-7-2017-q4-major-win32/bin/../lib/gcc/arm-none-eabi/7.2.1/../../../../arm-none-eabi/lib/thumb/v7e-m/fpv4-sp/hard\libc_nano.a(lib_a-malloc.o)
_mbtowc_r                                         d:/gcc-arm-none-eabi-7-2017-q4-major-win32/bin/../lib/gcc/arm-none-eabi/7.2.1/../../../../arm-none-eabi/lib/thumb/v7e-m/fpv4-sp/hard\libc_nano.a(lib_a-mbtowc_r.o)
_putc.lto_priv.483                                C:\cygwin64\tmp\ccTUqUH8.ltrans5.ltrans.o
                                                  C:\cygwin64\tmp\ccTUqUH8.ltrans4.ltrans.o
_reclaim_reent                                    d:/gcc-arm-none-eabi-7-2017-q4-major-win32/bin/../lib/gcc/arm-none-eabi/7.2.1/../../../../arm-none-eabi/lib/thumb/v7e-m/fpv4-sp/hard\libc_nano.a(lib_a-reent.o)
_reset_template_123.11263.lto_priv.494            C:\cygwin64\tmp\ccTUqUH8.ltrans3.ltrans.o
                                                  C:\cygwin64\tmp\ccTUqUH8.ltrans4.ltrans.o
_sbrk                                             d:/gcc-arm-none-eabi-7-2017-q4-major-win32/bin/../lib/gcc/arm-none-eabi/7.2.1/../../../../arm-none-eabi/lib/thumb/v7e-m/fpv4-sp/hard\libnosys.a(sbrk.o)
                                                  d:/gcc-arm-none-eabi-7-2017-q4-major-win32/bin/../lib/gcc/arm-none-eabi/7.2.1/../../../../arm-none-eabi/lib/thumb/v7e-m/fpv4-sp/hard\libc_nano.a(lib_a-sbrkr.o)
_sbrk_r                                           d:/gcc-arm-none-eabi-7-2017-q4-major-win32/bin/../lib/gcc/arm-none-eabi/7.2.1/../../../../arm-none-eabi/lib/thumb/v7e-m/fpv4-sp/hard\libc_nano.a(lib_a-sbrkr.o)
                                                  d:/gcc-arm-none-eabi-7-2017-q4-major-win32/bin/../lib/gcc/arm-none-eabi/7.2.1/../../../../arm-none-eabi/lib/thumb/v7e-m/fpv4-sp/hard\libc_nano.a(lib_a-nano-mallocr.o)
_sbss                                             obj/main/BETAFLIGHTF3/startup_stm32f30x_md_gcc.o
_sdata                                            obj/main/BETAFLIGHTF3/startup_stm32f30x_md_gcc.o
_setlocale_r                                      d:/gcc-arm-none-eabi-7-2017-q4-major-win32/bin/../lib/gcc/arm-none-eabi/7.2.1/../../../../arm-none-eabi/lib/thumb/v7e-m/fpv4-sp/hard\libc_nano.a(lib_a-locale.o)
_sidata                                           obj/main/BETAFLIGHTF3/startup_stm32f30x_md_gcc.o
_strtol_r                                         d:/gcc-arm-none-eabi-7-2017-q4-major-win32/bin/../lib/gcc/arm-none-eabi/7.2.1/../../../../arm-none-eabi/lib/thumb/v7e-m/fpv4-sp/hard\libc_nano.a(lib_a-strtol.o)
                                                  d:/gcc-arm-none-eabi-7-2017-q4-major-win32/bin/../lib/gcc/arm-none-eabi/7.2.1/../../../../arm-none-eabi/lib/thumb/v7e-m/fpv4-sp/hard\libc_nano.a(lib_a-atoi.o)
_wctomb_r                                         d:/gcc-arm-none-eabi-7-2017-q4-major-win32/bin/../lib/gcc/arm-none-eabi/7.2.1/../../../../arm-none-eabi/lib/thumb/v7e-m/fpv4-sp/hard\libc_nano.a(lib_a-wctomb_r.o)
a2d                                               obj/main/BETAFLIGHTF3/common/typeconversion.o (symbol from plugin)
a2i                                               obj/main/BETAFLIGHTF3/common/typeconversion.o (symbol from plugin)
                                                  obj/main/BETAFLIGHTF3/common/printf.o (symbol from plugin)
a2i.constprop.191                                 C:\cygwin64\tmp\ccTUqUH8.ltrans6.ltrans.o
                                                  C:\cygwin64\tmp\ccTUqUH8.ltrans5.ltrans.o
acc                                               C:\cygwin64\tmp\ccTUqUH8.ltrans2.ltrans.o
                                                  obj/main/BETAFLIGHTF3/sensors/acceleration.o (symbol from plugin)
                                                  C:\cygwin64\tmp\ccTUqUH8.ltrans3.ltrans.o
                                                  C:\cygwin64\tmp\ccTUqUH8.ltrans1.ltrans.o
                                                  C:\cygwin64\tmp\ccTUqUH8.ltrans0.ltrans.o
                                                  obj/main/BETAFLIGHTF3/telemetry/smartport.o (symbol from plugin)
                                                  obj/main/BETAFLIGHTF3/telemetry/frsky_hub.o (symbol from plugin)
                                                  obj/main/BETAFLIGHTF3/blackbox/blackbox.o (symbol from plugin)
                                                  obj/main/BETAFLIGHTF3/flight/imu.o (symbol from plugin)
                                                  obj/main/BETAFLIGHTF3/interface/msp.o (symbol from plugin)
                                                  obj/main/BETAFLIGHTF3/fc/fc_tasks.o (symbol from plugin)
accDetect                                         obj/main/BETAFLIGHTF3/sensors/acceleration.o (symbol from plugin)
accFilter.lto_priv.615                            C:\cygwin64\tmp\ccTUqUH8.ltrans1.ltrans.o
                                                  C:\cygwin64\tmp\ccTUqUH8.ltrans0.ltrans.o
accGetAccumulationAverage                         obj/main/BETAFLIGHTF3/sensors/acceleration.o (symbol from plugin)
                                                  obj/main/BETAFLIGHTF3/flight/imu.o (symbol from plugin)
accInit                                           C:\cygwin64\tmp\ccTUqUH8.ltrans1.ltrans.o
                                                  obj/main/BETAFLIGHTF3/sensors/acceleration.o (symbol from plugin)
                                                  C:\cygwin64\tmp\ccTUqUH8.ltrans4.ltrans.o
                                                  obj/main/BETAFLIGHTF3/sensors/initialisation.o (symbol from plugin)
accInitFilters                                    C:\cygwin64\tmp\ccTUqUH8.ltrans1.ltrans.o
                                                  obj/main/BETAFLIGHTF3/sensors/acceleration.o (symbol from plugin)
                                                  C:\cygwin64\tmp\ccTUqUH8.ltrans4.ltrans.o
                                                  C:\cygwin64\tmp\ccTUqUH8.ltrans0.ltrans.o
                                                  obj/main/BETAFLIGHTF3/fc/fc_init.o (symbol from plugin)
                                                  obj/main/BETAFLIGHTF3/fc/config.o (symbol from plugin)
accIsCalibrationComplete                          obj/main/BETAFLIGHTF3/sensors/acceleration.o (symbol from plugin)
                                                  obj/main/BETAFLIGHTF3/fc/fc_core.o (symbol from plugin)
accLpfCutHz.lto_priv.614                          C:\cygwin64\tmp\ccTUqUH8.ltrans1.ltrans.o
                                                  C:\cygwin64\tmp\ccTUqUH8.ltrans0.ltrans.o
accResetFlightDynamicsTrims                       obj/main/BETAFLIGHTF3/sensors/acceleration.o (symbol from plugin)
accResetRollAndPitchTrims                         obj/main/BETAFLIGHTF3/sensors/acceleration.o (symbol from plugin)
accSetCalibrationCycles                           obj/main/BETAFLIGHTF3/sensors/acceleration.o (symbol from plugin)
                                                  obj/main/BETAFLIGHTF3/fc/rc_controls.o (symbol from plugin)
                                                  obj/main/BETAFLIGHTF3/fc/fc_init.o (symbol from plugin)
                                                  obj/main/BETAFLIGHTF3/interface/msp.o (symbol from plugin)
accSum                                            obj/main/BETAFLIGHTF3/flight/imu.o (symbol from plugin)
accSumCount                                       obj/main/BETAFLIGHTF3/flight/imu.o (symbol from plugin)
accTimeSum                                        obj/main/BETAFLIGHTF3/flight/imu.o (symbol from plugin)
accUpdate                                         obj/main/BETAFLIGHTF3/sensors/acceleration.o (symbol from plugin)
                                                  obj/main/BETAFLIGHTF3/fc/fc_tasks.o (symbol from plugin)
accVelScale                                       obj/main/BETAFLIGHTF3/flight/imu.o (symbol from plugin)
accelerometerConfig_Copy                          obj/main/BETAFLIGHTF3/sensors/acceleration.o (symbol from plugin)
accelerometerConfig_Registry                      C:\cygwin64\tmp\ccTUqUH8.ltrans1.ltrans.o
                                                  obj/main/BETAFLIGHTF3/sensors/acceleration.o (symbol from plugin)
accelerometerConfig_System                        C:\cygwin64\tmp\ccTUqUH8.ltrans1.ltrans.o
                                                  obj/main/BETAFLIGHTF3/sensors/acceleration.o (symbol from plugin)
                                                  C:\cygwin64\tmp\ccTUqUH8.ltrans4.ltrans.o
                                                  C:\cygwin64\tmp\ccTUqUH8.ltrans3.ltrans.o
                                                  C:\cygwin64\tmp\ccTUqUH8.ltrans0.ltrans.o
                                                  obj/main/BETAFLIGHTF3/blackbox/blackbox.o (symbol from plugin)
                                                  obj/main/BETAFLIGHTF3/fc/fc_core.o (symbol from plugin)
                                                  obj/main/BETAFLIGHTF3/interface/msp.o (symbol from plugin)
                                                  obj/main/BETAFLIGHTF3/fc/fc_tasks.o (symbol from plugin)
                                                  obj/main/BETAFLIGHTF3/fc/config.o (symbol from plugin)
accumulatedMeasurementCount.lto_priv.616          C:\cygwin64\tmp\ccTUqUH8.ltrans3.ltrans.o
                                                  C:\cygwin64\tmp\ccTUqUH8.ltrans0.ltrans.o
accumulatedMeasurements.lto_priv.421              C:\cygwin64\tmp\ccTUqUH8.ltrans3.ltrans.o
                                                  C:\cygwin64\tmp\ccTUqUH8.ltrans0.ltrans.o
acos_approx                                       obj/main/BETAFLIGHTF3/common/maths.o (symbol from plugin)
                                                  obj/main/BETAFLIGHTF3/flight/imu.o (symbol from plugin)
activateConfig                                    obj/main/BETAFLIGHTF3/fc/config.o (symbol from plugin)
activeBoxIds.lto_priv.556                         C:\cygwin64\tmp\ccTUqUH8.ltrans4.ltrans.o
                                                  C:\cygwin64\tmp\ccTUqUH8.ltrans0.ltrans.o
activeFeaturesLatch.lto_priv.309                  C:\cygwin64\tmp\ccTUqUH8.ltrans6.ltrans.o
                                                  C:\cygwin64\tmp\ccTUqUH8.ltrans5.ltrans.o
                                                  C:\cygwin64\tmp\ccTUqUH8.ltrans4.ltrans.o
                                                  C:\cygwin64\tmp\ccTUqUH8.ltrans3.ltrans.o
                                                  C:\cygwin64\tmp\ccTUqUH8.ltrans2.ltrans.o
                                                  C:\cygwin64\tmp\ccTUqUH8.ltrans1.ltrans.o
                                                  C:\cygwin64\tmp\ccTUqUH8.ltrans0.ltrans.o
adcChannelByTag                                   C:\cygwin64\tmp\ccTUqUH8.ltrans5.ltrans.o
                                                  obj/main/BETAFLIGHTF3/drivers/adc.o (symbol from plugin)
                                                  C:\cygwin64\tmp\ccTUqUH8.ltrans6.ltrans.o
                                                  obj/main/BETAFLIGHTF3/drivers/adc_stm32f30x.o (symbol from plugin)
adcConfig_Copy                                    obj/main/BETAFLIGHTF3/pg/adc.o (symbol from plugin)
adcConfig_Registry                                C:\cygwin64\tmp\ccTUqUH8.ltrans6.ltrans.o
                                                  obj/main/BETAFLIGHTF3/pg/adc.o (symbol from plugin)
adcConfig_System                                  C:\cygwin64\tmp\ccTUqUH8.ltrans6.ltrans.o
                                                  obj/main/BETAFLIGHTF3/pg/adc.o (symbol from plugin)
                                                  C:\cygwin64\tmp\ccTUqUH8.ltrans4.ltrans.o
                                                  obj/main/BETAFLIGHTF3/fc/fc_init.o (symbol from plugin)
adcDeviceByInstance                               obj/main/BETAFLIGHTF3/drivers/adc.o (symbol from plugin)
                                                  obj/main/BETAFLIGHTF3/pg/adc.o (symbol from plugin)
                                                  obj/main/BETAFLIGHTF3/drivers/adc_stm32f30x.o (symbol from plugin)
adcGetChannel                                     obj/main/BETAFLIGHTF3/drivers/adc.o (symbol from plugin)
                                                  obj/main/BETAFLIGHTF3/rx/rx.o (symbol from plugin)
                                                  obj/main/BETAFLIGHTF3/sensors/voltage.o (symbol from plugin)
                                                  obj/main/BETAFLIGHTF3/sensors/current.o (symbol from plugin)
adcHardware                                       obj/main/BETAFLIGHTF3/drivers/adc_stm32f30x.o (symbol from plugin)
adcInit                                           obj/main/BETAFLIGHTF3/drivers/adc_stm32f30x.o (symbol from plugin)
                                                  obj/main/BETAFLIGHTF3/fc/fc_init.o (symbol from plugin)
adcInit.constprop.239                             C:\cygwin64\tmp\ccTUqUH8.ltrans6.ltrans.o
                                                  C:\cygwin64\tmp\ccTUqUH8.ltrans4.ltrans.o
adcOperatingConfig                                C:\cygwin64\tmp\ccTUqUH8.ltrans6.ltrans.o
                                                  obj/main/BETAFLIGHTF3/drivers/adc.o (symbol from plugin)
                                                  C:\cygwin64\tmp\ccTUqUH8.ltrans4.ltrans.o
                                                  C:\cygwin64\tmp\ccTUqUH8.ltrans0.ltrans.o
                                                  obj/main/BETAFLIGHTF3/drivers/adc_stm32f30x.o (symbol from plugin)
adcTagMap                                         obj/main/BETAFLIGHTF3/drivers/adc_stm32f30x.o (symbol from plugin)
                                                  obj/main/BETAFLIGHTF3/drivers/adc.o (symbol from plugin)
adcValues                                         C:\cygwin64\tmp\ccTUqUH8.ltrans6.ltrans.o
                                                  obj/main/BETAFLIGHTF3/drivers/adc.o (symbol from plugin)
                                                  C:\cygwin64\tmp\ccTUqUH8.ltrans4.ltrans.o
                                                  C:\cygwin64\tmp\ccTUqUH8.ltrans0.ltrans.o
                                                  obj/main/BETAFLIGHTF3/drivers/adc_stm32f30x.o (symbol from plugin)
adcVerifyPin                                      C:\cygwin64\tmp\ccTUqUH8.ltrans5.ltrans.o
                                                  obj/main/BETAFLIGHTF3/drivers/adc.o (symbol from plugin)
                                                  C:\cygwin64\tmp\ccTUqUH8.ltrans6.ltrans.o
                                                  obj/main/BETAFLIGHTF3/drivers/adc_stm32f30x.o (symbol from plugin)
adjustmentRanges_CopyArray                        obj/main/BETAFLIGHTF3/fc/rc_adjustments.o (symbol from plugin)
                                                  obj/main/BETAFLIGHTF3/interface/cli.o (symbol from plugin)
adjustmentRanges_Registry                         C:\cygwin64\tmp\ccTUqUH8.ltrans3.ltrans.o
                                                  obj/main/BETAFLIGHTF3/fc/rc_adjustments.o (symbol from plugin)
adjustmentRanges_SystemArray                      C:\cygwin64\tmp\ccTUqUH8.ltrans3.ltrans.o
                                                  obj/main/BETAFLIGHTF3/fc/rc_adjustments.o (symbol from plugin)
                                                  C:\cygwin64\tmp\ccTUqUH8.ltrans4.ltrans.o
                                                  C:\cygwin64\tmp\ccTUqUH8.ltrans0.ltrans.o
                                                  obj/main/BETAFLIGHTF3/interface/cli.o (symbol from plugin)
                                                  obj/main/BETAFLIGHTF3/interface/msp.o (symbol from plugin)
afatfs.lto_priv.299                               C:\cygwin64\tmp\ccTUqUH8.ltrans6.ltrans.o
                                                  C:\cygwin64\tmp\ccTUqUH8.ltrans5.ltrans.o
                                                  C:\cygwin64\tmp\ccTUqUH8.ltrans4.ltrans.o
                                                  C:\cygwin64\tmp\ccTUqUH8.ltrans3.ltrans.o
                                                  C:\cygwin64\tmp\ccTUqUH8.ltrans2.ltrans.o
                                                  C:\cygwin64\tmp\ccTUqUH8.ltrans1.ltrans.o
                                                  C:\cygwin64\tmp\ccTUqUH8.ltrans0.ltrans.o
afatfs_FATFillWithPattern.lto_priv.457            C:\cygwin64\tmp\ccTUqUH8.ltrans2.ltrans.o
                                                  C:\cygwin64\tmp\ccTUqUH8.ltrans3.ltrans.o
afatfs_FATGetNextCluster.constprop.88             C:\cygwin64\tmp\ccTUqUH8.ltrans6.ltrans.o
                                                  C:\cygwin64\tmp\ccTUqUH8.ltrans2.ltrans.o
afatfs_assert.part.0.lto_priv.458                 C:\cygwin64\tmp\ccTUqUH8.ltrans2.ltrans.o
                                                  C:\cygwin64\tmp\ccTUqUH8.ltrans3.ltrans.o
afatfs_cacheSector.lto_priv.289                   C:\cygwin64\tmp\ccTUqUH8.ltrans2.ltrans.o
                                                  C:\cygwin64\tmp\ccTUqUH8.ltrans6.ltrans.o
                                                  C:\cygwin64\tmp\ccTUqUH8.ltrans3.ltrans.o
afatfs_chdir                                      obj/main/BETAFLIGHTF3/io/asyncfatfs/asyncfatfs.o (symbol from plugin)
                                                  obj/main/BETAFLIGHTF3/blackbox/blackbox_io.o (symbol from plugin)
afatfs_chdir.part.19                              C:\cygwin64\tmp\ccTUqUH8.ltrans2.ltrans.o
                                                  C:\cygwin64\tmp\ccTUqUH8.ltrans3.ltrans.o
                                                  C:\cygwin64\tmp\ccTUqUH8.ltrans1.ltrans.o
afatfs_createFile.lto_priv.406                    C:\cygwin64\tmp\ccTUqUH8.ltrans2.ltrans.o
                                                  C:\cygwin64\tmp\ccTUqUH8.ltrans3.ltrans.o
                                                  C:\cygwin64\tmp\ccTUqUH8.ltrans1.ltrans.o
afatfs_destroy                                    obj/main/BETAFLIGHTF3/io/asyncfatfs/asyncfatfs.o (symbol from plugin)
afatfs_fclose                                     C:\cygwin64\tmp\ccTUqUH8.ltrans2.ltrans.o
                                                  obj/main/BETAFLIGHTF3/io/asyncfatfs/asyncfatfs.o (symbol from plugin)
                                                  C:\cygwin64\tmp\ccTUqUH8.ltrans1.ltrans.o
                                                  obj/main/BETAFLIGHTF3/blackbox/blackbox_io.o (symbol from plugin)
afatfs_feof                                       obj/main/BETAFLIGHTF3/io/asyncfatfs/asyncfatfs.o (symbol from plugin)
afatfs_fileOperationContinue.part.18.lto_priv.459 C:\cygwin64\tmp\ccTUqUH8.ltrans2.ltrans.o
                                                  C:\cygwin64\tmp\ccTUqUH8.ltrans3.ltrans.o
afatfs_findClusterWithCondition.lto_priv.460      C:\cygwin64\tmp\ccTUqUH8.ltrans2.ltrans.o
                                                  C:\cygwin64\tmp\ccTUqUH8.ltrans3.ltrans.o
afatfs_findFirst                                  obj/main/BETAFLIGHTF3/io/asyncfatfs/asyncfatfs.o (symbol from plugin)
                                                  obj/main/BETAFLIGHTF3/blackbox/blackbox_io.o (symbol from plugin)
afatfs_findLast                                   obj/main/BETAFLIGHTF3/io/asyncfatfs/asyncfatfs.o (symbol from plugin)
                                                  obj/main/BETAFLIGHTF3/blackbox/blackbox_io.o (symbol from plugin)
afatfs_findNext                                   C:\cygwin64\tmp\ccTUqUH8.ltrans2.ltrans.o
                                                  obj/main/BETAFLIGHTF3/io/asyncfatfs/asyncfatfs.o (symbol from plugin)
                                                  C:\cygwin64\tmp\ccTUqUH8.ltrans1.ltrans.o
                                                  obj/main/BETAFLIGHTF3/blackbox/blackbox_io.o (symbol from plugin)
afatfs_flush                                      obj/main/BETAFLIGHTF3/io/asyncfatfs/asyncfatfs.o (symbol from plugin)
                                                  obj/main/BETAFLIGHTF3/blackbox/blackbox_io.o (symbol from plugin)
afatfs_flush.part.13                              C:\cygwin64\tmp\ccTUqUH8.ltrans2.ltrans.o
                                                  C:\cygwin64\tmp\ccTUqUH8.ltrans3.ltrans.o
                                                  C:\cygwin64\tmp\ccTUqUH8.ltrans1.ltrans.o
afatfs_fopen                                      obj/main/BETAFLIGHTF3/io/asyncfatfs/asyncfatfs.o (symbol from plugin)
                                                  obj/main/BETAFLIGHTF3/blackbox/blackbox_io.o (symbol from plugin)
afatfs_fputc                                      obj/main/BETAFLIGHTF3/io/asyncfatfs/asyncfatfs.o (symbol from plugin)
                                                  obj/main/BETAFLIGHTF3/blackbox/blackbox_io.o (symbol from plugin)
afatfs_fread                                      obj/main/BETAFLIGHTF3/io/asyncfatfs/asyncfatfs.o (symbol from plugin)
afatfs_freeFileCreated.lto_priv.424               C:\cygwin64\tmp\ccTUqUH8.ltrans2.ltrans.o
                                                  C:\cygwin64\tmp\ccTUqUH8.ltrans3.ltrans.o
afatfs_fseek                                      obj/main/BETAFLIGHTF3/io/asyncfatfs/asyncfatfs.o (symbol from plugin)
afatfs_fseek.constprop.56                         C:\cygwin64\tmp\ccTUqUH8.ltrans6.ltrans.o
                                                  C:\cygwin64\tmp\ccTUqUH8.ltrans2.ltrans.o
                                                  C:\cygwin64\tmp\ccTUqUH8.ltrans1.ltrans.o
afatfs_fseekInternal.lto_priv.291                 C:\cygwin64\tmp\ccTUqUH8.ltrans2.ltrans.o
                                                  C:\cygwin64\tmp\ccTUqUH8.ltrans6.ltrans.o
afatfs_ftell                                      obj/main/BETAFLIGHTF3/io/asyncfatfs/asyncfatfs.o (symbol from plugin)
afatfs_ftruncate                                  obj/main/BETAFLIGHTF3/io/asyncfatfs/asyncfatfs.o (symbol from plugin)
afatfs_funlink                                    obj/main/BETAFLIGHTF3/io/asyncfatfs/asyncfatfs.o (symbol from plugin)
                                                  obj/main/BETAFLIGHTF3/blackbox/blackbox_io.o (symbol from plugin)
afatfs_fwrite                                     obj/main/BETAFLIGHTF3/io/asyncfatfs/asyncfatfs.o (symbol from plugin)
                                                  obj/main/BETAFLIGHTF3/blackbox/blackbox_io.o (symbol from plugin)
afatfs_fwrite.part.20                             C:\cygwin64\tmp\ccTUqUH8.ltrans2.ltrans.o
                                                  C:\cygwin64\tmp\ccTUqUH8.ltrans1.ltrans.o
afatfs_getContiguousFreeSpace                     obj/main/BETAFLIGHTF3/io/asyncfatfs/asyncfatfs.o (symbol from plugin)
                                                  obj/main/BETAFLIGHTF3/cms/cms_menu_blackbox.o (symbol from plugin)
                                                  obj/main/BETAFLIGHTF3/interface/msp.o (symbol from plugin)
                                                  obj/main/BETAFLIGHTF3/io/osd.o (symbol from plugin)
afatfs_getFilesystemState                         obj/main/BETAFLIGHTF3/io/asyncfatfs/asyncfatfs.o (symbol from plugin)
                                                  obj/main/BETAFLIGHTF3/cms/cms_menu_blackbox.o (symbol from plugin)
                                                  obj/main/BETAFLIGHTF3/blackbox/blackbox_io.o (symbol from plugin)
                                                  obj/main/BETAFLIGHTF3/interface/cli.o (symbol from plugin)
                                                  obj/main/BETAFLIGHTF3/interface/msp.o (symbol from plugin)
                                                  obj/main/BETAFLIGHTF3/io/osd.o (symbol from plugin)
afatfs_getFreeBufferSpace                         obj/main/BETAFLIGHTF3/io/asyncfatfs/asyncfatfs.o (symbol from plugin)
                                                  obj/main/BETAFLIGHTF3/blackbox/blackbox_io.o (symbol from plugin)
afatfs_getLastError                               obj/main/BETAFLIGHTF3/io/asyncfatfs/asyncfatfs.o (symbol from plugin)
                                                  obj/main/BETAFLIGHTF3/interface/cli.o (symbol from plugin)
                                                  obj/main/BETAFLIGHTF3/interface/msp.o (symbol from plugin)
afatfs_init                                       obj/main/BETAFLIGHTF3/io/asyncfatfs/asyncfatfs.o (symbol from plugin)
                                                  obj/main/BETAFLIGHTF3/fc/fc_init.o (symbol from plugin)
afatfs_isFull                                     obj/main/BETAFLIGHTF3/io/asyncfatfs/asyncfatfs.o (symbol from plugin)
                                                  obj/main/BETAFLIGHTF3/blackbox/blackbox_io.o (symbol from plugin)
afatfs_mkdir                                      obj/main/BETAFLIGHTF3/io/asyncfatfs/asyncfatfs.o (symbol from plugin)
                                                  obj/main/BETAFLIGHTF3/blackbox/blackbox_io.o (symbol from plugin)
afatfs_poll                                       obj/main/BETAFLIGHTF3/io/asyncfatfs/asyncfatfs.o (symbol from plugin)
                                                  obj/main/BETAFLIGHTF3/fc/fc_core.o (symbol from plugin)
afatfs_saveDirectoryEntry.lto_priv.456            C:\cygwin64\tmp\ccTUqUH8.ltrans2.ltrans.o
                                                  C:\cygwin64\tmp\ccTUqUH8.ltrans3.ltrans.o
airmodeWasActivated                               obj/main/BETAFLIGHTF3/io/vtx_smartaudio.o (symbol from plugin)
                                                  obj/main/BETAFLIGHTF3/telemetry/ltm.o (symbol from plugin)
                                                  obj/main/BETAFLIGHTF3/telemetry/smartport.o (symbol from plugin)
                                                  obj/main/BETAFLIGHTF3/telemetry/hott.o (symbol from plugin)
                                                  obj/main/BETAFLIGHTF3/telemetry/frsky_hub.o (symbol from plugin)
                                                  obj/main/BETAFLIGHTF3/io/ledstrip.o (symbol from plugin)
                                                  obj/main/BETAFLIGHTF3/cms/cms_menu_imu.o (symbol from plugin)
                                                  obj/main/BETAFLIGHTF3/blackbox/blackbox_io.o (symbol from plugin)
                                                  obj/main/BETAFLIGHTF3/blackbox/blackbox.o (symbol from plugin)
                                                  obj/main/BETAFLIGHTF3/interface/settings.o (symbol from plugin)
                                                  obj/main/BETAFLIGHTF3/interface/cli.o (symbol from plugin)
                                                  obj/main/BETAFLIGHTF3/flight/servos.o (symbol from plugin)
                                                  obj/main/BETAFLIGHTF3/flight/pid.o (symbol from plugin)
                                                  obj/main/BETAFLIGHTF3/flight/mixer.o (symbol from plugin)
                                                  obj/main/BETAFLIGHTF3/flight/imu.o (symbol from plugin)
                                                  obj/main/BETAFLIGHTF3/flight/failsafe.o (symbol from plugin)
                                                  obj/main/BETAFLIGHTF3/flight/altitude.o (symbol from plugin)
                                                  obj/main/BETAFLIGHTF3/fc/rc_controls.o (symbol from plugin)
                                                  obj/main/BETAFLIGHTF3/fc/rc_adjustments.o (symbol from plugin)
                                                  obj/main/BETAFLIGHTF3/fc/fc_rc.o (symbol from plugin)
                                                  obj/main/BETAFLIGHTF3/fc/fc_core.o (symbol from plugin)
                                                  obj/main/BETAFLIGHTF3/fc/fc_init.o (symbol from plugin)
                                                  obj/main/BETAFLIGHTF3/interface/msp.o (symbol from plugin)
                                                  obj/main/BETAFLIGHTF3/fc/fc_tasks.o (symbol from plugin)
                                                  obj/main/BETAFLIGHTF3/fc/config.o (symbol from plugin)
                                                  obj/main/BETAFLIGHTF3/io/osd.o (symbol from plugin)
alignSensors                                      C:\cygwin64\tmp\ccTUqUH8.ltrans1.ltrans.o
                                                  obj/main/BETAFLIGHTF3/sensors/boardalignment.o (symbol from plugin)
                                                  C:\cygwin64\tmp\ccTUqUH8.ltrans3.ltrans.o
                                                  C:\cygwin64\tmp\ccTUqUH8.ltrans0.ltrans.o
                                                  obj/main/BETAFLIGHTF3/sensors/gyro.o (symbol from plugin)
                                                  obj/main/BETAFLIGHTF3/sensors/acceleration.o (symbol from plugin)
applyAndSaveAccelerometerTrimsDelta               obj/main/BETAFLIGHTF3/fc/fc_core.o (symbol from plugin)
                                                  obj/main/BETAFLIGHTF3/fc/rc_controls.o (symbol from plugin)
applyBetaflightRates                              obj/main/BETAFLIGHTF3/fc/fc_rc.o (symbol from plugin)
applyChangedBits                                  obj/main/BETAFLIGHTF3/drivers/serial_softserial.o (symbol from plugin)
applyDeadband                                     obj/main/BETAFLIGHTF3/common/maths.o (symbol from plugin)
applyRaceFlightRates                              obj/main/BETAFLIGHTF3/fc/fc_rc.o (symbol from plugin)
areMotorsRunning                                  C:\cygwin64\tmp\ccTUqUH8.ltrans3.ltrans.o
                                                  obj/main/BETAFLIGHTF3/flight/mixer.o (symbol from plugin)
                                                  C:\cygwin64\tmp\ccTUqUH8.ltrans4.ltrans.o
                                                  C:\cygwin64\tmp\ccTUqUH8.ltrans1.ltrans.o
                                                  obj/main/BETAFLIGHTF3/blackbox/blackbox.o (symbol from plugin)
                                                  obj/main/BETAFLIGHTF3/io/beeper.o (symbol from plugin)
areSticksInApModePosition                         obj/main/BETAFLIGHTF3/fc/rc_controls.o (symbol from plugin)
armBitRevIndexTable1024                           obj/main/BETAFLIGHTF3/./lib/main/DSP_Lib/Source/CommonTables/arm_common_tables.o (symbol from plugin)
                                                  obj/main/BETAFLIGHTF3/./lib/main/DSP_Lib/Source/TransformFunctions/arm_rfft_fast_init_f32.o (symbol from plugin)
armBitRevIndexTable128                            obj/main/BETAFLIGHTF3/./lib/main/DSP_Lib/Source/CommonTables/arm_common_tables.o (symbol from plugin)
                                                  obj/main/BETAFLIGHTF3/./lib/main/DSP_Lib/Source/TransformFunctions/arm_rfft_fast_init_f32.o (symbol from plugin)
armBitRevIndexTable16                             obj/main/BETAFLIGHTF3/./lib/main/DSP_Lib/Source/CommonTables/arm_common_tables.o (symbol from plugin)
                                                  obj/main/BETAFLIGHTF3/./lib/main/DSP_Lib/Source/TransformFunctions/arm_rfft_fast_init_f32.o (symbol from plugin)
armBitRevIndexTable2048                           obj/main/BETAFLIGHTF3/./lib/main/DSP_Lib/Source/CommonTables/arm_common_tables.o (symbol from plugin)
                                                  obj/main/BETAFLIGHTF3/./lib/main/DSP_Lib/Source/TransformFunctions/arm_rfft_fast_init_f32.o (symbol from plugin)
armBitRevIndexTable256                            obj/main/BETAFLIGHTF3/./lib/main/DSP_Lib/Source/CommonTables/arm_common_tables.o (symbol from plugin)
                                                  obj/main/BETAFLIGHTF3/./lib/main/DSP_Lib/Source/TransformFunctions/arm_rfft_fast_init_f32.o (symbol from plugin)
armBitRevIndexTable32                             obj/main/BETAFLIGHTF3/./lib/main/DSP_Lib/Source/CommonTables/arm_common_tables.o (symbol from plugin)
                                                  obj/main/BETAFLIGHTF3/./lib/main/DSP_Lib/Source/TransformFunctions/arm_rfft_fast_init_f32.o (symbol from plugin)
armBitRevIndexTable4096                           obj/main/BETAFLIGHTF3/./lib/main/DSP_Lib/Source/CommonTables/arm_common_tables.o (symbol from plugin)
armBitRevIndexTable512                            obj/main/BETAFLIGHTF3/./lib/main/DSP_Lib/Source/CommonTables/arm_common_tables.o (symbol from plugin)
                                                  obj/main/BETAFLIGHTF3/./lib/main/DSP_Lib/Source/TransformFunctions/arm_rfft_fast_init_f32.o (symbol from plugin)
armBitRevIndexTable64                             obj/main/BETAFLIGHTF3/./lib/main/DSP_Lib/Source/CommonTables/arm_common_tables.o (symbol from plugin)
                                                  obj/main/BETAFLIGHTF3/./lib/main/DSP_Lib/Source/TransformFunctions/arm_rfft_fast_init_f32.o (symbol from plugin)
armBitRevIndexTable_fixed_1024                    obj/main/BETAFLIGHTF3/./lib/main/DSP_Lib/Source/CommonTables/arm_common_tables.o (symbol from plugin)
armBitRevIndexTable_fixed_128                     obj/main/BETAFLIGHTF3/./lib/main/DSP_Lib/Source/CommonTables/arm_common_tables.o (symbol from plugin)
armBitRevIndexTable_fixed_16                      obj/main/BETAFLIGHTF3/./lib/main/DSP_Lib/Source/CommonTables/arm_common_tables.o (symbol from plugin)
armBitRevIndexTable_fixed_2048                    obj/main/BETAFLIGHTF3/./lib/main/DSP_Lib/Source/CommonTables/arm_common_tables.o (symbol from plugin)
armBitRevIndexTable_fixed_256                     obj/main/BETAFLIGHTF3/./lib/main/DSP_Lib/Source/CommonTables/arm_common_tables.o (symbol from plugin)
armBitRevIndexTable_fixed_32                      obj/main/BETAFLIGHTF3/./lib/main/DSP_Lib/Source/CommonTables/arm_common_tables.o (symbol from plugin)
armBitRevIndexTable_fixed_4096                    obj/main/BETAFLIGHTF3/./lib/main/DSP_Lib/Source/CommonTables/arm_common_tables.o (symbol from plugin)
armBitRevIndexTable_fixed_512                     obj/main/BETAFLIGHTF3/./lib/main/DSP_Lib/Source/CommonTables/arm_common_tables.o (symbol from plugin)
armBitRevIndexTable_fixed_64                      obj/main/BETAFLIGHTF3/./lib/main/DSP_Lib/Source/CommonTables/arm_common_tables.o (symbol from plugin)
armBitRevTable                                    obj/main/BETAFLIGHTF3/./lib/main/DSP_Lib/Source/CommonTables/arm_common_tables.o (symbol from plugin)
armRecipTableQ15                                  obj/main/BETAFLIGHTF3/./lib/main/DSP_Lib/Source/CommonTables/arm_common_tables.o (symbol from plugin)
armRecipTableQ31                                  obj/main/BETAFLIGHTF3/./lib/main/DSP_Lib/Source/CommonTables/arm_common_tables.o (symbol from plugin)
armState.lto_priv.687                             C:\cygwin64\tmp\ccTUqUH8.ltrans4.ltrans.o
                                                  C:\cygwin64\tmp\ccTUqUH8.ltrans5.ltrans.o
arm_bitreversal_16                                obj/main/BETAFLIGHTF3/./lib/main/DSP_Lib/Source/TransformFunctions/arm_bitreversal2.o
arm_bitreversal_32                                obj/main/BETAFLIGHTF3/./lib/main/DSP_Lib/Source/TransformFunctions/arm_bitreversal2.o
                                                  C:\cygwin64\tmp\ccTUqUH8.ltrans3.ltrans.o
                                                  obj/main/BETAFLIGHTF3/sensors/gyroanalyse.o (symbol from plugin)
                                                  obj/main/BETAFLIGHTF3/./lib/main/DSP_Lib/Source/TransformFunctions/arm_cfft_f32.o (symbol from plugin)
arm_cfft_f32                                      obj/main/BETAFLIGHTF3/./lib/main/DSP_Lib/Source/TransformFunctions/arm_cfft_f32.o (symbol from plugin)
                                                  obj/main/BETAFLIGHTF3/./lib/main/DSP_Lib/Source/TransformFunctions/arm_rfft_fast_f32.o (symbol from plugin)
arm_cfft_radix8by2_f32                            obj/main/BETAFLIGHTF3/./lib/main/DSP_Lib/Source/TransformFunctions/arm_cfft_f32.o (symbol from plugin)
                                                  obj/main/BETAFLIGHTF3/sensors/gyroanalyse.o (symbol from plugin)
arm_cfft_radix8by4_f32                            obj/main/BETAFLIGHTF3/./lib/main/DSP_Lib/Source/TransformFunctions/arm_cfft_f32.o (symbol from plugin)
arm_cmplx_mag_f32                                 obj/main/BETAFLIGHTF3/./lib/main/DSP_Lib/Source/ComplexMathFunctions/arm_cmplx_mag_f32.o (symbol from plugin)
                                                  obj/main/BETAFLIGHTF3/sensors/gyroanalyse.o (symbol from plugin)
arm_max_f32                                       obj/main/BETAFLIGHTF3/./lib/main/DSP_Lib/Source/StatisticsFunctions/arm_max_f32.o (symbol from plugin)
arm_mult_f32                                      obj/main/BETAFLIGHTF3/./lib/main/DSP_Lib/Source/BasicMathFunctions/arm_mult_f32.o (symbol from plugin)
                                                  obj/main/BETAFLIGHTF3/sensors/gyroanalyse.o (symbol from plugin)
arm_radix8_butterfly_f32                          obj/main/BETAFLIGHTF3/./lib/main/DSP_Lib/Source/TransformFunctions/arm_cfft_radix8_f32.o (symbol from plugin)
                                                  obj/main/BETAFLIGHTF3/./lib/main/DSP_Lib/Source/TransformFunctions/arm_cfft_f32.o (symbol from plugin)
arm_radix8_butterfly_f32.constprop.185            C:\cygwin64\tmp\ccTUqUH8.ltrans6.ltrans.o
                                                  C:\cygwin64\tmp\ccTUqUH8.ltrans3.ltrans.o
arm_rfft_fast_f32                                 obj/main/BETAFLIGHTF3/./lib/main/DSP_Lib/Source/TransformFunctions/arm_rfft_fast_f32.o (symbol from plugin)
arm_rfft_fast_init_f32                            obj/main/BETAFLIGHTF3/./lib/main/DSP_Lib/Source/TransformFunctions/arm_rfft_fast_init_f32.o (symbol from plugin)
                                                  obj/main/BETAFLIGHTF3/sensors/gyroanalyse.o (symbol from plugin)
armingBeepTimeMicros.lto_priv.489                 C:\cygwin64\tmp\ccTUqUH8.ltrans1.ltrans.o
                                                  C:\cygwin64\tmp\ccTUqUH8.ltrans4.ltrans.o
armingConfig_Copy                                 obj/main/BETAFLIGHTF3/fc/rc_controls.o (symbol from plugin)
armingConfig_Registry                             C:\cygwin64\tmp\ccTUqUH8.ltrans1.ltrans.o
                                                  obj/main/BETAFLIGHTF3/fc/rc_controls.o (symbol from plugin)
armingConfig_System                               C:\cygwin64\tmp\ccTUqUH8.ltrans1.ltrans.o
                                                  obj/main/BETAFLIGHTF3/fc/rc_controls.o (symbol from plugin)
                                                  C:\cygwin64\tmp\ccTUqUH8.ltrans4.ltrans.o
                                                  C:\cygwin64\tmp\ccTUqUH8.ltrans3.ltrans.o
                                                  C:\cygwin64\tmp\ccTUqUH8.ltrans0.ltrans.o
                                                  obj/main/BETAFLIGHTF3/blackbox/blackbox.o (symbol from plugin)
                                                  obj/main/BETAFLIGHTF3/fc/fc_core.o (symbol from plugin)
                                                  obj/main/BETAFLIGHTF3/interface/msp.o (symbol from plugin)
armingDisableFlagNames                            C:\cygwin64\tmp\ccTUqUH8.ltrans3.ltrans.o
                                                  obj/main/BETAFLIGHTF3/fc/runtime_config.o (symbol from plugin)
                                                  C:\cygwin64\tmp\ccTUqUH8.ltrans5.ltrans.o
                                                  obj/main/BETAFLIGHTF3/interface/cli.o (symbol from plugin)
                                                  obj/main/BETAFLIGHTF3/io/osd.o (symbol from plugin)
armingDisableFlags.lto_priv.333                   C:\cygwin64\tmp\ccTUqUH8.ltrans2.ltrans.o
                                                  C:\cygwin64\tmp\ccTUqUH8.ltrans5.ltrans.o
                                                  C:\cygwin64\tmp\ccTUqUH8.ltrans4.ltrans.o
                                                  C:\cygwin64\tmp\ccTUqUH8.ltrans3.ltrans.o
                                                  C:\cygwin64\tmp\ccTUqUH8.ltrans1.ltrans.o
                                                  C:\cygwin64\tmp\ccTUqUH8.ltrans0.ltrans.o
armingFlags                                       C:\cygwin64\tmp\ccTUqUH8.ltrans2.ltrans.o
                                                  obj/main/BETAFLIGHTF3/fc/runtime_config.o (symbol from plugin)
                                                  C:\cygwin64\tmp\ccTUqUH8.ltrans5.ltrans.o
                                                  C:\cygwin64\tmp\ccTUqUH8.ltrans4.ltrans.o
                                                  C:\cygwin64\tmp\ccTUqUH8.ltrans3.ltrans.o
                                                  C:\cygwin64\tmp\ccTUqUH8.ltrans1.ltrans.o
                                                  C:\cygwin64\tmp\ccTUqUH8.ltrans0.ltrans.o
                                                  obj/main/BETAFLIGHTF3/io/vtx_control.o (symbol from plugin)
                                                  obj/main/BETAFLIGHTF3/io/vtx.o (symbol from plugin)
                                                  obj/main/BETAFLIGHTF3/telemetry/ltm.o (symbol from plugin)
                                                  obj/main/BETAFLIGHTF3/telemetry/smartport.o (symbol from plugin)
                                                  obj/main/BETAFLIGHTF3/telemetry/telemetry.o (symbol from plugin)
                                                  obj/main/BETAFLIGHTF3/io/ledstrip.o (symbol from plugin)
                                                  obj/main/BETAFLIGHTF3/io/rcdevice_cam.o (symbol from plugin)
                                                  obj/main/BETAFLIGHTF3/cms/cms.o (symbol from plugin)
                                                  obj/main/BETAFLIGHTF3/blackbox/blackbox.o (symbol from plugin)
                                                  obj/main/BETAFLIGHTF3/flight/servos.o (symbol from plugin)
                                                  obj/main/BETAFLIGHTF3/flight/pid.o (symbol from plugin)
                                                  obj/main/BETAFLIGHTF3/flight/mixer.o (symbol from plugin)
                                                  obj/main/BETAFLIGHTF3/flight/imu.o (symbol from plugin)
                                                  obj/main/BETAFLIGHTF3/flight/failsafe.o (symbol from plugin)
                                                  obj/main/BETAFLIGHTF3/fc/rc_controls.o (symbol from plugin)
                                                  obj/main/BETAFLIGHTF3/fc/fc_core.o (symbol from plugin)
                                                  obj/main/BETAFLIGHTF3/sensors/battery.o (symbol from plugin)
                                                  obj/main/BETAFLIGHTF3/interface/msp_box.o (symbol from plugin)
                                                  obj/main/BETAFLIGHTF3/interface/msp.o (symbol from plugin)
                                                  obj/main/BETAFLIGHTF3/fc/fc_tasks.o (symbol from plugin)
                                                  obj/main/BETAFLIGHTF3/io/osd.o (symbol from plugin)
arraySubInt32                                     obj/main/BETAFLIGHTF3/common/maths.o (symbol from plugin)
                                                  obj/main/BETAFLIGHTF3/blackbox/blackbox.o (symbol from plugin)
arraySubInt32.constprop.116                       C:\cygwin64\tmp\ccTUqUH8.ltrans6.ltrans.o
                                                  C:\cygwin64\tmp\ccTUqUH8.ltrans1.ltrans.o
atan2_approx                                      obj/main/BETAFLIGHTF3/common/maths.o (symbol from plugin)
                                                  obj/main/BETAFLIGHTF3/flight/imu.o (symbol from plugin)
atoi                                              d:/gcc-arm-none-eabi-7-2017-q4-major-win32/bin/../lib/gcc/arm-none-eabi/7.2.1/../../../../arm-none-eabi/lib/thumb/v7e-m/fpv4-sp/hard\libc_nano.a(lib_a-atoi.o)
                                                  C:\cygwin64\tmp\ccTUqUH8.ltrans3.ltrans.o
                                                  C:\cygwin64\tmp\ccTUqUH8.ltrans2.ltrans.o
                                                  C:\cygwin64\tmp\ccTUqUH8.ltrans1.ltrans.o
                                                  obj/main/BETAFLIGHTF3/io/ledstrip.o (symbol from plugin)
                                                  obj/main/BETAFLIGHTF3/blackbox/blackbox_io.o (symbol from plugin)
                                                  obj/main/BETAFLIGHTF3/interface/cli.o (symbol from plugin)
attitude                                          C:\cygwin64\tmp\ccTUqUH8.ltrans2.ltrans.o
                                                  obj/main/BETAFLIGHTF3/flight/imu.o (symbol from plugin)
                                                  C:\cygwin64\tmp\ccTUqUH8.ltrans5.ltrans.o
                                                  C:\cygwin64\tmp\ccTUqUH8.ltrans4.ltrans.o
                                                  C:\cygwin64\tmp\ccTUqUH8.ltrans3.ltrans.o
                                                  C:\cygwin64\tmp\ccTUqUH8.ltrans0.ltrans.o
                                                  obj/main/BETAFLIGHTF3/telemetry/ltm.o (symbol from plugin)
                                                  obj/main/BETAFLIGHTF3/telemetry/smartport.o (symbol from plugin)
                                                  obj/main/BETAFLIGHTF3/telemetry/crsf.o (symbol from plugin)
                                                  obj/main/BETAFLIGHTF3/flight/servos.o (symbol from plugin)
                                                  obj/main/BETAFLIGHTF3/flight/pid.o (symbol from plugin)
                                                  obj/main/BETAFLIGHTF3/interface/msp.o (symbol from plugin)
                                                  obj/main/BETAFLIGHTF3/io/osd.o (symbol from plugin)
auxiliaryProcessingRequired.lto_priv.603          C:\cygwin64\tmp\ccTUqUH8.ltrans1.ltrans.o
                                                  C:\cygwin64\tmp\ccTUqUH8.ltrans0.ltrans.o
averageSystemLoadPercent                          C:\cygwin64\tmp\ccTUqUH8.ltrans3.ltrans.o
                                                  obj/main/BETAFLIGHTF3/scheduler/scheduler.o (symbol from plugin)
                                                  C:\cygwin64\tmp\ccTUqUH8.ltrans4.ltrans.o
                                                  C:\cygwin64\tmp\ccTUqUH8.ltrans0.ltrans.o
                                                  obj/main/BETAFLIGHTF3/interface/cli.o (symbol from plugin)
                                                  obj/main/BETAFLIGHTF3/fc/fc_core.o (symbol from plugin)
                                                  obj/main/BETAFLIGHTF3/interface/msp.o (symbol from plugin)
axisPIDSum                                        obj/main/BETAFLIGHTF3/flight/pid.o (symbol from plugin)
                                                  obj/main/BETAFLIGHTF3/flight/servos.o (symbol from plugin)
                                                  obj/main/BETAFLIGHTF3/flight/mixer.o (symbol from plugin)
axisPID_D                                         C:\cygwin64\tmp\ccTUqUH8.ltrans1.ltrans.o
                                                  obj/main/BETAFLIGHTF3/flight/pid.o (symbol from plugin)
                                                  C:\cygwin64\tmp\ccTUqUH8.ltrans3.ltrans.o
                                                  obj/main/BETAFLIGHTF3/blackbox/blackbox.o (symbol from plugin)
axisPID_I                                         C:\cygwin64\tmp\ccTUqUH8.ltrans1.ltrans.o
                                                  obj/main/BETAFLIGHTF3/flight/pid.o (symbol from plugin)
                                                  C:\cygwin64\tmp\ccTUqUH8.ltrans3.ltrans.o
                                                  C:\cygwin64\tmp\ccTUqUH8.ltrans0.ltrans.o
                                                  obj/main/BETAFLIGHTF3/blackbox/blackbox.o (symbol from plugin)
axisPID_P                                         C:\cygwin64\tmp\ccTUqUH8.ltrans1.ltrans.o
                                                  obj/main/BETAFLIGHTF3/flight/pid.o (symbol from plugin)
                                                  C:\cygwin64\tmp\ccTUqUH8.ltrans3.ltrans.o
                                                  obj/main/BETAFLIGHTF3/blackbox/blackbox.o (symbol from plugin)
bDeviceState                                      obj/main/BETAFLIGHTF3/vcp/usb_pwr.o (symbol from plugin)
                                                  obj/main/BETAFLIGHTF3/vcp/usb_prop.o (symbol from plugin)
                                                  obj/main/BETAFLIGHTF3/vcp/hw_config.o (symbol from plugin)
bIntPackSOF                                       obj/main/BETAFLIGHTF3/vcp/usb_istr.o (symbol from plugin)
baro                                              obj/main/BETAFLIGHTF3/sensors/barometer.o (symbol from plugin)
barometerConfig_Copy                              obj/main/BETAFLIGHTF3/sensors/barometer.o (symbol from plugin)
barometerConfig_Registry                          C:\cygwin64\tmp\ccTUqUH8.ltrans2.ltrans.o
                                                  obj/main/BETAFLIGHTF3/sensors/barometer.o (symbol from plugin)
barometerConfig_System                            C:\cygwin64\tmp\ccTUqUH8.ltrans2.ltrans.o
                                                  obj/main/BETAFLIGHTF3/sensors/barometer.o (symbol from plugin)
                                                  C:\cygwin64\tmp\ccTUqUH8.ltrans4.ltrans.o
                                                  C:\cygwin64\tmp\ccTUqUH8.ltrans1.ltrans.o
                                                  C:\cygwin64\tmp\ccTUqUH8.ltrans0.ltrans.o
                                                  obj/main/BETAFLIGHTF3/blackbox/blackbox.o (symbol from plugin)
                                                  obj/main/BETAFLIGHTF3/interface/msp.o (symbol from plugin)
baseFunctionCodes.lto_priv.318                    C:\cygwin64\tmp\ccTUqUH8.ltrans6.ltrans.o
                                                  C:\cygwin64\tmp\ccTUqUH8.ltrans2.ltrans.o
batteryCellCount                                  C:\cygwin64\tmp\ccTUqUH8.ltrans2.ltrans.o
                                                  obj/main/BETAFLIGHTF3/sensors/battery.o (symbol from plugin)
                                                  C:\cygwin64\tmp\ccTUqUH8.ltrans5.ltrans.o
                                                  C:\cygwin64\tmp\ccTUqUH8.ltrans4.ltrans.o
                                                  C:\cygwin64\tmp\ccTUqUH8.ltrans3.ltrans.o
                                                  C:\cygwin64\tmp\ccTUqUH8.ltrans0.ltrans.o
batteryConfig_Copy                                obj/main/BETAFLIGHTF3/sensors/battery.o (symbol from plugin)
batteryConfig_Registry                            C:\cygwin64\tmp\ccTUqUH8.ltrans2.ltrans.o
                                                  obj/main/BETAFLIGHTF3/sensors/battery.o (symbol from plugin)
batteryConfig_System                              C:\cygwin64\tmp\ccTUqUH8.ltrans2.ltrans.o
                                                  obj/main/BETAFLIGHTF3/sensors/battery.o (symbol from plugin)
                                                  C:\cygwin64\tmp\ccTUqUH8.ltrans5.ltrans.o
                                                  C:\cygwin64\tmp\ccTUqUH8.ltrans4.ltrans.o
                                                  C:\cygwin64\tmp\ccTUqUH8.ltrans3.ltrans.o
                                                  C:\cygwin64\tmp\ccTUqUH8.ltrans1.ltrans.o
                                                  C:\cygwin64\tmp\ccTUqUH8.ltrans0.ltrans.o
                                                  obj/main/BETAFLIGHTF3/telemetry/frsky_hub.o (symbol from plugin)
                                                  obj/main/BETAFLIGHTF3/io/ledstrip.o (symbol from plugin)
                                                  obj/main/BETAFLIGHTF3/cms/cms_menu_misc.o (symbol from plugin)
                                                  obj/main/BETAFLIGHTF3/blackbox/blackbox.o (symbol from plugin)
                                                  obj/main/BETAFLIGHTF3/fc/fc_init.o (symbol from plugin)
                                                  obj/main/BETAFLIGHTF3/interface/msp.o (symbol from plugin)
                                                  obj/main/BETAFLIGHTF3/fc/fc_tasks.o (symbol from plugin)
                                                  obj/main/BETAFLIGHTF3/io/osd.o (symbol from plugin)
batteryCriticalVoltage                            C:\cygwin64\tmp\ccTUqUH8.ltrans4.ltrans.o
                                                  obj/main/BETAFLIGHTF3/sensors/battery.o (symbol from plugin)
                                                  C:\cygwin64\tmp\ccTUqUH8.ltrans0.ltrans.o
batteryInit                                       obj/main/BETAFLIGHTF3/sensors/battery.o (symbol from plugin)
                                                  obj/main/BETAFLIGHTF3/fc/fc_init.o (symbol from plugin)
batteryState.lto_priv.413                         C:\cygwin64\tmp\ccTUqUH8.ltrans2.ltrans.o
                                                  C:\cygwin64\tmp\ccTUqUH8.ltrans5.ltrans.o
                                                  C:\cygwin64\tmp\ccTUqUH8.ltrans4.ltrans.o
                                                  C:\cygwin64\tmp\ccTUqUH8.ltrans3.ltrans.o
                                                  C:\cygwin64\tmp\ccTUqUH8.ltrans0.ltrans.o
batteryStateStrings                               obj/main/BETAFLIGHTF3/sensors/battery.o (symbol from plugin)
batteryUpdateAlarms                               obj/main/BETAFLIGHTF3/sensors/battery.o (symbol from plugin)
                                                  obj/main/BETAFLIGHTF3/fc/fc_tasks.o (symbol from plugin)
batteryUpdateCurrentMeter                         C:\cygwin64\tmp\ccTUqUH8.ltrans4.ltrans.o
                                                  obj/main/BETAFLIGHTF3/sensors/battery.o (symbol from plugin)
                                                  C:\cygwin64\tmp\ccTUqUH8.ltrans3.ltrans.o
                                                  obj/main/BETAFLIGHTF3/fc/fc_tasks.o (symbol from plugin)
batteryUpdatePresence                             obj/main/BETAFLIGHTF3/sensors/battery.o (symbol from plugin)
                                                  obj/main/BETAFLIGHTF3/fc/fc_tasks.o (symbol from plugin)
batteryUpdateStates                               obj/main/BETAFLIGHTF3/sensors/battery.o (symbol from plugin)
                                                  obj/main/BETAFLIGHTF3/fc/fc_tasks.o (symbol from plugin)
batteryUpdateVoltage                              C:\cygwin64\tmp\ccTUqUH8.ltrans4.ltrans.o
                                                  obj/main/BETAFLIGHTF3/sensors/battery.o (symbol from plugin)
                                                  C:\cygwin64\tmp\ccTUqUH8.ltrans3.ltrans.o
                                                  obj/main/BETAFLIGHTF3/fc/fc_tasks.o (symbol from plugin)
batteryWarningVoltage                             C:\cygwin64\tmp\ccTUqUH8.ltrans4.ltrans.o
                                                  obj/main/BETAFLIGHTF3/sensors/battery.o (symbol from plugin)
                                                  C:\cygwin64\tmp\ccTUqUH8.ltrans0.ltrans.o
baudRates                                         C:\cygwin64\tmp\ccTUqUH8.ltrans1.ltrans.o
                                                  obj/main/BETAFLIGHTF3/io/serial.o (symbol from plugin)
                                                  C:\cygwin64\tmp\ccTUqUH8.ltrans4.ltrans.o
                                                  C:\cygwin64\tmp\ccTUqUH8.ltrans3.ltrans.o
                                                  C:\cygwin64\tmp\ccTUqUH8.ltrans0.ltrans.o
                                                  obj/main/BETAFLIGHTF3/telemetry/ltm.o (symbol from plugin)
                                                  obj/main/BETAFLIGHTF3/blackbox/blackbox_io.o (symbol from plugin)
                                                  obj/main/BETAFLIGHTF3/interface/cli.o (symbol from plugin)
                                                  obj/main/BETAFLIGHTF3/msp/msp_serial.o (symbol from plugin)
beep_2longerBeeps.lto_priv.545                    C:\cygwin64\tmp\ccTUqUH8.ltrans3.ltrans.o
beep_2shortBeeps.lto_priv.544                     C:\cygwin64\tmp\ccTUqUH8.ltrans3.ltrans.o
beep_armedBeep.lto_priv.548                       C:\cygwin64\tmp\ccTUqUH8.ltrans3.ltrans.o
beep_armedGpsFix.lto_priv.540                     C:\cygwin64\tmp\ccTUqUH8.ltrans3.ltrans.o
beep_armingBeep.lto_priv.539                      C:\cygwin64\tmp\ccTUqUH8.ltrans3.ltrans.o
beep_camCloseBeep.lto_priv.550                    C:\cygwin64\tmp\ccTUqUH8.ltrans3.ltrans.o
beep_camOpenBeep.lto_priv.549                     C:\cygwin64\tmp\ccTUqUH8.ltrans3.ltrans.o
beep_critBatteryBeep.lto_priv.541                 C:\cygwin64\tmp\ccTUqUH8.ltrans3.ltrans.o
beep_disarmBeep.lto_priv.538                      C:\cygwin64\tmp\ccTUqUH8.ltrans3.ltrans.o
beep_disarmRepeatBeep.lto_priv.547                C:\cygwin64\tmp\ccTUqUH8.ltrans3.ltrans.o
beep_gyroCalibrated.lto_priv.535                  C:\cygwin64\tmp\ccTUqUH8.ltrans3.ltrans.o
beep_lowBatteryBeep.lto_priv.542                  C:\cygwin64\tmp\ccTUqUH8.ltrans3.ltrans.o
beep_multiBeeps.lto_priv.461                      C:\cygwin64\tmp\ccTUqUH8.ltrans3.ltrans.o
                                                  C:\cygwin64\tmp\ccTUqUH8.ltrans4.ltrans.o
                                                  C:\cygwin64\tmp\ccTUqUH8.ltrans0.ltrans.o
beep_readyBeep.lto_priv.546                       C:\cygwin64\tmp\ccTUqUH8.ltrans3.ltrans.o
beep_shortBeep.lto_priv.543                       C:\cygwin64\tmp\ccTUqUH8.ltrans3.ltrans.o
beep_sos.lto_priv.537                             C:\cygwin64\tmp\ccTUqUH8.ltrans3.ltrans.o
beep_txLostBeep.lto_priv.536                      C:\cygwin64\tmp\ccTUqUH8.ltrans3.ltrans.o
beeper                                            C:\cygwin64\tmp\ccTUqUH8.ltrans4.ltrans.o
                                                  obj/main/BETAFLIGHTF3/io/beeper.o (symbol from plugin)
                                                  C:\cygwin64\tmp\ccTUqUH8.ltrans3.ltrans.o
                                                  C:\cygwin64\tmp\ccTUqUH8.ltrans2.ltrans.o
                                                  C:\cygwin64\tmp\ccTUqUH8.ltrans0.ltrans.o
                                                  obj/main/BETAFLIGHTF3/io/rcdevice_cam.o (symbol from plugin)
                                                  obj/main/BETAFLIGHTF3/sensors/gyro.o (symbol from plugin)
                                                  obj/main/BETAFLIGHTF3/sensors/acceleration.o (symbol from plugin)
                                                  obj/main/BETAFLIGHTF3/flight/failsafe.o (symbol from plugin)
                                                  obj/main/BETAFLIGHTF3/fc/rc_controls.o (symbol from plugin)
                                                  obj/main/BETAFLIGHTF3/fc/fc_core.o (symbol from plugin)
                                                  obj/main/BETAFLIGHTF3/sensors/battery.o (symbol from plugin)
beeperConfig_Copy                                 obj/main/BETAFLIGHTF3/pg/beeper.o (symbol from plugin)
                                                  obj/main/BETAFLIGHTF3/interface/cli.o (symbol from plugin)
beeperConfig_Registry                             C:\cygwin64\tmp\ccTUqUH8.ltrans3.ltrans.o
                                                  obj/main/BETAFLIGHTF3/pg/beeper.o (symbol from plugin)
beeperConfig_System                               C:\cygwin64\tmp\ccTUqUH8.ltrans3.ltrans.o
                                                  obj/main/BETAFLIGHTF3/pg/beeper.o (symbol from plugin)
                                                  C:\cygwin64\tmp\ccTUqUH8.ltrans4.ltrans.o
                                                  C:\cygwin64\tmp\ccTUqUH8.ltrans0.ltrans.o
                                                  obj/main/BETAFLIGHTF3/interface/cli.o (symbol from plugin)
                                                  obj/main/BETAFLIGHTF3/io/beeper.o (symbol from plugin)
                                                  obj/main/BETAFLIGHTF3/fc/config.o (symbol from plugin)
beeperConfirmationBeeps                           C:\cygwin64\tmp\ccTUqUH8.ltrans4.ltrans.o
                                                  obj/main/BETAFLIGHTF3/io/beeper.o (symbol from plugin)
                                                  C:\cygwin64\tmp\ccTUqUH8.ltrans0.ltrans.o
                                                  obj/main/BETAFLIGHTF3/fc/rc_adjustments.o (symbol from plugin)
                                                  obj/main/BETAFLIGHTF3/fc/runtime_config.o (symbol from plugin)
                                                  obj/main/BETAFLIGHTF3/fc/config.o (symbol from plugin)
beeperDevConfig_Copy                              obj/main/BETAFLIGHTF3/pg/beeper_dev.o (symbol from plugin)
beeperDevConfig_Registry                          C:\cygwin64\tmp\ccTUqUH8.ltrans4.ltrans.o
                                                  obj/main/BETAFLIGHTF3/pg/beeper_dev.o (symbol from plugin)
beeperDevConfig_System                            obj/main/BETAFLIGHTF3/pg/beeper_dev.o (symbol from plugin)
                                                  obj/main/BETAFLIGHTF3/fc/fc_init.o (symbol from plugin)
beeperFrequency.lto_priv.426                      C:\cygwin64\tmp\ccTUqUH8.ltrans6.ltrans.o
                                                  C:\cygwin64\tmp\ccTUqUH8.ltrans4.ltrans.o
                                                  C:\cygwin64\tmp\ccTUqUH8.ltrans3.ltrans.o
                                                  C:\cygwin64\tmp\ccTUqUH8.ltrans0.ltrans.o
beeperIO.lto_priv.427                             C:\cygwin64\tmp\ccTUqUH8.ltrans6.ltrans.o
                                                  C:\cygwin64\tmp\ccTUqUH8.ltrans4.ltrans.o
                                                  C:\cygwin64\tmp\ccTUqUH8.ltrans3.ltrans.o
                                                  C:\cygwin64\tmp\ccTUqUH8.ltrans0.ltrans.o
beeperInit                                        obj/main/BETAFLIGHTF3/drivers/sound_beeper.o (symbol from plugin)
                                                  obj/main/BETAFLIGHTF3/fc/fc_init.o (symbol from plugin)
beeperInverted.lto_priv.428                       C:\cygwin64\tmp\ccTUqUH8.ltrans6.ltrans.o
                                                  C:\cygwin64\tmp\ccTUqUH8.ltrans4.ltrans.o
                                                  C:\cygwin64\tmp\ccTUqUH8.ltrans3.ltrans.o
                                                  C:\cygwin64\tmp\ccTUqUH8.ltrans0.ltrans.o
beeperIsOn.lto_priv.488                           C:\cygwin64\tmp\ccTUqUH8.ltrans2.ltrans.o
                                                  C:\cygwin64\tmp\ccTUqUH8.ltrans5.ltrans.o
                                                  C:\cygwin64\tmp\ccTUqUH8.ltrans4.ltrans.o
beeperModeForTableIndex                           obj/main/BETAFLIGHTF3/io/beeper.o (symbol from plugin)
beeperModeMaskForTableIndex                       C:\cygwin64\tmp\ccTUqUH8.ltrans4.ltrans.o
                                                  obj/main/BETAFLIGHTF3/io/beeper.o (symbol from plugin)
                                                  C:\cygwin64\tmp\ccTUqUH8.ltrans3.ltrans.o
                                                  obj/main/BETAFLIGHTF3/interface/cli.o (symbol from plugin)
beeperNameForTableIndex                           obj/main/BETAFLIGHTF3/io/beeper.o (symbol from plugin)
                                                  obj/main/BETAFLIGHTF3/interface/cli.o (symbol from plugin)
beeperNextToggleTime.lto_priv.599                 C:\cygwin64\tmp\ccTUqUH8.ltrans4.ltrans.o
                                                  C:\cygwin64\tmp\ccTUqUH8.ltrans0.ltrans.o
beeperOffClear                                    obj/main/BETAFLIGHTF3/fc/config.o (symbol from plugin)
                                                  obj/main/BETAFLIGHTF3/interface/cli.o (symbol from plugin)
beeperOffClearAll                                 obj/main/BETAFLIGHTF3/fc/config.o (symbol from plugin)
                                                  obj/main/BETAFLIGHTF3/interface/cli.o (symbol from plugin)
                                                  obj/main/BETAFLIGHTF3/interface/msp.o (symbol from plugin)
beeperOffSet                                      obj/main/BETAFLIGHTF3/fc/config.o (symbol from plugin)
                                                  obj/main/BETAFLIGHTF3/interface/cli.o (symbol from plugin)
beeperOffSetAll                                   obj/main/BETAFLIGHTF3/fc/config.o (symbol from plugin)
                                                  obj/main/BETAFLIGHTF3/interface/cli.o (symbol from plugin)
beeperPos.lto_priv.598                            C:\cygwin64\tmp\ccTUqUH8.ltrans4.ltrans.o
                                                  C:\cygwin64\tmp\ccTUqUH8.ltrans0.ltrans.o
beeperPwm.lto_priv.429                            C:\cygwin64\tmp\ccTUqUH8.ltrans6.ltrans.o
                                                  C:\cygwin64\tmp\ccTUqUH8.ltrans4.ltrans.o
                                                  C:\cygwin64\tmp\ccTUqUH8.ltrans3.ltrans.o
                                                  C:\cygwin64\tmp\ccTUqUH8.ltrans0.ltrans.o
beeperPwmInit                                     obj/main/BETAFLIGHTF3/drivers/pwm_output.o (symbol from plugin)
                                                  obj/main/BETAFLIGHTF3/drivers/sound_beeper.o (symbol from plugin)
beeperSilence                                     C:\cygwin64\tmp\ccTUqUH8.ltrans4.ltrans.o
                                                  obj/main/BETAFLIGHTF3/io/beeper.o (symbol from plugin)
                                                  C:\cygwin64\tmp\ccTUqUH8.ltrans1.ltrans.o
                                                  C:\cygwin64\tmp\ccTUqUH8.ltrans0.ltrans.o
                                                  obj/main/BETAFLIGHTF3/io/serial_4way.o (symbol from plugin)
                                                  obj/main/BETAFLIGHTF3/fc/fc_core.o (symbol from plugin)
beeperTable                                       C:\cygwin64\tmp\ccTUqUH8.ltrans3.ltrans.o
                                                  obj/main/BETAFLIGHTF3/io/beeper.o (symbol from plugin)
                                                  C:\cygwin64\tmp\ccTUqUH8.ltrans4.ltrans.o
                                                  C:\cygwin64\tmp\ccTUqUH8.ltrans0.ltrans.o
beeperTableEntryCount                             obj/main/BETAFLIGHTF3/io/beeper.o (symbol from plugin)
                                                  obj/main/BETAFLIGHTF3/interface/cli.o (symbol from plugin)
beeperUpdate                                      C:\cygwin64\tmp\ccTUqUH8.ltrans4.ltrans.o
                                                  obj/main/BETAFLIGHTF3/io/beeper.o (symbol from plugin)
                                                  C:\cygwin64\tmp\ccTUqUH8.ltrans3.ltrans.o
                                                  obj/main/BETAFLIGHTF3/fc/fc_tasks.o (symbol from plugin)
beeperWarningBeeps                                obj/main/BETAFLIGHTF3/io/beeper.o (symbol from plugin)
                                                  obj/main/BETAFLIGHTF3/fc/fc_core.o (symbol from plugin)
biquadFilterApply                                 C:\cygwin64\tmp\ccTUqUH8.ltrans5.ltrans.o
                                                  obj/main/BETAFLIGHTF3/common/filter.o (symbol from plugin)
                                                  C:\cygwin64\tmp\ccTUqUH8.ltrans6.ltrans.o
                                                  C:\cygwin64\tmp\ccTUqUH8.ltrans4.ltrans.o
                                                  C:\cygwin64\tmp\ccTUqUH8.ltrans3.ltrans.o
                                                  obj/main/BETAFLIGHTF3/sensors/gyroanalyse.o (symbol from plugin)
                                                  obj/main/BETAFLIGHTF3/sensors/gyro.o (symbol from plugin)
                                                  obj/main/BETAFLIGHTF3/sensors/acceleration.o (symbol from plugin)
                                                  obj/main/BETAFLIGHTF3/flight/servos.o (symbol from plugin)
                                                  obj/main/BETAFLIGHTF3/flight/pid.o (symbol from plugin)
                                                  obj/main/BETAFLIGHTF3/sensors/voltage.o (symbol from plugin)
                                                  obj/main/BETAFLIGHTF3/sensors/current.o (symbol from plugin)
biquadFilterApplyDF1                              C:\cygwin64\tmp\ccTUqUH8.ltrans5.ltrans.o
                                                  obj/main/BETAFLIGHTF3/common/filter.o (symbol from plugin)
                                                  C:\cygwin64\tmp\ccTUqUH8.ltrans6.ltrans.o
                                                  obj/main/BETAFLIGHTF3/sensors/gyro.o (symbol from plugin)
biquadFilterInit                                  obj/main/BETAFLIGHTF3/common/filter.o (symbol from plugin)
                                                  obj/main/BETAFLIGHTF3/sensors/gyroanalyse.o (symbol from plugin)
                                                  obj/main/BETAFLIGHTF3/sensors/gyro.o (symbol from plugin)
                                                  obj/main/BETAFLIGHTF3/flight/pid.o (symbol from plugin)
biquadFilterInit.constprop.176                    C:\cygwin64\tmp\ccTUqUH8.ltrans6.ltrans.o
                                                  C:\cygwin64\tmp\ccTUqUH8.ltrans3.ltrans.o
biquadFilterInitLPF                               C:\cygwin64\tmp\ccTUqUH8.ltrans5.ltrans.o
                                                  obj/main/BETAFLIGHTF3/common/filter.o (symbol from plugin)
                                                  C:\cygwin64\tmp\ccTUqUH8.ltrans4.ltrans.o
                                                  C:\cygwin64\tmp\ccTUqUH8.ltrans3.ltrans.o
                                                  C:\cygwin64\tmp\ccTUqUH8.ltrans1.ltrans.o
                                                  obj/main/BETAFLIGHTF3/sensors/gyroanalyse.o (symbol from plugin)
                                                  obj/main/BETAFLIGHTF3/sensors/gyro.o (symbol from plugin)
                                                  obj/main/BETAFLIGHTF3/sensors/acceleration.o (symbol from plugin)
                                                  obj/main/BETAFLIGHTF3/flight/servos.o (symbol from plugin)
                                                  obj/main/BETAFLIGHTF3/flight/pid.o (symbol from plugin)
                                                  obj/main/BETAFLIGHTF3/sensors/voltage.o (symbol from plugin)
                                                  obj/main/BETAFLIGHTF3/sensors/current.o (symbol from plugin)
biquadFilterUpdate                                obj/main/BETAFLIGHTF3/common/filter.o (symbol from plugin)
                                                  obj/main/BETAFLIGHTF3/sensors/gyroanalyse.o (symbol from plugin)
biquadRCFIR2FilterInit                            obj/main/BETAFLIGHTF3/common/filter.o (symbol from plugin)
bitArrayClr                                       obj/main/BETAFLIGHTF3/common/bitarray.o (symbol from plugin)
                                                  obj/main/BETAFLIGHTF3/interface/msp_box.o (symbol from plugin)
bitArrayGet                                       C:\cygwin64\tmp\ccTUqUH8.ltrans5.ltrans.o
                                                  obj/main/BETAFLIGHTF3/common/bitarray.o (symbol from plugin)
                                                  C:\cygwin64\tmp\ccTUqUH8.ltrans4.ltrans.o
                                                  C:\cygwin64\tmp\ccTUqUH8.ltrans3.ltrans.o
                                                  C:\cygwin64\tmp\ccTUqUH8.ltrans0.ltrans.o
                                                  obj/main/BETAFLIGHTF3/fc/rc_modes.o (symbol from plugin)
                                                  obj/main/BETAFLIGHTF3/interface/msp_box.o (symbol from plugin)
bitArraySet                                       C:\cygwin64\tmp\ccTUqUH8.ltrans5.ltrans.o
                                                  obj/main/BETAFLIGHTF3/common/bitarray.o (symbol from plugin)
                                                  C:\cygwin64\tmp\ccTUqUH8.ltrans0.ltrans.o
                                                  obj/main/BETAFLIGHTF3/fc/rc_modes.o (symbol from plugin)
                                                  obj/main/BETAFLIGHTF3/interface/msp_box.o (symbol from plugin)
bitArrayXor                                       obj/main/BETAFLIGHTF3/common/bitarray.o (symbol from plugin)
                                                  obj/main/BETAFLIGHTF3/fc/rc_modes.o (symbol from plugin)
blackboxCalculatePDenom                           obj/main/BETAFLIGHTF3/blackbox/blackbox.o (symbol from plugin)
                                                  obj/main/BETAFLIGHTF3/interface/msp.o (symbol from plugin)
blackboxConfig_Copy                               obj/main/BETAFLIGHTF3/blackbox/blackbox.o (symbol from plugin)
blackboxConfig_Registry                           C:\cygwin64\tmp\ccTUqUH8.ltrans1.ltrans.o
                                                  obj/main/BETAFLIGHTF3/blackbox/blackbox.o (symbol from plugin)
blackboxConfig_System                             C:\cygwin64\tmp\ccTUqUH8.ltrans1.ltrans.o
                                                  obj/main/BETAFLIGHTF3/blackbox/blackbox.o (symbol from plugin)
                                                  C:\cygwin64\tmp\ccTUqUH8.ltrans5.ltrans.o
                                                  C:\cygwin64\tmp\ccTUqUH8.ltrans4.ltrans.o
                                                  C:\cygwin64\tmp\ccTUqUH8.ltrans3.ltrans.o
                                                  C:\cygwin64\tmp\ccTUqUH8.ltrans0.ltrans.o
                                                  obj/main/BETAFLIGHTF3/cms/cms_menu_blackbox.o (symbol from plugin)
                                                  obj/main/BETAFLIGHTF3/blackbox/blackbox_io.o (symbol from plugin)
                                                  obj/main/BETAFLIGHTF3/fc/rc_adjustments.o (symbol from plugin)
                                                  obj/main/BETAFLIGHTF3/fc/fc_core.o (symbol from plugin)
                                                  obj/main/BETAFLIGHTF3/fc/fc_init.o (symbol from plugin)
                                                  obj/main/BETAFLIGHTF3/interface/msp.o (symbol from plugin)
                                                  obj/main/BETAFLIGHTF3/io/osd.o (symbol from plugin)
blackboxDeviceBeginLog                            obj/main/BETAFLIGHTF3/blackbox/blackbox_io.o (symbol from plugin)
                                                  obj/main/BETAFLIGHTF3/blackbox/blackbox.o (symbol from plugin)
blackboxDeviceClose                               obj/main/BETAFLIGHTF3/blackbox/blackbox_io.o (symbol from plugin)
                                                  obj/main/BETAFLIGHTF3/blackbox/blackbox.o (symbol from plugin)
blackboxDeviceEndLog                              obj/main/BETAFLIGHTF3/blackbox/blackbox_io.o (symbol from plugin)
                                                  obj/main/BETAFLIGHTF3/blackbox/blackbox.o (symbol from plugin)
blackboxDeviceFlush                               obj/main/BETAFLIGHTF3/blackbox/blackbox_io.o (symbol from plugin)
                                                  obj/main/BETAFLIGHTF3/blackbox/blackbox.o (symbol from plugin)
blackboxDeviceFlushForce                          obj/main/BETAFLIGHTF3/blackbox/blackbox_io.o (symbol from plugin)
                                                  obj/main/BETAFLIGHTF3/blackbox/blackbox.o (symbol from plugin)
blackboxDeviceOpen                                obj/main/BETAFLIGHTF3/blackbox/blackbox_io.o (symbol from plugin)
                                                  obj/main/BETAFLIGHTF3/blackbox/blackbox.o (symbol from plugin)
blackboxDeviceReserveBufferSpace                  obj/main/BETAFLIGHTF3/blackbox/blackbox_io.o (symbol from plugin)
                                                  obj/main/BETAFLIGHTF3/blackbox/blackbox.o (symbol from plugin)
blackboxFinish                                    obj/main/BETAFLIGHTF3/blackbox/blackbox.o (symbol from plugin)
                                                  obj/main/BETAFLIGHTF3/fc/fc_core.o (symbol from plugin)
blackboxGetLogNumber                              obj/main/BETAFLIGHTF3/blackbox/blackbox_io.o (symbol from plugin)
                                                  obj/main/BETAFLIGHTF3/io/osd.o (symbol from plugin)
blackboxGetRateDenom                              obj/main/BETAFLIGHTF3/blackbox/blackbox.o (symbol from plugin)
                                                  obj/main/BETAFLIGHTF3/interface/msp.o (symbol from plugin)
blackboxGetRateNum                                C:\cygwin64\tmp\ccTUqUH8.ltrans1.ltrans.o
                                                  obj/main/BETAFLIGHTF3/blackbox/blackbox.o (symbol from plugin)
                                                  C:\cygwin64\tmp\ccTUqUH8.ltrans0.ltrans.o
                                                  obj/main/BETAFLIGHTF3/interface/msp.o (symbol from plugin)
blackboxHeaderBudget                              obj/main/BETAFLIGHTF3/blackbox/blackbox_io.o (symbol from plugin)
                                                  obj/main/BETAFLIGHTF3/blackbox/blackbox_encoding.o (symbol from plugin)
                                                  obj/main/BETAFLIGHTF3/blackbox/blackbox.o (symbol from plugin)
blackboxIInterval.lto_priv.490                    C:\cygwin64\tmp\ccTUqUH8.ltrans1.ltrans.o
                                                  C:\cygwin64\tmp\ccTUqUH8.ltrans4.ltrans.o
                                                  C:\cygwin64\tmp\ccTUqUH8.ltrans0.ltrans.o
blackboxInit                                      C:\cygwin64\tmp\ccTUqUH8.ltrans1.ltrans.o
                                                  obj/main/BETAFLIGHTF3/blackbox/blackbox.o (symbol from plugin)
                                                  C:\cygwin64\tmp\ccTUqUH8.ltrans4.ltrans.o
                                                  obj/main/BETAFLIGHTF3/fc/fc_init.o (symbol from plugin)
blackboxLogEvent                                  obj/main/BETAFLIGHTF3/blackbox/blackbox.o (symbol from plugin)
                                                  obj/main/BETAFLIGHTF3/fc/rc_adjustments.o (symbol from plugin)
blackboxLogInflightAdjustmentEvent.part.0.lto_priv.675 C:\cygwin64\tmp\ccTUqUH8.ltrans3.ltrans.o
                                                  C:\cygwin64\tmp\ccTUqUH8.ltrans0.ltrans.o
blackboxMayEditConfig                             obj/main/BETAFLIGHTF3/blackbox/blackbox.o (symbol from plugin)
                                                  obj/main/BETAFLIGHTF3/cms/cms_menu_blackbox.o (symbol from plugin)
                                                  obj/main/BETAFLIGHTF3/interface/msp.o (symbol from plugin)
blackboxOpen                                      obj/main/BETAFLIGHTF3/blackbox/blackbox_io.o (symbol from plugin)
                                                  obj/main/BETAFLIGHTF3/blackbox/blackbox.o (symbol from plugin)
blackboxPInterval.lto_priv.554                    C:\cygwin64\tmp\ccTUqUH8.ltrans1.ltrans.o
                                                  C:\cygwin64\tmp\ccTUqUH8.ltrans0.ltrans.o
blackboxPrintf                                    obj/main/BETAFLIGHTF3/blackbox/blackbox_encoding.o (symbol from plugin)
                                                  obj/main/BETAFLIGHTF3/blackbox/blackbox.o (symbol from plugin)
blackboxPrintfHeaderLine                          obj/main/BETAFLIGHTF3/blackbox/blackbox_encoding.o (symbol from plugin)
                                                  obj/main/BETAFLIGHTF3/blackbox/blackbox.o (symbol from plugin)
blackboxReplenishHeaderBudget                     obj/main/BETAFLIGHTF3/blackbox/blackbox_io.o (symbol from plugin)
                                                  obj/main/BETAFLIGHTF3/blackbox/blackbox.o (symbol from plugin)
blackboxSDCard.lto_priv.688                       C:\cygwin64\tmp\ccTUqUH8.ltrans1.ltrans.o
                                                  C:\cygwin64\tmp\ccTUqUH8.ltrans5.ltrans.o
blackboxState.lto_priv.423                        C:\cygwin64\tmp\ccTUqUH8.ltrans1.ltrans.o
                                                  C:\cygwin64\tmp\ccTUqUH8.ltrans4.ltrans.o
                                                  C:\cygwin64\tmp\ccTUqUH8.ltrans3.ltrans.o
blackboxUpdate                                    C:\cygwin64\tmp\ccTUqUH8.ltrans1.ltrans.o
                                                  obj/main/BETAFLIGHTF3/blackbox/blackbox.o (symbol from plugin)
                                                  C:\cygwin64\tmp\ccTUqUH8.ltrans3.ltrans.o
                                                  obj/main/BETAFLIGHTF3/fc/fc_core.o (symbol from plugin)
blackboxValidateConfig                            obj/main/BETAFLIGHTF3/blackbox/blackbox.o (symbol from plugin)
                                                  obj/main/BETAFLIGHTF3/cms/cms_menu_blackbox.o (symbol from plugin)
blackboxWrite                                     C:\cygwin64\tmp\ccTUqUH8.ltrans1.ltrans.o
                                                  obj/main/BETAFLIGHTF3/blackbox/blackbox_io.o (symbol from plugin)
                                                  C:\cygwin64\tmp\ccTUqUH8.ltrans4.ltrans.o
                                                  C:\cygwin64\tmp\ccTUqUH8.ltrans3.ltrans.o
                                                  obj/main/BETAFLIGHTF3/blackbox/blackbox_encoding.o (symbol from plugin)
                                                  obj/main/BETAFLIGHTF3/blackbox/blackbox.o (symbol from plugin)
blackboxWriteFloat                                obj/main/BETAFLIGHTF3/blackbox/blackbox_encoding.o (symbol from plugin)
                                                  obj/main/BETAFLIGHTF3/blackbox/blackbox.o (symbol from plugin)
blackboxWriteS16                                  obj/main/BETAFLIGHTF3/blackbox/blackbox_encoding.o (symbol from plugin)
blackboxWriteSigned16VBArray                      obj/main/BETAFLIGHTF3/blackbox/blackbox_encoding.o (symbol from plugin)
                                                  obj/main/BETAFLIGHTF3/blackbox/blackbox.o (symbol from plugin)
blackboxWriteSignedVB                             C:\cygwin64\tmp\ccTUqUH8.ltrans1.ltrans.o
                                                  obj/main/BETAFLIGHTF3/blackbox/blackbox_encoding.o (symbol from plugin)
                                                  C:\cygwin64\tmp\ccTUqUH8.ltrans3.ltrans.o
                                                  obj/main/BETAFLIGHTF3/blackbox/blackbox.o (symbol from plugin)
blackboxWriteSignedVBArray                        obj/main/BETAFLIGHTF3/blackbox/blackbox_encoding.o (symbol from plugin)
                                                  obj/main/BETAFLIGHTF3/blackbox/blackbox.o (symbol from plugin)
blackboxWriteSignedVBArray.constprop.53           C:\cygwin64\tmp\ccTUqUH8.ltrans6.ltrans.o
                                                  C:\cygwin64\tmp\ccTUqUH8.ltrans1.ltrans.o
blackboxWriteString                               C:\cygwin64\tmp\ccTUqUH8.ltrans1.ltrans.o
                                                  obj/main/BETAFLIGHTF3/blackbox/blackbox_io.o (symbol from plugin)
                                                  C:\cygwin64\tmp\ccTUqUH8.ltrans4.ltrans.o
                                                  obj/main/BETAFLIGHTF3/blackbox/blackbox_encoding.o (symbol from plugin)
                                                  obj/main/BETAFLIGHTF3/blackbox/blackbox.o (symbol from plugin)
blackboxWriteTag2_3S32                            obj/main/BETAFLIGHTF3/blackbox/blackbox_encoding.o (symbol from plugin)
                                                  obj/main/BETAFLIGHTF3/blackbox/blackbox.o (symbol from plugin)
blackboxWriteTag2_3SVariable                      obj/main/BETAFLIGHTF3/blackbox/blackbox_encoding.o (symbol from plugin)
blackboxWriteTag8_4S16                            obj/main/BETAFLIGHTF3/blackbox/blackbox_encoding.o (symbol from plugin)
                                                  obj/main/BETAFLIGHTF3/blackbox/blackbox.o (symbol from plugin)
blackboxWriteTag8_8SVB                            obj/main/BETAFLIGHTF3/blackbox/blackbox_encoding.o (symbol from plugin)
                                                  obj/main/BETAFLIGHTF3/blackbox/blackbox.o (symbol from plugin)
blackboxWriteU32                                  obj/main/BETAFLIGHTF3/blackbox/blackbox_encoding.o (symbol from plugin)
blackboxWriteUnsignedVB                           C:\cygwin64\tmp\ccTUqUH8.ltrans1.ltrans.o
                                                  obj/main/BETAFLIGHTF3/blackbox/blackbox_encoding.o (symbol from plugin)
                                                  C:\cygwin64\tmp\ccTUqUH8.ltrans6.ltrans.o
                                                  obj/main/BETAFLIGHTF3/blackbox/blackbox.o (symbol from plugin)
blinkBits.lto_priv.477                            C:\cygwin64\tmp\ccTUqUH8.ltrans2.ltrans.o
                                                  C:\cygwin64\tmp\ccTUqUH8.ltrans5.ltrans.o
                                                  C:\cygwin64\tmp\ccTUqUH8.ltrans4.ltrans.o
boardAlignment_Copy                               obj/main/BETAFLIGHTF3/sensors/boardalignment.o (symbol from plugin)
boardAlignment_Registry                           C:\cygwin64\tmp\ccTUqUH8.ltrans4.ltrans.o
                                                  obj/main/BETAFLIGHTF3/sensors/boardalignment.o (symbol from plugin)
boardAlignment_System                             C:\cygwin64\tmp\ccTUqUH8.ltrans4.ltrans.o
                                                  obj/main/BETAFLIGHTF3/sensors/boardalignment.o (symbol from plugin)
                                                  C:\cygwin64\tmp\ccTUqUH8.ltrans0.ltrans.o
                                                  obj/main/BETAFLIGHTF3/fc/fc_init.o (symbol from plugin)
                                                  obj/main/BETAFLIGHTF3/interface/msp.o (symbol from plugin)
boardRotation.lto_priv.482                        C:\cygwin64\tmp\ccTUqUH8.ltrans1.ltrans.o
                                                  C:\cygwin64\tmp\ccTUqUH8.ltrans4.ltrans.o
bufWriterAppend                                   C:\cygwin64\tmp\ccTUqUH8.ltrans5.ltrans.o
                                                  obj/main/BETAFLIGHTF3/drivers/buf_writer.o (symbol from plugin)
                                                  C:\cygwin64\tmp\ccTUqUH8.ltrans3.ltrans.o
                                                  obj/main/BETAFLIGHTF3/interface/cli.o (symbol from plugin)
bufWriterFlush                                    C:\cygwin64\tmp\ccTUqUH8.ltrans5.ltrans.o
                                                  obj/main/BETAFLIGHTF3/drivers/buf_writer.o (symbol from plugin)
                                                  C:\cygwin64\tmp\ccTUqUH8.ltrans3.ltrans.o
                                                  C:\cygwin64\tmp\ccTUqUH8.ltrans0.ltrans.o
                                                  obj/main/BETAFLIGHTF3/interface/cli.o (symbol from plugin)
bufWriterInit                                     obj/main/BETAFLIGHTF3/drivers/buf_writer.o (symbol from plugin)
                                                  obj/main/BETAFLIGHTF3/interface/cli.o (symbol from plugin)
buffer.lto_priv.415                               C:\cygwin64\tmp\ccTUqUH8.ltrans2.ltrans.o
                                                  C:\cygwin64\tmp\ccTUqUH8.ltrans3.ltrans.o
bufferCrsfMspFrame                                obj/main/BETAFLIGHTF3/telemetry/crsf.o (symbol from plugin)
                                                  obj/main/BETAFLIGHTF3/rx/crsf.o (symbol from plugin)
bufferIndex.lto_priv.621                          C:\cygwin64\tmp\ccTUqUH8.ltrans3.ltrans.o
                                                  C:\cygwin64\tmp\ccTUqUH8.ltrans0.ltrans.o
bufferPosition.lto_priv.414                       C:\cygwin64\tmp\ccTUqUH8.ltrans2.ltrans.o
                                                  C:\cygwin64\tmp\ccTUqUH8.ltrans3.ltrans.o
bufferSize.lto_priv.416                           C:\cygwin64\tmp\ccTUqUH8.ltrans2.ltrans.o
                                                  C:\cygwin64\tmp\ccTUqUH8.ltrans3.ltrans.o
buildDate                                         C:\cygwin64\tmp\ccTUqUH8.ltrans1.ltrans.o
                                                  obj/main/BETAFLIGHTF3/build/version.o (symbol from plugin)
                                                  obj/main/BETAFLIGHTF3/blackbox/blackbox.o (symbol from plugin)
                                                  obj/main/BETAFLIGHTF3/interface/cli.o (symbol from plugin)
                                                  obj/main/BETAFLIGHTF3/interface/msp.o (symbol from plugin)
buildRotationMatrix                               obj/main/BETAFLIGHTF3/common/maths.o (symbol from plugin)
                                                  obj/main/BETAFLIGHTF3/sensors/boardalignment.o (symbol from plugin)
buildTime                                         C:\cygwin64\tmp\ccTUqUH8.ltrans1.ltrans.o
                                                  obj/main/BETAFLIGHTF3/build/version.o (symbol from plugin)
                                                  obj/main/BETAFLIGHTF3/blackbox/blackbox.o (symbol from plugin)
                                                  obj/main/BETAFLIGHTF3/interface/cli.o (symbol from plugin)
                                                  obj/main/BETAFLIGHTF3/interface/msp.o (symbol from plugin)
busReadRegister                                   obj/main/BETAFLIGHTF3/drivers/bus.o (symbol from plugin)
busReadRegisterBuffer                             obj/main/BETAFLIGHTF3/drivers/bus.o (symbol from plugin)
                                                  obj/main/BETAFLIGHTF3/drivers/accgyro/accgyro_mpu.o (symbol from plugin)
busWriteRegister                                  obj/main/BETAFLIGHTF3/drivers/bus.o (symbol from plugin)
cachedRccCsrValue                                 C:\cygwin64\tmp\ccTUqUH8.ltrans6.ltrans.o
                                                  obj/main/BETAFLIGHTF3/drivers/system.o (symbol from plugin)
                                                  C:\cygwin64\tmp\ccTUqUH8.ltrans4.ltrans.o
                                                  obj/main/BETAFLIGHTF3/drivers/system_stm32f30x.o (symbol from plugin)
calcCRC8                                          obj/main/BETAFLIGHTF3/telemetry/jetiexbus.o (symbol from plugin)
calculateBatteryPercentageRemaining               C:\cygwin64\tmp\ccTUqUH8.ltrans4.ltrans.o
                                                  obj/main/BETAFLIGHTF3/sensors/battery.o (symbol from plugin)
                                                  C:\cygwin64\tmp\ccTUqUH8.ltrans2.ltrans.o
                                                  C:\cygwin64\tmp\ccTUqUH8.ltrans0.ltrans.o
                                                  obj/main/BETAFLIGHTF3/telemetry/frsky_hub.o (symbol from plugin)
                                                  obj/main/BETAFLIGHTF3/telemetry/crsf.o (symbol from plugin)
                                                  obj/main/BETAFLIGHTF3/io/ledstrip.o (symbol from plugin)
calculateCrc8                                     C:\cygwin64\tmp\ccTUqUH8.ltrans2.ltrans.o
                                                  obj/main/BETAFLIGHTF3/sensors/esc_sensor.o (symbol from plugin)
                                                  C:\cygwin64\tmp\ccTUqUH8.ltrans3.ltrans.o
                                                  obj/main/BETAFLIGHTF3/interface/cli.o (symbol from plugin)
calculateRxChannelsAndUpdateFailsafe              obj/main/BETAFLIGHTF3/rx/rx.o (symbol from plugin)
                                                  obj/main/BETAFLIGHTF3/fc/fc_core.o (symbol from plugin)
calculateTaskStatistics.lto_priv.558              C:\cygwin64\tmp\ccTUqUH8.ltrans4.ltrans.o
                                                  C:\cygwin64\tmp\ccTUqUH8.ltrans0.ltrans.o
calculateThrottleAngleCorrection                  obj/main/BETAFLIGHTF3/flight/imu.o (symbol from plugin)
                                                  obj/main/BETAFLIGHTF3/fc/fc_core.o (symbol from plugin)
calculateThrottleStatus                           C:\cygwin64\tmp\ccTUqUH8.ltrans3.ltrans.o
                                                  obj/main/BETAFLIGHTF3/fc/rc_controls.o (symbol from plugin)
                                                  C:\cygwin64\tmp\ccTUqUH8.ltrans4.ltrans.o
                                                  C:\cygwin64\tmp\ccTUqUH8.ltrans0.ltrans.o
                                                  obj/main/BETAFLIGHTF3/flight/failsafe.o (symbol from plugin)
                                                  obj/main/BETAFLIGHTF3/fc/fc_core.o (symbol from plugin)
                                                  obj/main/BETAFLIGHTF3/sensors/battery.o (symbol from plugin)
calculateVbatPidCompensation                      obj/main/BETAFLIGHTF3/sensors/battery.o (symbol from plugin)
                                                  obj/main/BETAFLIGHTF3/flight/mixer.o (symbol from plugin)
calibratingA.lto_priv.475                         C:\cygwin64\tmp\ccTUqUH8.ltrans3.ltrans.o
                                                  C:\cygwin64\tmp\ccTUqUH8.ltrans4.ltrans.o
                                                  C:\cygwin64\tmp\ccTUqUH8.ltrans0.ltrans.o
camDevice                                         obj/main/BETAFLIGHTF3/io/rcdevice_cam.o (symbol from plugin)
cameraControlConfig_Copy                          obj/main/BETAFLIGHTF3/drivers/camera_control.o (symbol from plugin)
cameraControlConfig_Registry                      C:\cygwin64\tmp\ccTUqUH8.ltrans4.ltrans.o
                                                  obj/main/BETAFLIGHTF3/drivers/camera_control.o (symbol from plugin)
cameraControlConfig_System                        C:\cygwin64\tmp\ccTUqUH8.ltrans4.ltrans.o
                                                  obj/main/BETAFLIGHTF3/drivers/camera_control.o (symbol from plugin)
                                                  C:\cygwin64\tmp\ccTUqUH8.ltrans0.ltrans.o
cameraControlInit                                 obj/main/BETAFLIGHTF3/drivers/camera_control.o (symbol from plugin)
                                                  obj/main/BETAFLIGHTF3/fc/fc_init.o (symbol from plugin)
cameraControlKeyPress                             C:\cygwin64\tmp\ccTUqUH8.ltrans4.ltrans.o
                                                  obj/main/BETAFLIGHTF3/drivers/camera_control.o (symbol from plugin)
                                                  C:\cygwin64\tmp\ccTUqUH8.ltrans0.ltrans.o
                                                  obj/main/BETAFLIGHTF3/fc/rc_controls.o (symbol from plugin)
                                                  obj/main/BETAFLIGHTF3/interface/msp.o (symbol from plugin)
cameraControlProcess                              obj/main/BETAFLIGHTF3/drivers/camera_control.o (symbol from plugin)
                                                  obj/main/BETAFLIGHTF3/fc/fc_tasks.o (symbol from plugin)
cameraControlRuntime.lto_priv.563                 C:\cygwin64\tmp\ccTUqUH8.ltrans4.ltrans.o
                                                  C:\cygwin64\tmp\ccTUqUH8.ltrans0.ltrans.o
captures.lto_priv.468                             C:\cygwin64\tmp\ccTUqUH8.ltrans1.ltrans.o
                                                  C:\cygwin64\tmp\ccTUqUH8.ltrans4.ltrans.o
castFloatBytesToInt                               obj/main/BETAFLIGHTF3/common/encoding.o (symbol from plugin)
                                                  obj/main/BETAFLIGHTF3/blackbox/blackbox_encoding.o (symbol from plugin)
                                                  obj/main/BETAFLIGHTF3/blackbox/blackbox.o (symbol from plugin)
ceil                                              d:/gcc-arm-none-eabi-7-2017-q4-major-win32/bin/../lib/gcc/arm-none-eabi/7.2.1/../../../../arm-none-eabi/lib/thumb/v7e-m/fpv4-sp/hard\libm.a(lib_a-s_ceil.o)
                                                  C:\cygwin64\tmp\ccTUqUH8.ltrans5.ltrans.o
ceilf                                             d:/gcc-arm-none-eabi-7-2017-q4-major-win32/bin/../lib/gcc/arm-none-eabi/7.2.1/../../../../arm-none-eabi/lib/thumb/v7e-m/fpv4-sp/hard\libm.a(lib_a-sf_ceil.o)
                                                  C:\cygwin64\tmp\ccTUqUH8.ltrans6.ltrans.o
cfTasks                                           C:\cygwin64\tmp\ccTUqUH8.ltrans3.ltrans.o
                                                  obj/main/BETAFLIGHTF3/fc/fc_tasks.o (symbol from plugin)
                                                  C:\cygwin64\tmp\ccTUqUH8.ltrans4.ltrans.o
                                                  C:\cygwin64\tmp\ccTUqUH8.ltrans0.ltrans.o
                                                  obj/main/BETAFLIGHTF3/scheduler/scheduler.o (symbol from plugin)
changeControlRateProfile                          C:\cygwin64\tmp\ccTUqUH8.ltrans4.ltrans.o
                                                  obj/main/BETAFLIGHTF3/fc/controlrate_profile.o (symbol from plugin)
                                                  C:\cygwin64\tmp\ccTUqUH8.ltrans3.ltrans.o
                                                  C:\cygwin64\tmp\ccTUqUH8.ltrans1.ltrans.o
                                                  C:\cygwin64\tmp\ccTUqUH8.ltrans0.ltrans.o
                                                  obj/main/BETAFLIGHTF3/cms/cms_menu_imu.o (symbol from plugin)
                                                  obj/main/BETAFLIGHTF3/interface/cli.o (symbol from plugin)
                                                  obj/main/BETAFLIGHTF3/fc/rc_controls.o (symbol from plugin)
                                                  obj/main/BETAFLIGHTF3/fc/rc_adjustments.o (symbol from plugin)
                                                  obj/main/BETAFLIGHTF3/interface/msp.o (symbol from plugin)
changePidProfile                                  C:\cygwin64\tmp\ccTUqUH8.ltrans0.ltrans.o
                                                  obj/main/BETAFLIGHTF3/fc/config.o (symbol from plugin)
                                                  C:\cygwin64\tmp\ccTUqUH8.ltrans4.ltrans.o
                                                  C:\cygwin64\tmp\ccTUqUH8.ltrans3.ltrans.o
                                                  C:\cygwin64\tmp\ccTUqUH8.ltrans1.ltrans.o
                                                  obj/main/BETAFLIGHTF3/cms/cms_menu_imu.o (symbol from plugin)
                                                  obj/main/BETAFLIGHTF3/interface/cli.o (symbol from plugin)
                                                  obj/main/BETAFLIGHTF3/fc/rc_controls.o (symbol from plugin)
                                                  obj/main/BETAFLIGHTF3/interface/msp.o (symbol from plugin)
checkCommand.lto_priv.679                         C:\cygwin64\tmp\ccTUqUH8.ltrans3.ltrans.o
                                                  C:\cygwin64\tmp\ccTUqUH8.ltrans0.ltrans.o
checkCrsfTelemetryState                           obj/main/BETAFLIGHTF3/telemetry/crsf.o (symbol from plugin)
                                                  obj/main/BETAFLIGHTF3/telemetry/telemetry.o (symbol from plugin)
checkForBootLoaderRequest                         obj/main/BETAFLIGHTF3/drivers/system_stm32f30x.o (symbol from plugin)
checkFrSkyHubTelemetryState                       obj/main/BETAFLIGHTF3/telemetry/frsky_hub.o (symbol from plugin)
                                                  obj/main/BETAFLIGHTF3/telemetry/telemetry.o (symbol from plugin)
checkFuncMaxExecutionTime                         C:\cygwin64\tmp\ccTUqUH8.ltrans3.ltrans.o
                                                  obj/main/BETAFLIGHTF3/scheduler/scheduler.o (symbol from plugin)
                                                  C:\cygwin64\tmp\ccTUqUH8.ltrans4.ltrans.o
checkFuncMovingSumExecutionTime                   C:\cygwin64\tmp\ccTUqUH8.ltrans3.ltrans.o
                                                  obj/main/BETAFLIGHTF3/scheduler/scheduler.o (symbol from plugin)
                                                  C:\cygwin64\tmp\ccTUqUH8.ltrans4.ltrans.o
checkFuncTotalExecutionTime                       C:\cygwin64\tmp\ccTUqUH8.ltrans3.ltrans.o
                                                  obj/main/BETAFLIGHTF3/scheduler/scheduler.o (symbol from plugin)
                                                  C:\cygwin64\tmp\ccTUqUH8.ltrans4.ltrans.o
checkHoTTTelemetryState                           obj/main/BETAFLIGHTF3/telemetry/hott.o (symbol from plugin)
                                                  obj/main/BETAFLIGHTF3/telemetry/telemetry.o (symbol from plugin)
checkJetiExBusTelemetryState                      obj/main/BETAFLIGHTF3/telemetry/jetiexbus.o (symbol from plugin)
checkLtmTelemetryState                            obj/main/BETAFLIGHTF3/telemetry/ltm.o (symbol from plugin)
checkSmartPortTelemetryState                      obj/main/BETAFLIGHTF3/telemetry/smartport.o (symbol from plugin)
                                                  obj/main/BETAFLIGHTF3/telemetry/telemetry.o (symbol from plugin)
checkSrxlTelemetryState                           obj/main/BETAFLIGHTF3/telemetry/srxl.o (symbol from plugin)
                                                  obj/main/BETAFLIGHTF3/telemetry/telemetry.o (symbol from plugin)
cleanup_glue                                      d:/gcc-arm-none-eabi-7-2017-q4-major-win32/bin/../lib/gcc/arm-none-eabi/7.2.1/../../../../arm-none-eabi/lib/thumb/v7e-m/fpv4-sp/hard\libc_nano.a(lib_a-reent.o)
clearScreen.lto_priv.280                          C:\cygwin64\tmp\ccTUqUH8.ltrans2.ltrans.o
                                                  C:\cygwin64\tmp\ccTUqUH8.ltrans6.ltrans.o
clearScreen.lto_priv.516                          C:\cygwin64\tmp\ccTUqUH8.ltrans2.ltrans.o
                                                  C:\cygwin64\tmp\ccTUqUH8.ltrans4.ltrans.o
cliAdjustmentRange.lto_priv.626                   C:\cygwin64\tmp\ccTUqUH8.ltrans3.ltrans.o
cliAux.lto_priv.627                               C:\cygwin64\tmp\ccTUqUH8.ltrans3.ltrans.o
cliBeeper.lto_priv.628                            C:\cygwin64\tmp\ccTUqUH8.ltrans3.ltrans.o
cliBootloader.lto_priv.629                        C:\cygwin64\tmp\ccTUqUH8.ltrans3.ltrans.o
cliBuffer.lto_priv.622                            C:\cygwin64\tmp\ccTUqUH8.ltrans3.ltrans.o
                                                  C:\cygwin64\tmp\ccTUqUH8.ltrans0.ltrans.o
cliColor.lto_priv.630                             C:\cygwin64\tmp\ccTUqUH8.ltrans3.ltrans.o
cliDefaults.lto_priv.631                          C:\cygwin64\tmp\ccTUqUH8.ltrans3.ltrans.o
cliDiff.lto_priv.632                              C:\cygwin64\tmp\ccTUqUH8.ltrans3.ltrans.o
cliDma.lto_priv.650                               C:\cygwin64\tmp\ccTUqUH8.ltrans3.ltrans.o
cliDshotProg.lto_priv.633                         C:\cygwin64\tmp\ccTUqUH8.ltrans3.ltrans.o
cliDump.lto_priv.634                              C:\cygwin64\tmp\ccTUqUH8.ltrans3.ltrans.o
cliEnter                                          obj/main/BETAFLIGHTF3/interface/cli.o (symbol from plugin)
                                                  obj/main/BETAFLIGHTF3/msp/msp_serial.o (symbol from plugin)
cliEscPassthrough.lto_priv.635                    C:\cygwin64\tmp\ccTUqUH8.ltrans3.ltrans.o
cliExit.lto_priv.636                              C:\cygwin64\tmp\ccTUqUH8.ltrans3.ltrans.o
                                                  C:\cygwin64\tmp\ccTUqUH8.ltrans0.ltrans.o
cliFeature.lto_priv.637                           C:\cygwin64\tmp\ccTUqUH8.ltrans3.ltrans.o
cliFrSkyBind                                      obj/main/BETAFLIGHTF3/interface/cli.o (symbol from plugin)
cliGet.lto_priv.638                               C:\cygwin64\tmp\ccTUqUH8.ltrans3.ltrans.o
cliGetDefaultPointer                              obj/main/BETAFLIGHTF3/interface/cli.o (symbol from plugin)
cliGetValuePointer                                obj/main/BETAFLIGHTF3/interface/cli.o (symbol from plugin)
cliHelp.lto_priv.639                              C:\cygwin64\tmp\ccTUqUH8.ltrans3.ltrans.o
cliInit                                           obj/main/BETAFLIGHTF3/interface/cli.o (symbol from plugin)
                                                  obj/main/BETAFLIGHTF3/fc/fc_init.o (symbol from plugin)
cliLed.lto_priv.640                               C:\cygwin64\tmp\ccTUqUH8.ltrans3.ltrans.o
cliMap.lto_priv.641                               C:\cygwin64\tmp\ccTUqUH8.ltrans3.ltrans.o
cliMixer.lto_priv.642                             C:\cygwin64\tmp\ccTUqUH8.ltrans3.ltrans.o
cliMode                                           C:\cygwin64\tmp\ccTUqUH8.ltrans2.ltrans.o
                                                  obj/main/BETAFLIGHTF3/interface/cli.o (symbol from plugin)
                                                  C:\cygwin64\tmp\ccTUqUH8.ltrans3.ltrans.o
                                                  C:\cygwin64\tmp\ccTUqUH8.ltrans0.ltrans.o
                                                  obj/main/BETAFLIGHTF3/io/vtx.o (symbol from plugin)
                                                  obj/main/BETAFLIGHTF3/io/displayport_msp.o (symbol from plugin)
                                                  obj/main/BETAFLIGHTF3/fc/fc_core.o (symbol from plugin)
                                                  obj/main/BETAFLIGHTF3/fc/fc_tasks.o (symbol from plugin)
cliModeColor.lto_priv.644                         C:\cygwin64\tmp\ccTUqUH8.ltrans3.ltrans.o
cliMotor.lto_priv.645                             C:\cygwin64\tmp\ccTUqUH8.ltrans3.ltrans.o
cliMotorMix.lto_priv.643                          C:\cygwin64\tmp\ccTUqUH8.ltrans3.ltrans.o
cliName.lto_priv.646                              C:\cygwin64\tmp\ccTUqUH8.ltrans3.ltrans.o
cliPort.lto_priv.619                              C:\cygwin64\tmp\ccTUqUH8.ltrans3.ltrans.o
                                                  C:\cygwin64\tmp\ccTUqUH8.ltrans0.ltrans.o
cliPrint.lto_priv.677                             C:\cygwin64\tmp\ccTUqUH8.ltrans3.ltrans.o
                                                  C:\cygwin64\tmp\ccTUqUH8.ltrans0.ltrans.o
cliPrintLine.lto_priv.676                         C:\cygwin64\tmp\ccTUqUH8.ltrans3.ltrans.o
                                                  C:\cygwin64\tmp\ccTUqUH8.ltrans0.ltrans.o
cliPrintLinefeed.lto_priv.680                     C:\cygwin64\tmp\ccTUqUH8.ltrans3.ltrans.o
                                                  C:\cygwin64\tmp\ccTUqUH8.ltrans0.ltrans.o
cliProcess                                        obj/main/BETAFLIGHTF3/interface/cli.o (symbol from plugin)
                                                  obj/main/BETAFLIGHTF3/fc/fc_tasks.o (symbol from plugin)
cliProfile.lto_priv.647                           C:\cygwin64\tmp\ccTUqUH8.ltrans3.ltrans.o
cliRateProfile.lto_priv.648                       C:\cygwin64\tmp\ccTUqUH8.ltrans3.ltrans.o
cliResource.lto_priv.649                          C:\cygwin64\tmp\ccTUqUH8.ltrans3.ltrans.o
cliRxFailsafe.lto_priv.651                        C:\cygwin64\tmp\ccTUqUH8.ltrans3.ltrans.o
cliRxRange.lto_priv.652                           C:\cygwin64\tmp\ccTUqUH8.ltrans3.ltrans.o
cliSave.lto_priv.653                              C:\cygwin64\tmp\ccTUqUH8.ltrans3.ltrans.o
cliSdInfo.lto_priv.654                            C:\cygwin64\tmp\ccTUqUH8.ltrans3.ltrans.o
cliSerial.lto_priv.655                            C:\cygwin64\tmp\ccTUqUH8.ltrans3.ltrans.o
cliSerialPassthrough.lto_priv.656                 C:\cygwin64\tmp\ccTUqUH8.ltrans3.ltrans.o
cliServo.lto_priv.657                             C:\cygwin64\tmp\ccTUqUH8.ltrans3.ltrans.o
cliServoMix.lto_priv.659                          C:\cygwin64\tmp\ccTUqUH8.ltrans3.ltrans.o
cliSet.lto_priv.658                               C:\cygwin64\tmp\ccTUqUH8.ltrans3.ltrans.o
cliStatus.lto_priv.660                            C:\cygwin64\tmp\ccTUqUH8.ltrans3.ltrans.o
cliTasks.lto_priv.661                             C:\cygwin64\tmp\ccTUqUH8.ltrans3.ltrans.o
cliVersion.lto_priv.662                           C:\cygwin64\tmp\ccTUqUH8.ltrans3.ltrans.o
cliVtx.lto_priv.663                               C:\cygwin64\tmp\ccTUqUH8.ltrans3.ltrans.o
cliWrite.lto_priv.678                             C:\cygwin64\tmp\ccTUqUH8.ltrans3.ltrans.o
                                                  C:\cygwin64\tmp\ccTUqUH8.ltrans0.ltrans.o
cliWriter.lto_priv.620                            C:\cygwin64\tmp\ccTUqUH8.ltrans3.ltrans.o
                                                  C:\cygwin64\tmp\ccTUqUH8.ltrans0.ltrans.o
closeSerialPort                                   C:\cygwin64\tmp\ccTUqUH8.ltrans4.ltrans.o
                                                  obj/main/BETAFLIGHTF3/io/serial.o (symbol from plugin)
                                                  C:\cygwin64\tmp\ccTUqUH8.ltrans2.ltrans.o
                                                  C:\cygwin64\tmp\ccTUqUH8.ltrans1.ltrans.o
                                                  C:\cygwin64\tmp\ccTUqUH8.ltrans0.ltrans.o
                                                  obj/main/BETAFLIGHTF3/telemetry/ltm.o (symbol from plugin)
                                                  obj/main/BETAFLIGHTF3/telemetry/smartport.o (symbol from plugin)
                                                  obj/main/BETAFLIGHTF3/telemetry/hott.o (symbol from plugin)
                                                  obj/main/BETAFLIGHTF3/telemetry/frsky_hub.o (symbol from plugin)
                                                  obj/main/BETAFLIGHTF3/io/rcdevice.o (symbol from plugin)
                                                  obj/main/BETAFLIGHTF3/blackbox/blackbox_io.o (symbol from plugin)
                                                  obj/main/BETAFLIGHTF3/msp/msp_serial.o (symbol from plugin)
cmdTable                                          C:\cygwin64\tmp\ccTUqUH8.ltrans3.ltrans.o
                                                  obj/main/BETAFLIGHTF3/interface/cli.o (symbol from plugin)
                                                  C:\cygwin64\tmp\ccTUqUH8.ltrans0.ltrans.o
cmsCurrentDevice.lto_priv.479                     C:\cygwin64\tmp\ccTUqUH8.ltrans1.ltrans.o
                                                  C:\cygwin64\tmp\ccTUqUH8.ltrans4.ltrans.o
cmsDeviceCount.lto_priv.478                       C:\cygwin64\tmp\ccTUqUH8.ltrans1.ltrans.o
                                                  C:\cygwin64\tmp\ccTUqUH8.ltrans4.ltrans.o
cmsDisplayPortRegister                            C:\cygwin64\tmp\ccTUqUH8.ltrans1.ltrans.o
                                                  obj/main/BETAFLIGHTF3/cms/cms.o (symbol from plugin)
                                                  C:\cygwin64\tmp\ccTUqUH8.ltrans4.ltrans.o
                                                  obj/main/BETAFLIGHTF3/fc/fc_init.o (symbol from plugin)
                                                  obj/main/BETAFLIGHTF3/io/osd.o (symbol from plugin)
cmsHandleKeyWithRepeat                            obj/main/BETAFLIGHTF3/cms/cms.o (symbol from plugin)
cmsHandler                                        C:\cygwin64\tmp\ccTUqUH8.ltrans1.ltrans.o
                                                  obj/main/BETAFLIGHTF3/cms/cms.o (symbol from plugin)
                                                  C:\cygwin64\tmp\ccTUqUH8.ltrans3.ltrans.o
                                                  obj/main/BETAFLIGHTF3/fc/fc_tasks.o (symbol from plugin)
cmsInMenu                                         C:\cygwin64\tmp\ccTUqUH8.ltrans2.ltrans.o
                                                  obj/main/BETAFLIGHTF3/cms/cms.o (symbol from plugin)
                                                  C:\cygwin64\tmp\ccTUqUH8.ltrans1.ltrans.o
                                                  C:\cygwin64\tmp\ccTUqUH8.ltrans0.ltrans.o
                                                  obj/main/BETAFLIGHTF3/io/rcdevice_cam.o (symbol from plugin)
                                                  obj/main/BETAFLIGHTF3/fc/rc_controls.o (symbol from plugin)
cmsInit                                           obj/main/BETAFLIGHTF3/cms/cms.o (symbol from plugin)
                                                  obj/main/BETAFLIGHTF3/fc/fc_init.o (symbol from plugin)
cmsMenuChange                                     obj/main/BETAFLIGHTF3/cms/cms.o (symbol from plugin)
                                                  obj/main/BETAFLIGHTF3/cms/cms_menu_vtx_tramp.o (symbol from plugin)
                                                  obj/main/BETAFLIGHTF3/cms/cms_menu_vtx_smartaudio.o (symbol from plugin)
                                                  obj/main/BETAFLIGHTF3/cms/cms_menu_osd.o (symbol from plugin)
                                                  obj/main/BETAFLIGHTF3/cms/cms_menu_misc.o (symbol from plugin)
                                                  obj/main/BETAFLIGHTF3/cms/cms_menu_imu.o (symbol from plugin)
                                                  obj/main/BETAFLIGHTF3/cms/cms_menu_builtin.o (symbol from plugin)
cmsMenuExit                                       obj/main/BETAFLIGHTF3/cms/cms.o (symbol from plugin)
                                                  obj/main/BETAFLIGHTF3/cms/cms_menu_builtin.o (symbol from plugin)
cmsUpdate                                         obj/main/BETAFLIGHTF3/cms/cms.o (symbol from plugin)
cmsx_menuBlackbox                                 obj/main/BETAFLIGHTF3/cms/cms_menu_blackbox.o (symbol from plugin)
                                                  obj/main/BETAFLIGHTF3/cms/cms_menu_builtin.o (symbol from plugin)
cmsx_menuCopyProfile                              obj/main/BETAFLIGHTF3/cms/cms_menu_imu.o (symbol from plugin)
cmsx_menuImu                                      obj/main/BETAFLIGHTF3/cms/cms_menu_imu.o (symbol from plugin)
                                                  obj/main/BETAFLIGHTF3/cms/cms_menu_builtin.o (symbol from plugin)
cmsx_menuLedstrip                                 obj/main/BETAFLIGHTF3/cms/cms_menu_ledstrip.o (symbol from plugin)
                                                  obj/main/BETAFLIGHTF3/cms/cms_menu_builtin.o (symbol from plugin)
cmsx_menuMisc                                     obj/main/BETAFLIGHTF3/cms/cms_menu_misc.o (symbol from plugin)
                                                  obj/main/BETAFLIGHTF3/cms/cms_menu_builtin.o (symbol from plugin)
cmsx_menuOsd                                      obj/main/BETAFLIGHTF3/cms/cms_menu_osd.o (symbol from plugin)
                                                  obj/main/BETAFLIGHTF3/cms/cms_menu_builtin.o (symbol from plugin)
cmsx_menuOsdEntries                               obj/main/BETAFLIGHTF3/cms/cms_menu_osd.o (symbol from plugin)
cmsx_menuRcPreview                                obj/main/BETAFLIGHTF3/cms/cms_menu_misc.o (symbol from plugin)
cmsx_menuVtxSmartAudio                            obj/main/BETAFLIGHTF3/cms/cms_menu_vtx_smartaudio.o (symbol from plugin)
                                                  obj/main/BETAFLIGHTF3/cms/cms_menu_builtin.o (symbol from plugin)
cmsx_menuVtxTramp                                 obj/main/BETAFLIGHTF3/cms/cms_menu_vtx_tramp.o (symbol from plugin)
                                                  obj/main/BETAFLIGHTF3/cms/cms_menu_builtin.o (symbol from plugin)
colors                                            obj/main/BETAFLIGHTF3/telemetry/ltm.o (symbol from plugin)
                                                  obj/main/BETAFLIGHTF3/io/ledstrip.o (symbol from plugin)
                                                  obj/main/BETAFLIGHTF3/interface/settings.o (symbol from plugin)
                                                  obj/main/BETAFLIGHTF3/interface/cli.o (symbol from plugin)
                                                  obj/main/BETAFLIGHTF3/fc/fc_init.o (symbol from plugin)
                                                  obj/main/BETAFLIGHTF3/interface/msp.o (symbol from plugin)
                                                  obj/main/BETAFLIGHTF3/fc/fc_tasks.o (symbol from plugin)
                                                  obj/main/BETAFLIGHTF3/fc/config.o (symbol from plugin)
compassConfig_Copy                                obj/main/BETAFLIGHTF3/sensors/compass.o (symbol from plugin)
compassConfig_Registry                            C:\cygwin64\tmp\ccTUqUH8.ltrans1.ltrans.o
                                                  obj/main/BETAFLIGHTF3/sensors/compass.o (symbol from plugin)
compassConfig_System                              C:\cygwin64\tmp\ccTUqUH8.ltrans1.ltrans.o
                                                  obj/main/BETAFLIGHTF3/sensors/compass.o (symbol from plugin)
                                                  C:\cygwin64\tmp\ccTUqUH8.ltrans4.ltrans.o
                                                  C:\cygwin64\tmp\ccTUqUH8.ltrans0.ltrans.o
                                                  obj/main/BETAFLIGHTF3/blackbox/blackbox.o (symbol from plugin)
                                                  obj/main/BETAFLIGHTF3/interface/msp.o (symbol from plugin)
configTimeBase                                    obj/main/BETAFLIGHTF3/drivers/timer.o (symbol from plugin)
                                                  obj/main/BETAFLIGHTF3/drivers/pwm_output.o (symbol from plugin)
config_streamer_finish                            obj/main/BETAFLIGHTF3/config/config_streamer.o (symbol from plugin)
                                                  obj/main/BETAFLIGHTF3/config/config_eeprom.o (symbol from plugin)
config_streamer_flush                             obj/main/BETAFLIGHTF3/config/config_streamer.o (symbol from plugin)
                                                  obj/main/BETAFLIGHTF3/config/config_eeprom.o (symbol from plugin)
config_streamer_init                              obj/main/BETAFLIGHTF3/config/config_streamer.o (symbol from plugin)
                                                  obj/main/BETAFLIGHTF3/config/config_eeprom.o (symbol from plugin)
config_streamer_start                             obj/main/BETAFLIGHTF3/config/config_streamer.o (symbol from plugin)
                                                  obj/main/BETAFLIGHTF3/config/config_eeprom.o (symbol from plugin)
config_streamer_status                            obj/main/BETAFLIGHTF3/config/config_streamer.o (symbol from plugin)
config_streamer_write                             obj/main/BETAFLIGHTF3/config/config_streamer.o (symbol from plugin)
                                                  obj/main/BETAFLIGHTF3/config/config_eeprom.o (symbol from plugin)
configureHoTTTelemetryPort                        obj/main/BETAFLIGHTF3/telemetry/hott.o (symbol from plugin)
configureLtmTelemetryPort                         obj/main/BETAFLIGHTF3/telemetry/ltm.o (symbol from plugin)
consumptionState.lto_priv.618                     C:\cygwin64\tmp\ccTUqUH8.ltrans4.ltrans.o
                                                  C:\cygwin64\tmp\ccTUqUH8.ltrans0.ltrans.o
controlRateProfiles_CopyArray                     obj/main/BETAFLIGHTF3/fc/controlrate_profile.o (symbol from plugin)
controlRateProfiles_Registry                      C:\cygwin64\tmp\ccTUqUH8.ltrans1.ltrans.o
                                                  obj/main/BETAFLIGHTF3/fc/controlrate_profile.o (symbol from plugin)
controlRateProfiles_SystemArray                   C:\cygwin64\tmp\ccTUqUH8.ltrans1.ltrans.o
                                                  obj/main/BETAFLIGHTF3/fc/controlrate_profile.o (symbol from plugin)
                                                  C:\cygwin64\tmp\ccTUqUH8.ltrans4.ltrans.o
                                                  C:\cygwin64\tmp\ccTUqUH8.ltrans0.ltrans.o
                                                  obj/main/BETAFLIGHTF3/cms/cms_menu_imu.o (symbol from plugin)
                                                  obj/main/BETAFLIGHTF3/blackbox/blackbox.o (symbol from plugin)
convertExternalToMotor                            C:\cygwin64\tmp\ccTUqUH8.ltrans3.ltrans.o
                                                  obj/main/BETAFLIGHTF3/flight/mixer.o (symbol from plugin)
                                                  C:\cygwin64\tmp\ccTUqUH8.ltrans4.ltrans.o
                                                  obj/main/BETAFLIGHTF3/interface/cli.o (symbol from plugin)
                                                  obj/main/BETAFLIGHTF3/interface/msp.o (symbol from plugin)
convertMotorToExternal                            obj/main/BETAFLIGHTF3/flight/mixer.o (symbol from plugin)
                                                  obj/main/BETAFLIGHTF3/interface/msp.o (symbol from plugin)
convertSpektrumVtxPowerIndex                      obj/main/BETAFLIGHTF3/io/spektrum_vtx_control.o (symbol from plugin)
copyControlRateProfile                            C:\cygwin64\tmp\ccTUqUH8.ltrans4.ltrans.o
                                                  obj/main/BETAFLIGHTF3/fc/controlrate_profile.o (symbol from plugin)
                                                  C:\cygwin64\tmp\ccTUqUH8.ltrans1.ltrans.o
                                                  obj/main/BETAFLIGHTF3/cms/cms_menu_imu.o (symbol from plugin)
                                                  obj/main/BETAFLIGHTF3/interface/msp.o (symbol from plugin)
cos_approx                                        obj/main/BETAFLIGHTF3/common/maths.o (symbol from plugin)
                                                  obj/main/BETAFLIGHTF3/sensors/gyroanalyse.o (symbol from plugin)
                                                  obj/main/BETAFLIGHTF3/flight/imu.o (symbol from plugin)
                                                  obj/main/BETAFLIGHTF3/fc/fc_rc.o (symbol from plugin)
                                                  obj/main/BETAFLIGHTF3/common/filter.o (symbol from plugin)
crashRecoveryModeActive                           obj/main/BETAFLIGHTF3/flight/pid.o (symbol from plugin)
                                                  obj/main/BETAFLIGHTF3/flight/failsafe.o (symbol from plugin)
crc16_ccitt                                       obj/main/BETAFLIGHTF3/common/crc.o (symbol from plugin)
                                                  obj/main/BETAFLIGHTF3/rx/sumd.o (symbol from plugin)
                                                  obj/main/BETAFLIGHTF3/drivers/rx/rx_xn297.o (symbol from plugin)
crc16_ccitt_sbuf_append                           obj/main/BETAFLIGHTF3/common/crc.o (symbol from plugin)
                                                  obj/main/BETAFLIGHTF3/telemetry/srxl.o (symbol from plugin)
crc16_ccitt_update                                C:\cygwin64\tmp\ccTUqUH8.ltrans5.ltrans.o
                                                  obj/main/BETAFLIGHTF3/common/crc.o (symbol from plugin)
                                                  obj/main/BETAFLIGHTF3/rx/xbus.o (symbol from plugin)
                                                  obj/main/BETAFLIGHTF3/config/config_eeprom.o (symbol from plugin)
crc8_dvb_s2                                       obj/main/BETAFLIGHTF3/common/crc.o (symbol from plugin)
                                                  obj/main/BETAFLIGHTF3/io/rcdevice.o (symbol from plugin)
                                                  obj/main/BETAFLIGHTF3/rx/crsf.o (symbol from plugin)
crc8_dvb_s2_sbuf_append                           C:\cygwin64\tmp\ccTUqUH8.ltrans5.ltrans.o
                                                  obj/main/BETAFLIGHTF3/common/crc.o (symbol from plugin)
                                                  C:\cygwin64\tmp\ccTUqUH8.ltrans2.ltrans.o
                                                  obj/main/BETAFLIGHTF3/telemetry/crsf.o (symbol from plugin)
                                                  obj/main/BETAFLIGHTF3/io/rcdevice.o (symbol from plugin)
crc8_dvb_s2_update                                obj/main/BETAFLIGHTF3/common/crc.o (symbol from plugin)
crc8_xor_sbuf_append                              obj/main/BETAFLIGHTF3/common/crc.o (symbol from plugin)
crc8_xor_update                                   obj/main/BETAFLIGHTF3/common/crc.o (symbol from plugin)
createExBusMessage                                obj/main/BETAFLIGHTF3/telemetry/jetiexbus.o (symbol from plugin)
createExTelemetrieTextMessage                     obj/main/BETAFLIGHTF3/telemetry/jetiexbus.o (symbol from plugin)
createExTelemetrieValueMessage                    obj/main/BETAFLIGHTF3/telemetry/jetiexbus.o (symbol from plugin)
crsfFinalize.lto_priv.668                         C:\cygwin64\tmp\ccTUqUH8.ltrans2.ltrans.o
                                                  C:\cygwin64\tmp\ccTUqUH8.ltrans0.ltrans.o
crsfFrame.lto_priv.572                            C:\cygwin64\tmp\ccTUqUH8.ltrans2.ltrans.o
                                                  C:\cygwin64\tmp\ccTUqUH8.ltrans0.ltrans.o
crsfFrameAttitude                                 obj/main/BETAFLIGHTF3/telemetry/crsf.o (symbol from plugin)
crsfFrameBatterySensor                            obj/main/BETAFLIGHTF3/telemetry/crsf.o (symbol from plugin)
crsfFrameDeviceInfo                               obj/main/BETAFLIGHTF3/telemetry/crsf.o (symbol from plugin)
crsfFrameFlightMode                               obj/main/BETAFLIGHTF3/telemetry/crsf.o (symbol from plugin)
crsfFrameGps                                      obj/main/BETAFLIGHTF3/telemetry/crsf.o (symbol from plugin)
crsfRxInit                                        obj/main/BETAFLIGHTF3/rx/crsf.o (symbol from plugin)
                                                  obj/main/BETAFLIGHTF3/rx/rx.o (symbol from plugin)
crsfRxIsActive                                    obj/main/BETAFLIGHTF3/rx/crsf.o (symbol from plugin)
                                                  obj/main/BETAFLIGHTF3/telemetry/crsf.o (symbol from plugin)
crsfRxSendTelemetryData                           obj/main/BETAFLIGHTF3/rx/crsf.o (symbol from plugin)
                                                  obj/main/BETAFLIGHTF3/telemetry/crsf.o (symbol from plugin)
crsfRxWriteTelemetryData                          obj/main/BETAFLIGHTF3/rx/crsf.o (symbol from plugin)
                                                  obj/main/BETAFLIGHTF3/telemetry/crsf.o (symbol from plugin)
crsfSchedule.lto_priv.571                         C:\cygwin64\tmp\ccTUqUH8.ltrans2.ltrans.o
                                                  C:\cygwin64\tmp\ccTUqUH8.ltrans0.ltrans.o
crsfScheduleCount.lto_priv.570                    C:\cygwin64\tmp\ccTUqUH8.ltrans2.ltrans.o
                                                  C:\cygwin64\tmp\ccTUqUH8.ltrans0.ltrans.o
crsfScheduleDeviceInfoResponse                    obj/main/BETAFLIGHTF3/telemetry/crsf.o (symbol from plugin)
                                                  obj/main/BETAFLIGHTF3/rx/crsf.o (symbol from plugin)
crsfScheduleMspResponse                           obj/main/BETAFLIGHTF3/telemetry/crsf.o (symbol from plugin)
                                                  obj/main/BETAFLIGHTF3/rx/crsf.o (symbol from plugin)
crsfSendMspResponse                               C:\cygwin64\tmp\ccTUqUH8.ltrans2.ltrans.o
                                                  obj/main/BETAFLIGHTF3/telemetry/crsf.o (symbol from plugin)
                                                  C:\cygwin64\tmp\ccTUqUH8.ltrans0.ltrans.o
crsfTelemetryEnabled.lto_priv.569                 C:\cygwin64\tmp\ccTUqUH8.ltrans2.ltrans.o
                                                  C:\cygwin64\tmp\ccTUqUH8.ltrans0.ltrans.o
currentBeeperEntry.lto_priv.597                   C:\cygwin64\tmp\ccTUqUH8.ltrans4.ltrans.o
                                                  C:\cygwin64\tmp\ccTUqUH8.ltrans0.ltrans.o
currentControlRateProfile                         C:\cygwin64\tmp\ccTUqUH8.ltrans2.ltrans.o
                                                  obj/main/BETAFLIGHTF3/fc/controlrate_profile.o (symbol from plugin)
                                                  C:\cygwin64\tmp\ccTUqUH8.ltrans4.ltrans.o
                                                  C:\cygwin64\tmp\ccTUqUH8.ltrans3.ltrans.o
                                                  C:\cygwin64\tmp\ccTUqUH8.ltrans0.ltrans.o
                                                  obj/main/BETAFLIGHTF3/telemetry/smartport.o (symbol from plugin)
                                                  obj/main/BETAFLIGHTF3/fc/fc_rc.o (symbol from plugin)
                                                  obj/main/BETAFLIGHTF3/fc/fc_core.o (symbol from plugin)
                                                  obj/main/BETAFLIGHTF3/interface/msp.o (symbol from plugin)
currentMeter.lto_priv.336                         C:\cygwin64\tmp\ccTUqUH8.ltrans2.ltrans.o
                                                  C:\cygwin64\tmp\ccTUqUH8.ltrans5.ltrans.o
                                                  C:\cygwin64\tmp\ccTUqUH8.ltrans4.ltrans.o
                                                  C:\cygwin64\tmp\ccTUqUH8.ltrans1.ltrans.o
                                                  C:\cygwin64\tmp\ccTUqUH8.ltrans0.ltrans.o
currentMeterADCInit                               obj/main/BETAFLIGHTF3/sensors/current.o (symbol from plugin)
                                                  obj/main/BETAFLIGHTF3/sensors/battery.o (symbol from plugin)
currentMeterADCRead                               obj/main/BETAFLIGHTF3/sensors/current.o (symbol from plugin)
                                                  obj/main/BETAFLIGHTF3/sensors/battery.o (symbol from plugin)
currentMeterADCRefresh                            obj/main/BETAFLIGHTF3/sensors/current.o (symbol from plugin)
                                                  obj/main/BETAFLIGHTF3/sensors/battery.o (symbol from plugin)
currentMeterADCState                              obj/main/BETAFLIGHTF3/sensors/current.o (symbol from plugin)
currentMeterESCInit                               obj/main/BETAFLIGHTF3/sensors/current.o (symbol from plugin)
currentMeterESCReadCombined                       obj/main/BETAFLIGHTF3/sensors/current.o (symbol from plugin)
                                                  obj/main/BETAFLIGHTF3/sensors/battery.o (symbol from plugin)
currentMeterESCReadMotor                          obj/main/BETAFLIGHTF3/sensors/current.o (symbol from plugin)
currentMeterESCRefresh                            obj/main/BETAFLIGHTF3/sensors/current.o (symbol from plugin)
                                                  obj/main/BETAFLIGHTF3/sensors/battery.o (symbol from plugin)
currentMeterESCState                              obj/main/BETAFLIGHTF3/sensors/current.o (symbol from plugin)
currentMeterIds                                   obj/main/BETAFLIGHTF3/sensors/current.o (symbol from plugin)
                                                  obj/main/BETAFLIGHTF3/interface/msp.o (symbol from plugin)
currentMeterRead                                  obj/main/BETAFLIGHTF3/sensors/current.o (symbol from plugin)
                                                  obj/main/BETAFLIGHTF3/interface/msp.o (symbol from plugin)
currentMeterReset                                 obj/main/BETAFLIGHTF3/sensors/current.o (symbol from plugin)
                                                  obj/main/BETAFLIGHTF3/sensors/battery.o (symbol from plugin)
currentMeterVirtualInit                           obj/main/BETAFLIGHTF3/sensors/current.o (symbol from plugin)
                                                  obj/main/BETAFLIGHTF3/sensors/battery.o (symbol from plugin)
currentMeterVirtualRead                           obj/main/BETAFLIGHTF3/sensors/current.o (symbol from plugin)
                                                  obj/main/BETAFLIGHTF3/sensors/battery.o (symbol from plugin)
currentMeterVirtualRefresh                        obj/main/BETAFLIGHTF3/sensors/current.o (symbol from plugin)
                                                  obj/main/BETAFLIGHTF3/sensors/battery.o (symbol from plugin)
currentMeterVirtualState                          obj/main/BETAFLIGHTF3/sensors/current.o (symbol from plugin)
currentMixerMode                                  C:\cygwin64\tmp\ccTUqUH8.ltrans3.ltrans.o
                                                  obj/main/BETAFLIGHTF3/flight/mixer.o (symbol from plugin)
                                                  C:\cygwin64\tmp\ccTUqUH8.ltrans4.ltrans.o
                                                  obj/main/BETAFLIGHTF3/flight/servos.o (symbol from plugin)
currentPidProfile                                 C:\cygwin64\tmp\ccTUqUH8.ltrans2.ltrans.o
                                                  obj/main/BETAFLIGHTF3/fc/config.o (symbol from plugin)
                                                  C:\cygwin64\tmp\ccTUqUH8.ltrans5.ltrans.o
                                                  C:\cygwin64\tmp\ccTUqUH8.ltrans4.ltrans.o
                                                  C:\cygwin64\tmp\ccTUqUH8.ltrans3.ltrans.o
                                                  C:\cygwin64\tmp\ccTUqUH8.ltrans1.ltrans.o
                                                  C:\cygwin64\tmp\ccTUqUH8.ltrans0.ltrans.o
                                                  obj/main/BETAFLIGHTF3/telemetry/smartport.o (symbol from plugin)
                                                  obj/main/BETAFLIGHTF3/cms/cms_menu_imu.o (symbol from plugin)
                                                  obj/main/BETAFLIGHTF3/blackbox/blackbox.o (symbol from plugin)
                                                  obj/main/BETAFLIGHTF3/flight/mixer.o (symbol from plugin)
                                                  obj/main/BETAFLIGHTF3/fc/fc_rc.o (symbol from plugin)
                                                  obj/main/BETAFLIGHTF3/fc/fc_core.o (symbol from plugin)
                                                  obj/main/BETAFLIGHTF3/fc/fc_init.o (symbol from plugin)
                                                  obj/main/BETAFLIGHTF3/interface/msp.o (symbol from plugin)
                                                  obj/main/BETAFLIGHTF3/io/osd.o (symbol from plugin)
currentSensorADCConfig_Copy                       obj/main/BETAFLIGHTF3/sensors/current.o (symbol from plugin)
currentSensorADCConfig_Registry                   C:\cygwin64\tmp\ccTUqUH8.ltrans1.ltrans.o
                                                  obj/main/BETAFLIGHTF3/sensors/current.o (symbol from plugin)
currentSensorADCConfig_System                     C:\cygwin64\tmp\ccTUqUH8.ltrans1.ltrans.o
                                                  obj/main/BETAFLIGHTF3/sensors/current.o (symbol from plugin)
                                                  C:\cygwin64\tmp\ccTUqUH8.ltrans4.ltrans.o
                                                  obj/main/BETAFLIGHTF3/blackbox/blackbox.o (symbol from plugin)
                                                  obj/main/BETAFLIGHTF3/interface/msp.o (symbol from plugin)
currentSensorVirtualConfig_Copy                   obj/main/BETAFLIGHTF3/sensors/current.o (symbol from plugin)
currentSensorVirtualConfig_Registry               C:\cygwin64\tmp\ccTUqUH8.ltrans4.ltrans.o
                                                  obj/main/BETAFLIGHTF3/sensors/current.o (symbol from plugin)
currentSensorVirtualConfig_System                 obj/main/BETAFLIGHTF3/sensors/current.o (symbol from plugin)
                                                  obj/main/BETAFLIGHTF3/interface/msp.o (symbol from plugin)
currentTask.lto_priv.484                          C:\cygwin64\tmp\ccTUqUH8.ltrans3.ltrans.o
                                                  C:\cygwin64\tmp\ccTUqUH8.ltrans4.ltrans.o
                                                  C:\cygwin64\tmp\ccTUqUH8.ltrans0.ltrans.o
customMotorMixer_CopyArray                        C:\cygwin64\tmp\ccTUqUH8.ltrans6.ltrans.o
                                                  obj/main/BETAFLIGHTF3/flight/mixer.o (symbol from plugin)
                                                  C:\cygwin64\tmp\ccTUqUH8.ltrans3.ltrans.o
                                                  obj/main/BETAFLIGHTF3/interface/cli.o (symbol from plugin)
customMotorMixer_Registry                         C:\cygwin64\tmp\ccTUqUH8.ltrans6.ltrans.o
                                                  obj/main/BETAFLIGHTF3/flight/mixer.o (symbol from plugin)
customMotorMixer_SystemArray                      C:\cygwin64\tmp\ccTUqUH8.ltrans6.ltrans.o
                                                  obj/main/BETAFLIGHTF3/flight/mixer.o (symbol from plugin)
                                                  C:\cygwin64\tmp\ccTUqUH8.ltrans3.ltrans.o
                                                  obj/main/BETAFLIGHTF3/interface/cli.o (symbol from plugin)
customServoMixers_CopyArray                       obj/main/BETAFLIGHTF3/flight/servos.o (symbol from plugin)
                                                  obj/main/BETAFLIGHTF3/interface/cli.o (symbol from plugin)
customServoMixers_Registry                        C:\cygwin64\tmp\ccTUqUH8.ltrans3.ltrans.o
                                                  obj/main/BETAFLIGHTF3/flight/servos.o (symbol from plugin)
customServoMixers_SystemArray                     C:\cygwin64\tmp\ccTUqUH8.ltrans3.ltrans.o
                                                  obj/main/BETAFLIGHTF3/flight/servos.o (symbol from plugin)
                                                  C:\cygwin64\tmp\ccTUqUH8.ltrans4.ltrans.o
                                                  C:\cygwin64\tmp\ccTUqUH8.ltrans0.ltrans.o
                                                  obj/main/BETAFLIGHTF3/interface/cli.o (symbol from plugin)
                                                  obj/main/BETAFLIGHTF3/interface/msp.o (symbol from plugin)
cycleCounterInit                                  obj/main/BETAFLIGHTF3/drivers/system.o (symbol from plugin)
                                                  obj/main/BETAFLIGHTF3/drivers/system_stm32f30x.o (symbol from plugin)
dateTimeFormat.lto_priv.405                       C:\cygwin64\tmp\ccTUqUH8.ltrans5.ltrans.o
                                                  C:\cygwin64\tmp\ccTUqUH8.ltrans3.ltrans.o
                                                  C:\cygwin64\tmp\ccTUqUH8.ltrans1.ltrans.o
dateTimeFormatLocal                               obj/main/BETAFLIGHTF3/common/time.o (symbol from plugin)
                                                  obj/main/BETAFLIGHTF3/blackbox/blackbox.o (symbol from plugin)
                                                  obj/main/BETAFLIGHTF3/interface/cli.o (symbol from plugin)
dateTimeFormatLocalShort                          obj/main/BETAFLIGHTF3/common/time.o (symbol from plugin)
                                                  obj/main/BETAFLIGHTF3/io/osd.o (symbol from plugin)
dateTimeFormatUTC                                 obj/main/BETAFLIGHTF3/common/time.o (symbol from plugin)
dateTimeSplitFormatted                            obj/main/BETAFLIGHTF3/common/time.o (symbol from plugin)
dateTimeToRtcTime.lto_priv.553                    C:\cygwin64\tmp\ccTUqUH8.ltrans5.ltrans.o
                                                  C:\cygwin64\tmp\ccTUqUH8.ltrans4.ltrans.o
dateTimeUTCToLocal                                obj/main/BETAFLIGHTF3/common/time.o (symbol from plugin)
debug                                             C:\cygwin64\tmp\ccTUqUH8.ltrans2.ltrans.o
                                                  obj/main/BETAFLIGHTF3/build/debug.o (symbol from plugin)
                                                  C:\cygwin64\tmp\ccTUqUH8.ltrans5.ltrans.o
                                                  C:\cygwin64\tmp\ccTUqUH8.ltrans4.ltrans.o
                                                  C:\cygwin64\tmp\ccTUqUH8.ltrans3.ltrans.o
                                                  C:\cygwin64\tmp\ccTUqUH8.ltrans1.ltrans.o
                                                  C:\cygwin64\tmp\ccTUqUH8.ltrans0.ltrans.o
                                                  obj/main/BETAFLIGHTF3/sensors/esc_sensor.o (symbol from plugin)
                                                  obj/main/BETAFLIGHTF3/blackbox/blackbox.o (symbol from plugin)
                                                  obj/main/BETAFLIGHTF3/sensors/gyroanalyse.o (symbol from plugin)
                                                  obj/main/BETAFLIGHTF3/sensors/gyro.o (symbol from plugin)
                                                  obj/main/BETAFLIGHTF3/sensors/acceleration.o (symbol from plugin)
                                                  obj/main/BETAFLIGHTF3/rx/fport.o (symbol from plugin)
                                                  obj/main/BETAFLIGHTF3/rx/sbus.o (symbol from plugin)
                                                  obj/main/BETAFLIGHTF3/fc/fc_rc.o (symbol from plugin)
                                                  obj/main/BETAFLIGHTF3/fc/fc_core.o (symbol from plugin)
                                                  obj/main/BETAFLIGHTF3/sensors/battery.o (symbol from plugin)
                                                  obj/main/BETAFLIGHTF3/interface/msp.o (symbol from plugin)
                                                  obj/main/BETAFLIGHTF3/io/osd.o (symbol from plugin)
                                                  obj/main/BETAFLIGHTF3/drivers/max7456.o (symbol from plugin)
debugMode                                         C:\cygwin64\tmp\ccTUqUH8.ltrans2.ltrans.o
                                                  obj/main/BETAFLIGHTF3/build/debug.o (symbol from plugin)
                                                  C:\cygwin64\tmp\ccTUqUH8.ltrans4.ltrans.o
                                                  C:\cygwin64\tmp\ccTUqUH8.ltrans3.ltrans.o
                                                  C:\cygwin64\tmp\ccTUqUH8.ltrans1.ltrans.o
                                                  C:\cygwin64\tmp\ccTUqUH8.ltrans0.ltrans.o
                                                  obj/main/BETAFLIGHTF3/sensors/esc_sensor.o (symbol from plugin)
                                                  obj/main/BETAFLIGHTF3/blackbox/blackbox.o (symbol from plugin)
                                                  obj/main/BETAFLIGHTF3/sensors/gyroanalyse.o (symbol from plugin)
                                                  obj/main/BETAFLIGHTF3/sensors/gyro.o (symbol from plugin)
                                                  obj/main/BETAFLIGHTF3/sensors/acceleration.o (symbol from plugin)
                                                  obj/main/BETAFLIGHTF3/rx/fport.o (symbol from plugin)
                                                  obj/main/BETAFLIGHTF3/rx/sbus.o (symbol from plugin)
                                                  obj/main/BETAFLIGHTF3/fc/fc_rc.o (symbol from plugin)
                                                  obj/main/BETAFLIGHTF3/fc/fc_core.o (symbol from plugin)
                                                  obj/main/BETAFLIGHTF3/fc/fc_init.o (symbol from plugin)
                                                  obj/main/BETAFLIGHTF3/sensors/battery.o (symbol from plugin)
                                                  obj/main/BETAFLIGHTF3/drivers/max7456.o (symbol from plugin)
debugModeNames                                    C:\cygwin64\tmp\ccTUqUH8.ltrans1.ltrans.o
                                                  obj/main/BETAFLIGHTF3/build/debug.o (symbol from plugin)
                                                  C:\cygwin64\tmp\ccTUqUH8.ltrans3.ltrans.o
                                                  obj/main/BETAFLIGHTF3/cms/cms_menu_misc.o (symbol from plugin)
                                                  obj/main/BETAFLIGHTF3/interface/settings.o (symbol from plugin)
degreesToRadians                                  obj/main/BETAFLIGHTF3/common/maths.o (symbol from plugin)
                                                  obj/main/BETAFLIGHTF3/sensors/boardalignment.o (symbol from plugin)
                                                  obj/main/BETAFLIGHTF3/flight/imu.o (symbol from plugin)
delay                                             C:\cygwin64\tmp\ccTUqUH8.ltrans0.ltrans.o
                                                  obj/main/BETAFLIGHTF3/drivers/system.o (symbol from plugin)
                                                  C:\cygwin64\tmp\ccTUqUH8.ltrans6.ltrans.o
                                                  C:\cygwin64\tmp\ccTUqUH8.ltrans4.ltrans.o
                                                  C:\cygwin64\tmp\ccTUqUH8.ltrans3.ltrans.o
                                                  C:\cygwin64\tmp\ccTUqUH8.ltrans2.ltrans.o
                                                  C:\cygwin64\tmp\ccTUqUH8.ltrans1.ltrans.o
                                                  obj/main/BETAFLIGHTF3/drivers/usb_io.o (symbol from plugin)
                                                  obj/main/BETAFLIGHTF3/drivers/sdcard.o (symbol from plugin)
                                                  obj/main/BETAFLIGHTF3/drivers/serial_escserial.o (symbol from plugin)
                                                  obj/main/BETAFLIGHTF3/cms/cms.o (symbol from plugin)
                                                  obj/main/BETAFLIGHTF3/rx/spektrum.o (symbol from plugin)
                                                  obj/main/BETAFLIGHTF3/interface/cli.o (symbol from plugin)
                                                  obj/main/BETAFLIGHTF3/flight/mixer.o (symbol from plugin)
                                                  obj/main/BETAFLIGHTF3/fc/fc_core.o (symbol from plugin)
                                                  obj/main/BETAFLIGHTF3/drivers/pwm_output.o (symbol from plugin)
                                                  obj/main/BETAFLIGHTF3/drivers/camera_control.o (symbol from plugin)
                                                  obj/main/BETAFLIGHTF3/fc/fc_init.o (symbol from plugin)
                                                  obj/main/BETAFLIGHTF3/io/serial.o (symbol from plugin)
                                                  obj/main/BETAFLIGHTF3/io/beeper.o (symbol from plugin)
                                                  obj/main/BETAFLIGHTF3/drivers/accgyro/accgyro_spi_mpu6000.o (symbol from plugin)
                                                  obj/main/BETAFLIGHTF3/drivers/accgyro/accgyro_mpu.o (symbol from plugin)
                                                  obj/main/BETAFLIGHTF3/drivers/adc_stm32f30x.o (symbol from plugin)
delayMicroseconds                                 C:\cygwin64\tmp\ccTUqUH8.ltrans0.ltrans.o
                                                  obj/main/BETAFLIGHTF3/drivers/system.o (symbol from plugin)
                                                  C:\cygwin64\tmp\ccTUqUH8.ltrans6.ltrans.o
                                                  C:\cygwin64\tmp\ccTUqUH8.ltrans1.ltrans.o
                                                  obj/main/BETAFLIGHTF3/rx/spektrum.o (symbol from plugin)
                                                  obj/main/BETAFLIGHTF3/io/serial_4way_stk500v2.o (symbol from plugin)
                                                  obj/main/BETAFLIGHTF3/flight/mixer.o (symbol from plugin)
                                                  obj/main/BETAFLIGHTF3/drivers/accgyro/accgyro_spi_mpu6000.o (symbol from plugin)
detectedSensors                                   obj/main/BETAFLIGHTF3/sensors/initialisation.o (symbol from plugin)
                                                  obj/main/BETAFLIGHTF3/sensors/gyro.o (symbol from plugin)
                                                  obj/main/BETAFLIGHTF3/sensors/acceleration.o (symbol from plugin)
determinePortSharing                              C:\cygwin64\tmp\ccTUqUH8.ltrans4.ltrans.o
                                                  obj/main/BETAFLIGHTF3/io/serial.o (symbol from plugin)
                                                  C:\cygwin64\tmp\ccTUqUH8.ltrans2.ltrans.o
                                                  C:\cygwin64\tmp\ccTUqUH8.ltrans1.ltrans.o
                                                  obj/main/BETAFLIGHTF3/telemetry/ltm.o (symbol from plugin)
                                                  obj/main/BETAFLIGHTF3/telemetry/smartport.o (symbol from plugin)
                                                  obj/main/BETAFLIGHTF3/telemetry/hott.o (symbol from plugin)
                                                  obj/main/BETAFLIGHTF3/telemetry/frsky_hub.o (symbol from plugin)
                                                  obj/main/BETAFLIGHTF3/blackbox/blackbox_io.o (symbol from plugin)
determineServoMiddleOrForwardFromChannel          obj/main/BETAFLIGHTF3/flight/servos.o (symbol from plugin)
devClear                                          obj/main/BETAFLIGHTF3/common/maths.o (symbol from plugin)
                                                  obj/main/BETAFLIGHTF3/sensors/gyro.o (symbol from plugin)
devPush                                           obj/main/BETAFLIGHTF3/common/maths.o (symbol from plugin)
                                                  obj/main/BETAFLIGHTF3/sensors/gyro.o (symbol from plugin)
devStandardDeviation                              obj/main/BETAFLIGHTF3/common/maths.o (symbol from plugin)
                                                  obj/main/BETAFLIGHTF3/sensors/gyro.o (symbol from plugin)
devVariance                                       obj/main/BETAFLIGHTF3/common/maths.o (symbol from plugin)
deviceInfoReplyPending.lto_priv.346               C:\cygwin64\tmp\ccTUqUH8.ltrans2.ltrans.o
                                                  C:\cygwin64\tmp\ccTUqUH8.ltrans1.ltrans.o
                                                  C:\cygwin64\tmp\ccTUqUH8.ltrans0.ltrans.o
directionCodes.lto_priv.317                       C:\cygwin64\tmp\ccTUqUH8.ltrans6.ltrans.o
disableFlightMode                                 obj/main/BETAFLIGHTF3/fc/runtime_config.o (symbol from plugin)
                                                  obj/main/BETAFLIGHTF3/flight/failsafe.o (symbol from plugin)
                                                  obj/main/BETAFLIGHTF3/fc/fc_core.o (symbol from plugin)
disarm                                            C:\cygwin64\tmp\ccTUqUH8.ltrans4.ltrans.o
                                                  obj/main/BETAFLIGHTF3/fc/fc_core.o (symbol from plugin)
                                                  C:\cygwin64\tmp\ccTUqUH8.ltrans0.ltrans.o
                                                  obj/main/BETAFLIGHTF3/flight/failsafe.o (symbol from plugin)
                                                  obj/main/BETAFLIGHTF3/fc/rc_controls.o (symbol from plugin)
disarmAt.lto_priv.589                             C:\cygwin64\tmp\ccTUqUH8.ltrans4.ltrans.o
                                                  C:\cygwin64\tmp\ccTUqUH8.ltrans0.ltrans.o
dispatchAdd                                       obj/main/BETAFLIGHTF3/fc/fc_dispatch.o (symbol from plugin)
                                                  obj/main/BETAFLIGHTF3/rx/spektrum.o (symbol from plugin)
dispatchEnable                                    obj/main/BETAFLIGHTF3/fc/fc_dispatch.o (symbol from plugin)
                                                  obj/main/BETAFLIGHTF3/rx/spektrum.o (symbol from plugin)
dispatchEnabled.lto_priv.557                      C:\cygwin64\tmp\ccTUqUH8.ltrans1.ltrans.o
                                                  C:\cygwin64\tmp\ccTUqUH8.ltrans0.ltrans.o
dispatchIsEnabled                                 obj/main/BETAFLIGHTF3/fc/fc_dispatch.o (symbol from plugin)
                                                  obj/main/BETAFLIGHTF3/fc/fc_tasks.o (symbol from plugin)
dispatchProcess                                   C:\cygwin64\tmp\ccTUqUH8.ltrans0.ltrans.o
                                                  obj/main/BETAFLIGHTF3/fc/fc_dispatch.o (symbol from plugin)
                                                  C:\cygwin64\tmp\ccTUqUH8.ltrans3.ltrans.o
                                                  obj/main/BETAFLIGHTF3/fc/fc_tasks.o (symbol from plugin)
displayClearScreen                                C:\cygwin64\tmp\ccTUqUH8.ltrans5.ltrans.o
                                                  obj/main/BETAFLIGHTF3/drivers/display.o (symbol from plugin)
                                                  C:\cygwin64\tmp\ccTUqUH8.ltrans4.ltrans.o
                                                  C:\cygwin64\tmp\ccTUqUH8.ltrans1.ltrans.o
                                                  obj/main/BETAFLIGHTF3/cms/cms.o (symbol from plugin)
                                                  obj/main/BETAFLIGHTF3/io/osd.o (symbol from plugin)
displayDrawScreen                                 obj/main/BETAFLIGHTF3/drivers/display.o (symbol from plugin)
                                                  obj/main/BETAFLIGHTF3/io/osd.o (symbol from plugin)
displayGrab                                       C:\cygwin64\tmp\ccTUqUH8.ltrans5.ltrans.o
                                                  obj/main/BETAFLIGHTF3/drivers/display.o (symbol from plugin)
                                                  C:\cygwin64\tmp\ccTUqUH8.ltrans1.ltrans.o
                                                  obj/main/BETAFLIGHTF3/cms/cms.o (symbol from plugin)
displayHeartbeat                                  C:\cygwin64\tmp\ccTUqUH8.ltrans5.ltrans.o
                                                  obj/main/BETAFLIGHTF3/drivers/display.o (symbol from plugin)
                                                  C:\cygwin64\tmp\ccTUqUH8.ltrans1.ltrans.o
                                                  obj/main/BETAFLIGHTF3/cms/cms.o (symbol from plugin)
                                                  obj/main/BETAFLIGHTF3/io/osd.o (symbol from plugin)
displayInit                                       obj/main/BETAFLIGHTF3/drivers/display.o (symbol from plugin)
                                                  obj/main/BETAFLIGHTF3/io/displayport_srxl.o (symbol from plugin)
                                                  obj/main/BETAFLIGHTF3/io/displayport_rcdevice.o (symbol from plugin)
                                                  obj/main/BETAFLIGHTF3/io/displayport_oled.o (symbol from plugin)
                                                  obj/main/BETAFLIGHTF3/io/displayport_msp.o (symbol from plugin)
                                                  obj/main/BETAFLIGHTF3/io/displayport_max7456.o (symbol from plugin)
displayIsGrabbed                                  obj/main/BETAFLIGHTF3/drivers/display.o (symbol from plugin)
                                                  obj/main/BETAFLIGHTF3/io/osd.o (symbol from plugin)
displayIsTransferInProgress                       obj/main/BETAFLIGHTF3/drivers/display.o (symbol from plugin)
displayMemoryModeReg.lto_priv.689                 C:\cygwin64\tmp\ccTUqUH8.ltrans2.ltrans.o
                                                  C:\cygwin64\tmp\ccTUqUH8.ltrans5.ltrans.o
displayPortMspInit                                obj/main/BETAFLIGHTF3/io/displayport_msp.o (symbol from plugin)
                                                  obj/main/BETAFLIGHTF3/fc/fc_init.o (symbol from plugin)
displayPortOledInit                               obj/main/BETAFLIGHTF3/io/displayport_oled.o (symbol from plugin)
displayPortProfileMax7456_Copy                    obj/main/BETAFLIGHTF3/io/displayport_max7456.o (symbol from plugin)
displayPortProfileMax7456_Registry                C:\cygwin64\tmp\ccTUqUH8.ltrans2.ltrans.o
                                                  obj/main/BETAFLIGHTF3/io/displayport_max7456.o (symbol from plugin)
displayPortProfileMax7456_System                  C:\cygwin64\tmp\ccTUqUH8.ltrans2.ltrans.o
                                                  obj/main/BETAFLIGHTF3/io/displayport_max7456.o (symbol from plugin)
                                                  C:\cygwin64\tmp\ccTUqUH8.ltrans1.ltrans.o
                                                  obj/main/BETAFLIGHTF3/cms/cms_menu_osd.o (symbol from plugin)
displayPortProfileMsp_Copy                        obj/main/BETAFLIGHTF3/io/displayport_msp.o (symbol from plugin)
displayPortProfileMsp_Registry                    C:\cygwin64\tmp\ccTUqUH8.ltrans2.ltrans.o
                                                  obj/main/BETAFLIGHTF3/io/displayport_msp.o (symbol from plugin)
displayPortProfileMsp_System                      C:\cygwin64\tmp\ccTUqUH8.ltrans2.ltrans.o
                                                  obj/main/BETAFLIGHTF3/io/displayport_msp.o (symbol from plugin)
                                                  C:\cygwin64\tmp\ccTUqUH8.ltrans4.ltrans.o
displayPortSrxlInit                               obj/main/BETAFLIGHTF3/io/displayport_srxl.o (symbol from plugin)
                                                  obj/main/BETAFLIGHTF3/fc/fc_init.o (symbol from plugin)
displayRelease                                    obj/main/BETAFLIGHTF3/drivers/display.o (symbol from plugin)
                                                  obj/main/BETAFLIGHTF3/cms/cms.o (symbol from plugin)
displayReleaseAll                                 obj/main/BETAFLIGHTF3/drivers/display.o (symbol from plugin)
displayResync                                     obj/main/BETAFLIGHTF3/drivers/display.o (symbol from plugin)
                                                  obj/main/BETAFLIGHTF3/cms/cms.o (symbol from plugin)
                                                  obj/main/BETAFLIGHTF3/io/osd.o (symbol from plugin)
displayScreenSize                                 obj/main/BETAFLIGHTF3/drivers/display.o (symbol from plugin)
                                                  obj/main/BETAFLIGHTF3/io/osd.o (symbol from plugin)
displaySetXY                                      obj/main/BETAFLIGHTF3/drivers/display.o (symbol from plugin)
displayTxBytesFree                                obj/main/BETAFLIGHTF3/drivers/display.o (symbol from plugin)
                                                  obj/main/BETAFLIGHTF3/cms/cms.o (symbol from plugin)
displayWrite                                      C:\cygwin64\tmp\ccTUqUH8.ltrans5.ltrans.o
                                                  obj/main/BETAFLIGHTF3/drivers/display.o (symbol from plugin)
                                                  C:\cygwin64\tmp\ccTUqUH8.ltrans4.ltrans.o
                                                  C:\cygwin64\tmp\ccTUqUH8.ltrans1.ltrans.o
                                                  obj/main/BETAFLIGHTF3/cms/cms.o (symbol from plugin)
                                                  obj/main/BETAFLIGHTF3/io/osd.o (symbol from plugin)
displayWriteChar                                  C:\cygwin64\tmp\ccTUqUH8.ltrans5.ltrans.o
                                                  obj/main/BETAFLIGHTF3/drivers/display.o (symbol from plugin)
                                                  C:\cygwin64\tmp\ccTUqUH8.ltrans4.ltrans.o
                                                  obj/main/BETAFLIGHTF3/io/osd.o (symbol from plugin)
dmaDescriptors.lto_priv.412                       C:\cygwin64\tmp\ccTUqUH8.ltrans6.ltrans.o
                                                  C:\cygwin64\tmp\ccTUqUH8.ltrans5.ltrans.o
                                                  C:\cygwin64\tmp\ccTUqUH8.ltrans3.ltrans.o
dmaFlag_IT_TCIF                                   obj/main/BETAFLIGHTF3/drivers/dma.o (symbol from plugin)
dmaGetDescriptorByIdentifier                      obj/main/BETAFLIGHTF3/drivers/dma.o (symbol from plugin)
                                                  obj/main/BETAFLIGHTF3/drivers/sdcard.o (symbol from plugin)
dmaGetIdentifier                                  C:\cygwin64\tmp\ccTUqUH8.ltrans5.ltrans.o
                                                  obj/main/BETAFLIGHTF3/drivers/dma.o (symbol from plugin)
                                                  C:\cygwin64\tmp\ccTUqUH8.ltrans6.ltrans.o
                                                  C:\cygwin64\tmp\ccTUqUH8.ltrans4.ltrans.o
                                                  obj/main/BETAFLIGHTF3/pg/sdcard.o (symbol from plugin)
                                                  obj/main/BETAFLIGHTF3/drivers/serial_uart_stm32f30x.o (symbol from plugin)
                                                  obj/main/BETAFLIGHTF3/drivers/adc_stm32f30x.o (symbol from plugin)
dmaGetOwner                                       obj/main/BETAFLIGHTF3/drivers/dma.o (symbol from plugin)
                                                  obj/main/BETAFLIGHTF3/interface/cli.o (symbol from plugin)
dmaGetRefByIdentifier                             obj/main/BETAFLIGHTF3/drivers/dma.o (symbol from plugin)
dmaGetResourceIndex                               obj/main/BETAFLIGHTF3/drivers/dma.o (symbol from plugin)
                                                  obj/main/BETAFLIGHTF3/interface/cli.o (symbol from plugin)
dmaInit                                           C:\cygwin64\tmp\ccTUqUH8.ltrans5.ltrans.o
                                                  obj/main/BETAFLIGHTF3/drivers/dma.o (symbol from plugin)
                                                  C:\cygwin64\tmp\ccTUqUH8.ltrans6.ltrans.o
                                                  obj/main/BETAFLIGHTF3/drivers/sdcard.o (symbol from plugin)
                                                  obj/main/BETAFLIGHTF3/drivers/serial_uart_stm32f30x.o (symbol from plugin)
                                                  obj/main/BETAFLIGHTF3/drivers/pwm_output_dshot.o (symbol from plugin)
                                                  obj/main/BETAFLIGHTF3/drivers/light_ws2811strip_stdperiph.o (symbol from plugin)
                                                  obj/main/BETAFLIGHTF3/drivers/adc_stm32f30x.o (symbol from plugin)
dmaMotorTimerCount.lto_priv.473                   C:\cygwin64\tmp\ccTUqUH8.ltrans6.ltrans.o
                                                  C:\cygwin64\tmp\ccTUqUH8.ltrans5.ltrans.o
                                                  C:\cygwin64\tmp\ccTUqUH8.ltrans4.ltrans.o
dmaMotorTimers.lto_priv.472                       C:\cygwin64\tmp\ccTUqUH8.ltrans6.ltrans.o
                                                  C:\cygwin64\tmp\ccTUqUH8.ltrans5.ltrans.o
                                                  C:\cygwin64\tmp\ccTUqUH8.ltrans4.ltrans.o
dmaMotors.lto_priv.305                            C:\cygwin64\tmp\ccTUqUH8.ltrans6.ltrans.o
                                                  C:\cygwin64\tmp\ccTUqUH8.ltrans5.ltrans.o
                                                  C:\cygwin64\tmp\ccTUqUH8.ltrans4.ltrans.o
                                                  C:\cygwin64\tmp\ccTUqUH8.ltrans2.ltrans.o
dmaRef.lto_priv.696                               C:\cygwin64\tmp\ccTUqUH8.ltrans1.ltrans.o
                                                  C:\cygwin64\tmp\ccTUqUH8.ltrans5.ltrans.o
dmaSetHandler                                     C:\cygwin64\tmp\ccTUqUH8.ltrans5.ltrans.o
                                                  obj/main/BETAFLIGHTF3/drivers/dma.o (symbol from plugin)
                                                  C:\cygwin64\tmp\ccTUqUH8.ltrans6.ltrans.o
                                                  obj/main/BETAFLIGHTF3/drivers/serial_uart_stm32f30x.o (symbol from plugin)
                                                  obj/main/BETAFLIGHTF3/drivers/pwm_output_dshot.o (symbol from plugin)
                                                  obj/main/BETAFLIGHTF3/drivers/light_ws2811strip_stdperiph.o (symbol from plugin)
doesConfigurationUsePort                          obj/main/BETAFLIGHTF3/io/serial.o (symbol from plugin)
drawScreen.lto_priv.281                           C:\cygwin64\tmp\ccTUqUH8.ltrans2.ltrans.o
                                                  C:\cygwin64\tmp\ccTUqUH8.ltrans6.ltrans.o
drawScreen.lto_priv.517                           C:\cygwin64\tmp\ccTUqUH8.ltrans2.ltrans.o
                                                  C:\cygwin64\tmp\ccTUqUH8.ltrans4.ltrans.o
dtermLpfApplyFn.lto_priv.492                      C:\cygwin64\tmp\ccTUqUH8.ltrans3.ltrans.o
                                                  C:\cygwin64\tmp\ccTUqUH8.ltrans4.ltrans.o
dtermNotchFilterApplyFn.lto_priv.491              C:\cygwin64\tmp\ccTUqUH8.ltrans3.ltrans.o
                                                  C:\cygwin64\tmp\ccTUqUH8.ltrans4.ltrans.o
eepromConfigSize.lto_priv.681                     C:\cygwin64\tmp\ccTUqUH8.ltrans3.ltrans.o
                                                  C:\cygwin64\tmp\ccTUqUH8.ltrans5.ltrans.o
enableFlightMode                                  C:\cygwin64\tmp\ccTUqUH8.ltrans0.ltrans.o
                                                  obj/main/BETAFLIGHTF3/fc/runtime_config.o (symbol from plugin)
                                                  C:\cygwin64\tmp\ccTUqUH8.ltrans3.ltrans.o
                                                  obj/main/BETAFLIGHTF3/flight/failsafe.o (symbol from plugin)
                                                  obj/main/BETAFLIGHTF3/fc/fc_core.o (symbol from plugin)
enableGPIOPowerUsageAndNoiseReductions            C:\cygwin64\tmp\ccTUqUH8.ltrans5.ltrans.o
                                                  obj/main/BETAFLIGHTF3/drivers/system_stm32f30x.o (symbol from plugin)
                                                  C:\cygwin64\tmp\ccTUqUH8.ltrans4.ltrans.o
enabledSensors.lto_priv.338                       C:\cygwin64\tmp\ccTUqUH8.ltrans2.ltrans.o
                                                  C:\cygwin64\tmp\ccTUqUH8.ltrans5.ltrans.o
                                                  C:\cygwin64\tmp\ccTUqUH8.ltrans4.ltrans.o
                                                  C:\cygwin64\tmp\ccTUqUH8.ltrans3.ltrans.o
                                                  C:\cygwin64\tmp\ccTUqUH8.ltrans1.ltrans.o
                                                  C:\cygwin64\tmp\ccTUqUH8.ltrans0.ltrans.o
end                                               d:/gcc-arm-none-eabi-7-2017-q4-major-win32/bin/../lib/gcc/arm-none-eabi/7.2.1/../../../../arm-none-eabi/lib/thumb/v7e-m/fpv4-sp/hard\libnosys.a(sbrk.o)
endTimeMillis.lto_priv.562                        C:\cygwin64\tmp\ccTUqUH8.ltrans4.ltrans.o
                                                  C:\cygwin64\tmp\ccTUqUH8.ltrans0.ltrans.o
ensureEEPROMContainsValidData                     obj/main/BETAFLIGHTF3/fc/config.o (symbol from plugin)
                                                  obj/main/BETAFLIGHTF3/fc/fc_init.o (symbol from plugin)
errno                                             d:/gcc-arm-none-eabi-7-2017-q4-major-win32/bin/../lib/gcc/arm-none-eabi/7.2.1/../../../../arm-none-eabi/lib/thumb/v7e-m/fpv4-sp/hard\libc_nano.a(lib_a-reent.o)
                                                  d:/gcc-arm-none-eabi-7-2017-q4-major-win32/bin/../lib/gcc/arm-none-eabi/7.2.1/../../../../arm-none-eabi/lib/thumb/v7e-m/fpv4-sp/hard\libc_nano.a(lib_a-sbrkr.o)
esc4wayInit                                       obj/main/BETAFLIGHTF3/io/serial_4way.o (symbol from plugin)
                                                  obj/main/BETAFLIGHTF3/interface/msp.o (symbol from plugin)
esc4wayProcess                                    C:\cygwin64\tmp\ccTUqUH8.ltrans1.ltrans.o
                                                  obj/main/BETAFLIGHTF3/io/serial_4way.o (symbol from plugin)
                                                  C:\cygwin64\tmp\ccTUqUH8.ltrans4.ltrans.o
                                                  obj/main/BETAFLIGHTF3/interface/msp.o (symbol from plugin)
esc4wayRelease                                    obj/main/BETAFLIGHTF3/io/serial_4way.o (symbol from plugin)
escCount.lto_priv.501                             C:\cygwin64\tmp\ccTUqUH8.ltrans1.ltrans.o
                                                  C:\cygwin64\tmp\ccTUqUH8.ltrans4.ltrans.o
escEnablePassthrough                              C:\cygwin64\tmp\ccTUqUH8.ltrans2.ltrans.o
                                                  obj/main/BETAFLIGHTF3/drivers/serial_escserial.o (symbol from plugin)
                                                  C:\cygwin64\tmp\ccTUqUH8.ltrans3.ltrans.o
                                                  C:\cygwin64\tmp\ccTUqUH8.ltrans0.ltrans.o
                                                  obj/main/BETAFLIGHTF3/interface/cli.o (symbol from plugin)
                                                  obj/main/BETAFLIGHTF3/interface/msp.o (symbol from plugin)
escHardware                                       C:\cygwin64\tmp\ccTUqUH8.ltrans1.ltrans.o
                                                  obj/main/BETAFLIGHTF3/io/serial_4way.o (symbol from plugin)
                                                  C:\cygwin64\tmp\ccTUqUH8.ltrans4.ltrans.o
escMode                                           C:\cygwin64\tmp\ccTUqUH8.ltrans4.ltrans.o
                                                  obj/main/BETAFLIGHTF3/interface/msp.o (symbol from plugin)
                                                  C:\cygwin64\tmp\ccTUqUH8.ltrans0.ltrans.o
escOutputs                                        C:\cygwin64\tmp\ccTUqUH8.ltrans2.ltrans.o
                                                  obj/main/BETAFLIGHTF3/drivers/serial_escserial.o (symbol from plugin)
                                                  C:\cygwin64\tmp\ccTUqUH8.ltrans1.ltrans.o
escPortIndex                                      C:\cygwin64\tmp\ccTUqUH8.ltrans4.ltrans.o
                                                  obj/main/BETAFLIGHTF3/interface/msp.o (symbol from plugin)
                                                  C:\cygwin64\tmp\ccTUqUH8.ltrans0.ltrans.o
escSensorConfig_Copy                              obj/main/BETAFLIGHTF3/sensors/esc_sensor.o (symbol from plugin)
escSensorConfig_Registry                          C:\cygwin64\tmp\ccTUqUH8.ltrans2.ltrans.o
                                                  obj/main/BETAFLIGHTF3/sensors/esc_sensor.o (symbol from plugin)
escSensorConfig_System                            obj/main/BETAFLIGHTF3/sensors/esc_sensor.o (symbol from plugin)
escSensorInit                                     C:\cygwin64\tmp\ccTUqUH8.ltrans2.ltrans.o
                                                  obj/main/BETAFLIGHTF3/sensors/esc_sensor.o (symbol from plugin)
                                                  C:\cygwin64\tmp\ccTUqUH8.ltrans4.ltrans.o
                                                  obj/main/BETAFLIGHTF3/fc/fc_init.o (symbol from plugin)
escSensorProcess                                  C:\cygwin64\tmp\ccTUqUH8.ltrans2.ltrans.o
                                                  obj/main/BETAFLIGHTF3/sensors/esc_sensor.o (symbol from plugin)
                                                  C:\cygwin64\tmp\ccTUqUH8.ltrans3.ltrans.o
                                                  obj/main/BETAFLIGHTF3/fc/fc_tasks.o (symbol from plugin)
escSerialConfig_Copy                              obj/main/BETAFLIGHTF3/drivers/serial_escserial.o (symbol from plugin)
escSerialConfig_Registry                          C:\cygwin64\tmp\ccTUqUH8.ltrans2.ltrans.o
                                                  obj/main/BETAFLIGHTF3/drivers/serial_escserial.o (symbol from plugin)
escSerialConfig_System                            obj/main/BETAFLIGHTF3/drivers/serial_escserial.o (symbol from plugin)
escSerialGPIOConfig.isra.5.lto_priv.402           C:\cygwin64\tmp\ccTUqUH8.ltrans2.ltrans.o
                                                  C:\cygwin64\tmp\ccTUqUH8.ltrans1.ltrans.o
escSerialInputPortConfig.lto_priv.329             C:\cygwin64\tmp\ccTUqUH8.ltrans1.ltrans.o
                                                  C:\cygwin64\tmp\ccTUqUH8.ltrans2.ltrans.o
escSerialOutputPortConfig.lto_priv.331            C:\cygwin64\tmp\ccTUqUH8.ltrans1.ltrans.o
                                                  C:\cygwin64\tmp\ccTUqUH8.ltrans2.ltrans.o
escSerialPorts                                    C:\cygwin64\tmp\ccTUqUH8.ltrans6.ltrans.o
                                                  obj/main/BETAFLIGHTF3/drivers/serial_escserial.o (symbol from plugin)
                                                  C:\cygwin64\tmp\ccTUqUH8.ltrans2.ltrans.o
escSerialSetBaudRate.lto_priv.277                 C:\cygwin64\tmp\ccTUqUH8.ltrans2.ltrans.o
escSerialTotalBytesWaiting.lto_priv.327           C:\cygwin64\tmp\ccTUqUH8.ltrans1.ltrans.o
                                                  C:\cygwin64\tmp\ccTUqUH8.ltrans2.ltrans.o
escSerialVTable                                   obj/main/BETAFLIGHTF3/drivers/serial_escserial.o (symbol from plugin)
esof_counter                                      obj/main/BETAFLIGHTF3/vcp/usb_istr.o (symbol from plugin)
estimatedAltitude.lto_priv.555                    C:\cygwin64\tmp\ccTUqUH8.ltrans2.ltrans.o
exDataTypeLen                                     obj/main/BETAFLIGHTF3/telemetry/jetiexbus.o (symbol from plugin)
extiChannelRecs                                   obj/main/BETAFLIGHTF3/drivers/exti.o (symbol from plugin)
extractAndStoreRxByte                             obj/main/BETAFLIGHTF3/drivers/serial_softserial.o (symbol from plugin)
fSuspendEnabled                                   obj/main/BETAFLIGHTF3/vcp/usb_pwr.o (symbol from plugin)
failsafeActivate.lto_priv.673                     C:\cygwin64\tmp\ccTUqUH8.ltrans3.ltrans.o
                                                  C:\cygwin64\tmp\ccTUqUH8.ltrans0.ltrans.o
failsafeConfig_Copy                               obj/main/BETAFLIGHTF3/flight/failsafe.o (symbol from plugin)
failsafeConfig_Registry                           C:\cygwin64\tmp\ccTUqUH8.ltrans3.ltrans.o
                                                  obj/main/BETAFLIGHTF3/flight/failsafe.o (symbol from plugin)
failsafeConfig_System                             C:\cygwin64\tmp\ccTUqUH8.ltrans3.ltrans.o
                                                  obj/main/BETAFLIGHTF3/flight/failsafe.o (symbol from plugin)
                                                  C:\cygwin64\tmp\ccTUqUH8.ltrans4.ltrans.o
                                                  C:\cygwin64\tmp\ccTUqUH8.ltrans0.ltrans.o
                                                  obj/main/BETAFLIGHTF3/interface/msp.o (symbol from plugin)
failsafeInit                                      obj/main/BETAFLIGHTF3/flight/failsafe.o (symbol from plugin)
                                                  obj/main/BETAFLIGHTF3/fc/fc_init.o (symbol from plugin)
failsafeIsActive                                  obj/main/BETAFLIGHTF3/flight/failsafe.o (symbol from plugin)
                                                  obj/main/BETAFLIGHTF3/telemetry/ltm.o (symbol from plugin)
                                                  obj/main/BETAFLIGHTF3/io/ledstrip.o (symbol from plugin)
                                                  obj/main/BETAFLIGHTF3/flight/mixer.o (symbol from plugin)
                                                  obj/main/BETAFLIGHTF3/fc/rc_controls.o (symbol from plugin)
                                                  obj/main/BETAFLIGHTF3/fc/fc_rc.o (symbol from plugin)
                                                  obj/main/BETAFLIGHTF3/fc/fc_core.o (symbol from plugin)
failsafeIsMonitoring                              obj/main/BETAFLIGHTF3/flight/failsafe.o (symbol from plugin)
                                                  obj/main/BETAFLIGHTF3/fc/fc_core.o (symbol from plugin)
failsafeIsReceivingRxData                         obj/main/BETAFLIGHTF3/flight/failsafe.o (symbol from plugin)
failsafeOnRxResume                                obj/main/BETAFLIGHTF3/flight/failsafe.o (symbol from plugin)
                                                  obj/main/BETAFLIGHTF3/rx/rx.o (symbol from plugin)
failsafeOnRxSuspend                               obj/main/BETAFLIGHTF3/flight/failsafe.o (symbol from plugin)
                                                  obj/main/BETAFLIGHTF3/rx/rx.o (symbol from plugin)
failsafeOnValidDataFailed                         obj/main/BETAFLIGHTF3/flight/failsafe.o (symbol from plugin)
                                                  obj/main/BETAFLIGHTF3/rx/rx.o (symbol from plugin)
failsafeOnValidDataReceived                       obj/main/BETAFLIGHTF3/flight/failsafe.o (symbol from plugin)
                                                  obj/main/BETAFLIGHTF3/rx/rx.o (symbol from plugin)
failsafePhase                                     obj/main/BETAFLIGHTF3/flight/failsafe.o (symbol from plugin)
                                                  obj/main/BETAFLIGHTF3/blackbox/blackbox.o (symbol from plugin)
failsafeReset                                     obj/main/BETAFLIGHTF3/flight/failsafe.o (symbol from plugin)
                                                  obj/main/BETAFLIGHTF3/fc/config.o (symbol from plugin)
failsafeStartMonitoring                           obj/main/BETAFLIGHTF3/flight/failsafe.o (symbol from plugin)
                                                  obj/main/BETAFLIGHTF3/fc/fc_core.o (symbol from plugin)
failsafeState.lto_priv.339                        C:\cygwin64\tmp\ccTUqUH8.ltrans2.ltrans.o
                                                  C:\cygwin64\tmp\ccTUqUH8.ltrans4.ltrans.o
                                                  C:\cygwin64\tmp\ccTUqUH8.ltrans3.ltrans.o
                                                  C:\cygwin64\tmp\ccTUqUH8.ltrans1.ltrans.o
                                                  C:\cygwin64\tmp\ccTUqUH8.ltrans0.ltrans.o
failsafeUpdateState                               obj/main/BETAFLIGHTF3/flight/failsafe.o (symbol from plugin)
                                                  obj/main/BETAFLIGHTF3/fc/fc_core.o (symbol from plugin)
failureMode                                       C:\cygwin64\tmp\ccTUqUH8.ltrans0.ltrans.o
                                                  obj/main/BETAFLIGHTF3/drivers/system.o (symbol from plugin)
                                                  C:\cygwin64\tmp\ccTUqUH8.ltrans5.ltrans.o
                                                  obj/main/BETAFLIGHTF3/fc/config.o (symbol from plugin)
                                                  obj/main/BETAFLIGHTF3/config/config_eeprom.o (symbol from plugin)
                                                  obj/main/BETAFLIGHTF3/drivers/accgyro/accgyro_spi_mpu6000.o (symbol from plugin)
fastA2F                                           C:\cygwin64\tmp\ccTUqUH8.ltrans5.ltrans.o
                                                  obj/main/BETAFLIGHTF3/common/typeconversion.o (symbol from plugin)
                                                  C:\cygwin64\tmp\ccTUqUH8.ltrans3.ltrans.o
                                                  obj/main/BETAFLIGHTF3/interface/cli.o (symbol from plugin)
fastKalmanInit                                    obj/main/BETAFLIGHTF3/common/filter.o (symbol from plugin)
fastKalmanUpdate                                  obj/main/BETAFLIGHTF3/common/filter.o (symbol from plugin)
fat16_isEndOfChainMarker                          obj/main/BETAFLIGHTF3/io/asyncfatfs/fat_standard.o (symbol from plugin)
                                                  obj/main/BETAFLIGHTF3/io/asyncfatfs/asyncfatfs.o (symbol from plugin)
fat32_decodeClusterNumber                         obj/main/BETAFLIGHTF3/io/asyncfatfs/fat_standard.o (symbol from plugin)
                                                  obj/main/BETAFLIGHTF3/io/asyncfatfs/asyncfatfs.o (symbol from plugin)
fat32_isEndOfChainMarker                          obj/main/BETAFLIGHTF3/io/asyncfatfs/fat_standard.o (symbol from plugin)
                                                  obj/main/BETAFLIGHTF3/io/asyncfatfs/asyncfatfs.o (symbol from plugin)
fat_convertFilenameToFATStyle                     obj/main/BETAFLIGHTF3/io/asyncfatfs/fat_standard.o (symbol from plugin)
                                                  obj/main/BETAFLIGHTF3/io/asyncfatfs/asyncfatfs.o (symbol from plugin)
fat_isDirectoryEntryEmpty                         obj/main/BETAFLIGHTF3/io/asyncfatfs/fat_standard.o (symbol from plugin)
                                                  obj/main/BETAFLIGHTF3/io/asyncfatfs/asyncfatfs.o (symbol from plugin)
fat_isDirectoryEntryTerminator                    obj/main/BETAFLIGHTF3/io/asyncfatfs/fat_standard.o (symbol from plugin)
                                                  obj/main/BETAFLIGHTF3/io/asyncfatfs/asyncfatfs.o (symbol from plugin)
                                                  obj/main/BETAFLIGHTF3/blackbox/blackbox_io.o (symbol from plugin)
fat_isFreeSpace                                   obj/main/BETAFLIGHTF3/io/asyncfatfs/fat_standard.o (symbol from plugin)
                                                  obj/main/BETAFLIGHTF3/io/asyncfatfs/asyncfatfs.o (symbol from plugin)
fcTasksInit                                       C:\cygwin64\tmp\ccTUqUH8.ltrans0.ltrans.o
                                                  obj/main/BETAFLIGHTF3/fc/fc_tasks.o (symbol from plugin)
                                                  C:\cygwin64\tmp\ccTUqUH8.ltrans4.ltrans.o
                                                  obj/main/BETAFLIGHTF3/fc/fc_init.o (symbol from plugin)
feature                                           obj/main/BETAFLIGHTF3/config/feature.o (symbol from plugin)
                                                  obj/main/BETAFLIGHTF3/telemetry/smartport.o (symbol from plugin)
                                                  obj/main/BETAFLIGHTF3/telemetry/crsf.o (symbol from plugin)
                                                  obj/main/BETAFLIGHTF3/cms/cms_menu_ledstrip.o (symbol from plugin)
                                                  obj/main/BETAFLIGHTF3/blackbox/blackbox.o (symbol from plugin)
                                                  obj/main/BETAFLIGHTF3/sensors/gyro.o (symbol from plugin)
                                                  obj/main/BETAFLIGHTF3/sensors/acceleration.o (symbol from plugin)
                                                  obj/main/BETAFLIGHTF3/rx/spektrum.o (symbol from plugin)
                                                  obj/main/BETAFLIGHTF3/rx/rx.o (symbol from plugin)
                                                  obj/main/BETAFLIGHTF3/rx/pwm.o (symbol from plugin)
                                                  obj/main/BETAFLIGHTF3/flight/servos.o (symbol from plugin)
                                                  obj/main/BETAFLIGHTF3/flight/mixer.o (symbol from plugin)
                                                  obj/main/BETAFLIGHTF3/fc/rc_modes.o (symbol from plugin)
                                                  obj/main/BETAFLIGHTF3/fc/rc_controls.o (symbol from plugin)
                                                  obj/main/BETAFLIGHTF3/fc/fc_rc.o (symbol from plugin)
                                                  obj/main/BETAFLIGHTF3/fc/fc_core.o (symbol from plugin)
                                                  obj/main/BETAFLIGHTF3/fc/fc_init.o (symbol from plugin)
                                                  obj/main/BETAFLIGHTF3/sensors/battery.o (symbol from plugin)
                                                  obj/main/BETAFLIGHTF3/interface/msp_box.o (symbol from plugin)
                                                  obj/main/BETAFLIGHTF3/fc/fc_tasks.o (symbol from plugin)
                                                  obj/main/BETAFLIGHTF3/io/osd.o (symbol from plugin)
featureClear                                      C:\cygwin64\tmp\ccTUqUH8.ltrans5.ltrans.o
                                                  obj/main/BETAFLIGHTF3/config/feature.o (symbol from plugin)
                                                  C:\cygwin64\tmp\ccTUqUH8.ltrans4.ltrans.o
                                                  C:\cygwin64\tmp\ccTUqUH8.ltrans3.ltrans.o
                                                  C:\cygwin64\tmp\ccTUqUH8.ltrans1.ltrans.o
                                                  C:\cygwin64\tmp\ccTUqUH8.ltrans0.ltrans.o
                                                  obj/main/BETAFLIGHTF3/cms/cms_menu_ledstrip.o (symbol from plugin)
                                                  obj/main/BETAFLIGHTF3/rx/rx.o (symbol from plugin)
                                                  obj/main/BETAFLIGHTF3/interface/cli.o (symbol from plugin)
                                                  obj/main/BETAFLIGHTF3/fc/fc_init.o (symbol from plugin)
                                                  obj/main/BETAFLIGHTF3/fc/config.o (symbol from plugin)
featureClearAll                                   obj/main/BETAFLIGHTF3/config/feature.o (symbol from plugin)
                                                  obj/main/BETAFLIGHTF3/interface/msp.o (symbol from plugin)
featureConfig_Copy                                C:\cygwin64\tmp\ccTUqUH8.ltrans1.ltrans.o
                                                  obj/main/BETAFLIGHTF3/config/feature.o (symbol from plugin)
                                                  C:\cygwin64\tmp\ccTUqUH8.ltrans3.ltrans.o
                                                  obj/main/BETAFLIGHTF3/interface/cli.o (symbol from plugin)
featureConfig_Registry                            C:\cygwin64\tmp\ccTUqUH8.ltrans1.ltrans.o
                                                  obj/main/BETAFLIGHTF3/config/feature.o (symbol from plugin)
featureConfig_System                              C:\cygwin64\tmp\ccTUqUH8.ltrans1.ltrans.o
                                                  obj/main/BETAFLIGHTF3/config/feature.o (symbol from plugin)
                                                  C:\cygwin64\tmp\ccTUqUH8.ltrans5.ltrans.o
                                                  C:\cygwin64\tmp\ccTUqUH8.ltrans4.ltrans.o
                                                  C:\cygwin64\tmp\ccTUqUH8.ltrans3.ltrans.o
                                                  C:\cygwin64\tmp\ccTUqUH8.ltrans0.ltrans.o
                                                  obj/main/BETAFLIGHTF3/blackbox/blackbox.o (symbol from plugin)
                                                  obj/main/BETAFLIGHTF3/interface/cli.o (symbol from plugin)
featureConfigured                                 obj/main/BETAFLIGHTF3/config/feature.o (symbol from plugin)
                                                  obj/main/BETAFLIGHTF3/fc/config.o (symbol from plugin)
featureMask                                       obj/main/BETAFLIGHTF3/config/feature.o (symbol from plugin)
                                                  obj/main/BETAFLIGHTF3/interface/cli.o (symbol from plugin)
                                                  obj/main/BETAFLIGHTF3/interface/msp.o (symbol from plugin)
featureSet                                        obj/main/BETAFLIGHTF3/config/feature.o (symbol from plugin)
                                                  obj/main/BETAFLIGHTF3/cms/cms_menu_ledstrip.o (symbol from plugin)
                                                  obj/main/BETAFLIGHTF3/interface/cli.o (symbol from plugin)
                                                  obj/main/BETAFLIGHTF3/interface/msp.o (symbol from plugin)
                                                  obj/main/BETAFLIGHTF3/fc/config.o (symbol from plugin)
fftBinCount.lto_priv.436                          C:\cygwin64\tmp\ccTUqUH8.ltrans1.ltrans.o
                                                  C:\cygwin64\tmp\ccTUqUH8.ltrans3.ltrans.o
fftFreqFilter.lto_priv.440                        C:\cygwin64\tmp\ccTUqUH8.ltrans1.ltrans.o
                                                  C:\cygwin64\tmp\ccTUqUH8.ltrans3.ltrans.o
fftGyroFilter.lto_priv.433                        C:\cygwin64\tmp\ccTUqUH8.ltrans1.ltrans.o
                                                  C:\cygwin64\tmp\ccTUqUH8.ltrans3.ltrans.o
fftInstance.lto_priv.435                          C:\cygwin64\tmp\ccTUqUH8.ltrans1.ltrans.o
                                                  C:\cygwin64\tmp\ccTUqUH8.ltrans3.ltrans.o
fftMaxFreq.lto_priv.439                           C:\cygwin64\tmp\ccTUqUH8.ltrans1.ltrans.o
                                                  C:\cygwin64\tmp\ccTUqUH8.ltrans3.ltrans.o
fftResolution.lto_priv.438                        C:\cygwin64\tmp\ccTUqUH8.ltrans1.ltrans.o
                                                  C:\cygwin64\tmp\ccTUqUH8.ltrans3.ltrans.o
fftResult.lto_priv.437                            C:\cygwin64\tmp\ccTUqUH8.ltrans1.ltrans.o
                                                  C:\cygwin64\tmp\ccTUqUH8.ltrans3.ltrans.o
fftSamplingScale.lto_priv.432                     C:\cygwin64\tmp\ccTUqUH8.ltrans1.ltrans.o
                                                  C:\cygwin64\tmp\ccTUqUH8.ltrans3.ltrans.o
filterGetNotchQ                                   obj/main/BETAFLIGHTF3/common/filter.o (symbol from plugin)
                                                  obj/main/BETAFLIGHTF3/sensors/gyro.o (symbol from plugin)
                                                  obj/main/BETAFLIGHTF3/flight/pid.o (symbol from plugin)
findBoxByBoxId                                    C:\cygwin64\tmp\ccTUqUH8.ltrans4.ltrans.o
                                                  obj/main/BETAFLIGHTF3/interface/msp_box.o (symbol from plugin)
                                                  C:\cygwin64\tmp\ccTUqUH8.ltrans3.ltrans.o
                                                  C:\cygwin64\tmp\ccTUqUH8.ltrans0.ltrans.o
                                                  obj/main/BETAFLIGHTF3/interface/cli.o (symbol from plugin)
                                                  obj/main/BETAFLIGHTF3/interface/msp.o (symbol from plugin)
findBoxByPermanentId                              C:\cygwin64\tmp\ccTUqUH8.ltrans4.ltrans.o
                                                  obj/main/BETAFLIGHTF3/interface/msp_box.o (symbol from plugin)
                                                  C:\cygwin64\tmp\ccTUqUH8.ltrans3.ltrans.o
                                                  obj/main/BETAFLIGHTF3/interface/cli.o (symbol from plugin)
                                                  obj/main/BETAFLIGHTF3/interface/msp.o (symbol from plugin)
findNextSerialPortConfig                          obj/main/BETAFLIGHTF3/io/serial.o (symbol from plugin)
                                                  obj/main/BETAFLIGHTF3/msp/msp_serial.o (symbol from plugin)
findNextSerialPortConfig.constprop.144            C:\cygwin64\tmp\ccTUqUH8.ltrans6.ltrans.o
                                                  C:\cygwin64\tmp\ccTUqUH8.ltrans4.ltrans.o
                                                  C:\cygwin64\tmp\ccTUqUH8.ltrans0.ltrans.o
findNextSharedSerialPort                          obj/main/BETAFLIGHTF3/io/serial.o (symbol from plugin)
                                                  obj/main/BETAFLIGHTF3/telemetry/telemetry.o (symbol from plugin)
findNextSharedSerialPort.constprop.86             C:\cygwin64\tmp\ccTUqUH8.ltrans6.ltrans.o
                                                  C:\cygwin64\tmp\ccTUqUH8.ltrans0.ltrans.o
findSerialPortConfig                              C:\cygwin64\tmp\ccTUqUH8.ltrans4.ltrans.o
                                                  obj/main/BETAFLIGHTF3/io/serial.o (symbol from plugin)
                                                  C:\cygwin64\tmp\ccTUqUH8.ltrans6.ltrans.o
                                                  C:\cygwin64\tmp\ccTUqUH8.ltrans2.ltrans.o
                                                  C:\cygwin64\tmp\ccTUqUH8.ltrans1.ltrans.o
                                                  C:\cygwin64\tmp\ccTUqUH8.ltrans0.ltrans.o
                                                  obj/main/BETAFLIGHTF3/io/vtx_tramp.o (symbol from plugin)
                                                  obj/main/BETAFLIGHTF3/io/vtx_smartaudio.o (symbol from plugin)
                                                  obj/main/BETAFLIGHTF3/sensors/esc_sensor.o (symbol from plugin)
                                                  obj/main/BETAFLIGHTF3/telemetry/ltm.o (symbol from plugin)
                                                  obj/main/BETAFLIGHTF3/telemetry/smartport.o (symbol from plugin)
                                                  obj/main/BETAFLIGHTF3/telemetry/hott.o (symbol from plugin)
                                                  obj/main/BETAFLIGHTF3/telemetry/frsky_hub.o (symbol from plugin)
                                                  obj/main/BETAFLIGHTF3/io/rcdevice.o (symbol from plugin)
                                                  obj/main/BETAFLIGHTF3/io/rcdevice_cam.o (symbol from plugin)
                                                  obj/main/BETAFLIGHTF3/blackbox/blackbox_io.o (symbol from plugin)
                                                  obj/main/BETAFLIGHTF3/rx/fport.o (symbol from plugin)
                                                  obj/main/BETAFLIGHTF3/rx/xbus.o (symbol from plugin)
                                                  obj/main/BETAFLIGHTF3/rx/sumh.o (symbol from plugin)
                                                  obj/main/BETAFLIGHTF3/rx/sumd.o (symbol from plugin)
                                                  obj/main/BETAFLIGHTF3/rx/spektrum.o (symbol from plugin)
                                                  obj/main/BETAFLIGHTF3/rx/sbus.o (symbol from plugin)
                                                  obj/main/BETAFLIGHTF3/rx/crsf.o (symbol from plugin)
                                                  obj/main/BETAFLIGHTF3/rx/jetiexbus.o (symbol from plugin)
                                                  obj/main/BETAFLIGHTF3/rx/ibus.o (symbol from plugin)
                                                  obj/main/BETAFLIGHTF3/msp/msp_serial.o (symbol from plugin)
findSerialPortConfigState.lto_priv.487            C:\cygwin64\tmp\ccTUqUH8.ltrans6.ltrans.o
                                                  C:\cygwin64\tmp\ccTUqUH8.ltrans4.ltrans.o
findSerialPortIndexByIdentifier                   obj/main/BETAFLIGHTF3/io/serial.o (symbol from plugin)
findSerialPortUsageByIdentifier                   obj/main/BETAFLIGHTF3/io/serial.o (symbol from plugin)
                                                  obj/main/BETAFLIGHTF3/interface/cli.o (symbol from plugin)
findSerialPortUsageByPort                         obj/main/BETAFLIGHTF3/io/serial.o (symbol from plugin)
findSharedSerialPort                              obj/main/BETAFLIGHTF3/io/serial.o (symbol from plugin)
                                                  obj/main/BETAFLIGHTF3/telemetry/telemetry.o (symbol from plugin)
                                                  obj/main/BETAFLIGHTF3/blackbox/blackbox_io.o (symbol from plugin)
                                                  obj/main/BETAFLIGHTF3/blackbox/blackbox.o (symbol from plugin)
findSharedSerialPort.constprop.85                 C:\cygwin64\tmp\ccTUqUH8.ltrans6.ltrans.o
                                                  C:\cygwin64\tmp\ccTUqUH8.ltrans1.ltrans.o
                                                  C:\cygwin64\tmp\ccTUqUH8.ltrans0.ltrans.o
firFilterApply                                    obj/main/BETAFLIGHTF3/common/filter.o (symbol from plugin)
firFilterCalcMovingAverage                        obj/main/BETAFLIGHTF3/common/filter.o (symbol from plugin)
firFilterCalcPartialAverage                       obj/main/BETAFLIGHTF3/common/filter.o (symbol from plugin)
firFilterDenoiseInit                              obj/main/BETAFLIGHTF3/common/filter.o (symbol from plugin)
                                                  obj/main/BETAFLIGHTF3/sensors/gyro.o (symbol from plugin)
                                                  obj/main/BETAFLIGHTF3/flight/pid.o (symbol from plugin)
firFilterDenoiseUpdate                            C:\cygwin64\tmp\ccTUqUH8.ltrans5.ltrans.o
                                                  obj/main/BETAFLIGHTF3/common/filter.o (symbol from plugin)
                                                  C:\cygwin64\tmp\ccTUqUH8.ltrans6.ltrans.o
                                                  C:\cygwin64\tmp\ccTUqUH8.ltrans3.ltrans.o
                                                  obj/main/BETAFLIGHTF3/sensors/gyro.o (symbol from plugin)
                                                  obj/main/BETAFLIGHTF3/flight/pid.o (symbol from plugin)
firFilterInit                                     obj/main/BETAFLIGHTF3/common/filter.o (symbol from plugin)
firFilterInit2                                    obj/main/BETAFLIGHTF3/common/filter.o (symbol from plugin)
firFilterLastInput                                obj/main/BETAFLIGHTF3/common/filter.o (symbol from plugin)
firFilterUpdate                                   obj/main/BETAFLIGHTF3/common/filter.o (symbol from plugin)
firFilterUpdateAndApply                           obj/main/BETAFLIGHTF3/common/filter.o (symbol from plugin)
firFilterUpdateAverage                            obj/main/BETAFLIGHTF3/common/filter.o (symbol from plugin)
firstArmingCalibrationWasStarted                  C:\cygwin64\tmp\ccTUqUH8.ltrans1.ltrans.o
                                                  obj/main/BETAFLIGHTF3/sensors/gyro.o (symbol from plugin)
                                                  C:\cygwin64\tmp\ccTUqUH8.ltrans4.ltrans.o
                                                  C:\cygwin64\tmp\ccTUqUH8.ltrans3.ltrans.o
flight3DConfig_Copy                               obj/main/BETAFLIGHTF3/fc/rc_controls.o (symbol from plugin)
flight3DConfig_Registry                           C:\cygwin64\tmp\ccTUqUH8.ltrans3.ltrans.o
                                                  obj/main/BETAFLIGHTF3/fc/rc_controls.o (symbol from plugin)
flight3DConfig_System                             C:\cygwin64\tmp\ccTUqUH8.ltrans3.ltrans.o
                                                  obj/main/BETAFLIGHTF3/fc/rc_controls.o (symbol from plugin)
                                                  C:\cygwin64\tmp\ccTUqUH8.ltrans4.ltrans.o
                                                  C:\cygwin64\tmp\ccTUqUH8.ltrans0.ltrans.o
                                                  obj/main/BETAFLIGHTF3/flight/mixer.o (symbol from plugin)
                                                  obj/main/BETAFLIGHTF3/fc/fc_init.o (symbol from plugin)
                                                  obj/main/BETAFLIGHTF3/interface/msp.o (symbol from plugin)
flightModeFlags                                   C:\cygwin64\tmp\ccTUqUH8.ltrans2.ltrans.o
                                                  obj/main/BETAFLIGHTF3/fc/runtime_config.o (symbol from plugin)
                                                  C:\cygwin64\tmp\ccTUqUH8.ltrans5.ltrans.o
                                                  C:\cygwin64\tmp\ccTUqUH8.ltrans3.ltrans.o
                                                  C:\cygwin64\tmp\ccTUqUH8.ltrans0.ltrans.o
                                                  obj/main/BETAFLIGHTF3/telemetry/ltm.o (symbol from plugin)
                                                  obj/main/BETAFLIGHTF3/telemetry/smartport.o (symbol from plugin)
                                                  obj/main/BETAFLIGHTF3/telemetry/crsf.o (symbol from plugin)
                                                  obj/main/BETAFLIGHTF3/io/ledstrip.o (symbol from plugin)
                                                  obj/main/BETAFLIGHTF3/flight/servos.o (symbol from plugin)
                                                  obj/main/BETAFLIGHTF3/flight/pid.o (symbol from plugin)
                                                  obj/main/BETAFLIGHTF3/flight/imu.o (symbol from plugin)
                                                  obj/main/BETAFLIGHTF3/fc/rc_controls.o (symbol from plugin)
                                                  obj/main/BETAFLIGHTF3/fc/fc_rc.o (symbol from plugin)
                                                  obj/main/BETAFLIGHTF3/fc/fc_core.o (symbol from plugin)
                                                  obj/main/BETAFLIGHTF3/interface/msp_box.o (symbol from plugin)
                                                  obj/main/BETAFLIGHTF3/io/osd.o (symbol from plugin)
flipOverAfterCrashMode.lto_priv.462               C:\cygwin64\tmp\ccTUqUH8.ltrans3.ltrans.o
                                                  C:\cygwin64\tmp\ccTUqUH8.ltrans4.ltrans.o
flushHottRxBuffer.lto_priv.671                    C:\cygwin64\tmp\ccTUqUH8.ltrans2.ltrans.o
                                                  C:\cygwin64\tmp\ccTUqUH8.ltrans0.ltrans.o
fontIsLoading.lto_priv.499                        C:\cygwin64\tmp\ccTUqUH8.ltrans2.ltrans.o
                                                  C:\cygwin64\tmp\ccTUqUH8.ltrans4.ltrans.o
fportRxInit                                       obj/main/BETAFLIGHTF3/rx/fport.o (symbol from plugin)
                                                  obj/main/BETAFLIGHTF3/rx/rx.o (symbol from plugin)
frSkyDataIdTable                                  obj/main/BETAFLIGHTF3/telemetry/smartport.o (symbol from plugin)
frSkyHubPort.lto_priv.579                         C:\cygwin64\tmp\ccTUqUH8.ltrans2.ltrans.o
                                                  C:\cygwin64\tmp\ccTUqUH8.ltrans0.ltrans.o
frSkyHubPortSharing.lto_priv.581                  C:\cygwin64\tmp\ccTUqUH8.ltrans2.ltrans.o
                                                  C:\cygwin64\tmp\ccTUqUH8.ltrans0.ltrans.o
frSkyHubWriteByte.lto_priv.580                    C:\cygwin64\tmp\ccTUqUH8.ltrans2.ltrans.o
                                                  C:\cygwin64\tmp\ccTUqUH8.ltrans0.ltrans.o
frSkyHubWriteFrame.lto_priv.672                   C:\cygwin64\tmp\ccTUqUH8.ltrans2.ltrans.o
                                                  C:\cygwin64\tmp\ccTUqUH8.ltrans0.ltrans.o
free                                              d:/gcc-arm-none-eabi-7-2017-q4-major-win32/bin/../lib/gcc/arm-none-eabi/7.2.1/../../../../arm-none-eabi/lib/thumb/v7e-m/fpv4-sp/hard\libc_nano.a(lib_a-malloc.o)
freeFrSkyHubTelemetryPort                         obj/main/BETAFLIGHTF3/telemetry/frsky_hub.o (symbol from plugin)
freeHoTTTelemetryPort                             obj/main/BETAFLIGHTF3/telemetry/hott.o (symbol from plugin)
freeLtmTelemetryPort                              obj/main/BETAFLIGHTF3/telemetry/ltm.o (symbol from plugin)
freqBeep.lto_priv.430                             C:\cygwin64\tmp\ccTUqUH8.ltrans6.ltrans.o
                                                  C:\cygwin64\tmp\ccTUqUH8.ltrans3.ltrans.o
                                                  C:\cygwin64\tmp\ccTUqUH8.ltrans0.ltrans.o
ftoa                                              C:\cygwin64\tmp\ccTUqUH8.ltrans5.ltrans.o
                                                  obj/main/BETAFLIGHTF3/common/typeconversion.o (symbol from plugin)
                                                  C:\cygwin64\tmp\ccTUqUH8.ltrans3.ltrans.o
                                                  obj/main/BETAFLIGHTF3/interface/cli.o (symbol from plugin)
g_pfnVectors                                      obj/main/BETAFLIGHTF3/startup_stm32f30x_md_gcc.o
gcd                                               C:\cygwin64\tmp\ccTUqUH8.ltrans5.ltrans.o
                                                  obj/main/BETAFLIGHTF3/common/maths.o (symbol from plugin)
                                                  C:\cygwin64\tmp\ccTUqUH8.ltrans1.ltrans.o
                                                  C:\cygwin64\tmp\ccTUqUH8.ltrans0.ltrans.o
                                                  obj/main/BETAFLIGHTF3/blackbox/blackbox.o (symbol from plugin)
generateLedConfig                                 obj/main/BETAFLIGHTF3/io/ledstrip.o (symbol from plugin)
                                                  obj/main/BETAFLIGHTF3/interface/cli.o (symbol from plugin)
generateLedConfig.constprop.36                    C:\cygwin64\tmp\ccTUqUH8.ltrans6.ltrans.o
                                                  C:\cygwin64\tmp\ccTUqUH8.ltrans3.ltrans.o
getAmperage                                       obj/main/BETAFLIGHTF3/sensors/battery.o (symbol from plugin)
                                                  obj/main/BETAFLIGHTF3/telemetry/smartport.o (symbol from plugin)
                                                  obj/main/BETAFLIGHTF3/telemetry/jetiexbus.o (symbol from plugin)
                                                  obj/main/BETAFLIGHTF3/telemetry/hott.o (symbol from plugin)
                                                  obj/main/BETAFLIGHTF3/telemetry/frsky_hub.o (symbol from plugin)
                                                  obj/main/BETAFLIGHTF3/telemetry/srxl.o (symbol from plugin)
                                                  obj/main/BETAFLIGHTF3/telemetry/crsf.o (symbol from plugin)
                                                  obj/main/BETAFLIGHTF3/interface/msp.o (symbol from plugin)
                                                  obj/main/BETAFLIGHTF3/io/osd.o (symbol from plugin)
getAmperageLatest                                 obj/main/BETAFLIGHTF3/sensors/battery.o (symbol from plugin)
                                                  obj/main/BETAFLIGHTF3/blackbox/blackbox.o (symbol from plugin)
getArmingBeepTimeMicros                           obj/main/BETAFLIGHTF3/io/beeper.o (symbol from plugin)
                                                  obj/main/BETAFLIGHTF3/blackbox/blackbox.o (symbol from plugin)
getArmingDisableFlags                             obj/main/BETAFLIGHTF3/fc/runtime_config.o (symbol from plugin)
                                                  obj/main/BETAFLIGHTF3/sensors/gyro.o (symbol from plugin)
                                                  obj/main/BETAFLIGHTF3/interface/cli.o (symbol from plugin)
                                                  obj/main/BETAFLIGHTF3/fc/fc_core.o (symbol from plugin)
                                                  obj/main/BETAFLIGHTF3/interface/msp.o (symbol from plugin)
                                                  obj/main/BETAFLIGHTF3/io/osd.o (symbol from plugin)
getBatteryAverageCellVoltage                      obj/main/BETAFLIGHTF3/sensors/battery.o (symbol from plugin)
                                                  obj/main/BETAFLIGHTF3/io/osd.o (symbol from plugin)
getBatteryCellCount                               obj/main/BETAFLIGHTF3/sensors/battery.o (symbol from plugin)
                                                  obj/main/BETAFLIGHTF3/telemetry/smartport.o (symbol from plugin)
                                                  obj/main/BETAFLIGHTF3/telemetry/frsky_hub.o (symbol from plugin)
                                                  obj/main/BETAFLIGHTF3/interface/cli.o (symbol from plugin)
                                                  obj/main/BETAFLIGHTF3/interface/msp.o (symbol from plugin)
                                                  obj/main/BETAFLIGHTF3/io/osd.o (symbol from plugin)
getBatteryState                                   obj/main/BETAFLIGHTF3/sensors/battery.o (symbol from plugin)
                                                  obj/main/BETAFLIGHTF3/telemetry/hott.o (symbol from plugin)
                                                  obj/main/BETAFLIGHTF3/io/ledstrip.o (symbol from plugin)
                                                  obj/main/BETAFLIGHTF3/io/beeper.o (symbol from plugin)
                                                  obj/main/BETAFLIGHTF3/interface/msp.o (symbol from plugin)
                                                  obj/main/BETAFLIGHTF3/io/osd.o (symbol from plugin)
getBatteryStateString                             obj/main/BETAFLIGHTF3/sensors/battery.o (symbol from plugin)
                                                  obj/main/BETAFLIGHTF3/interface/cli.o (symbol from plugin)
getBatteryVoltage                                 obj/main/BETAFLIGHTF3/sensors/battery.o (symbol from plugin)
                                                  obj/main/BETAFLIGHTF3/telemetry/ltm.o (symbol from plugin)
                                                  obj/main/BETAFLIGHTF3/telemetry/smartport.o (symbol from plugin)
                                                  obj/main/BETAFLIGHTF3/telemetry/jetiexbus.o (symbol from plugin)
                                                  obj/main/BETAFLIGHTF3/telemetry/hott.o (symbol from plugin)
                                                  obj/main/BETAFLIGHTF3/telemetry/frsky_hub.o (symbol from plugin)
                                                  obj/main/BETAFLIGHTF3/telemetry/srxl.o (symbol from plugin)
                                                  obj/main/BETAFLIGHTF3/telemetry/crsf.o (symbol from plugin)
                                                  obj/main/BETAFLIGHTF3/interface/cli.o (symbol from plugin)
                                                  obj/main/BETAFLIGHTF3/interface/msp.o (symbol from plugin)
                                                  obj/main/BETAFLIGHTF3/io/osd.o (symbol from plugin)
getBatteryVoltageLatest                           obj/main/BETAFLIGHTF3/sensors/battery.o (symbol from plugin)
                                                  obj/main/BETAFLIGHTF3/blackbox/blackbox.o (symbol from plugin)
getBeeperOffMask                                  obj/main/BETAFLIGHTF3/fc/config.o (symbol from plugin)
                                                  obj/main/BETAFLIGHTF3/interface/cli.o (symbol from plugin)
                                                  obj/main/BETAFLIGHTF3/fc/fc_init.o (symbol from plugin)
                                                  obj/main/BETAFLIGHTF3/io/beeper.o (symbol from plugin)
                                                  obj/main/BETAFLIGHTF3/interface/msp.o (symbol from plugin)
getCheckFuncInfo                                  obj/main/BETAFLIGHTF3/scheduler/scheduler.o (symbol from plugin)
                                                  obj/main/BETAFLIGHTF3/interface/cli.o (symbol from plugin)
getCosTiltAngle                                   obj/main/BETAFLIGHTF3/flight/imu.o (symbol from plugin)
getCrsfFrame                                      obj/main/BETAFLIGHTF3/telemetry/crsf.o (symbol from plugin)
getCurrentControlRateProfileIndex                 obj/main/BETAFLIGHTF3/fc/config.o (symbol from plugin)
                                                  obj/main/BETAFLIGHTF3/cms/cms_menu_imu.o (symbol from plugin)
                                                  obj/main/BETAFLIGHTF3/interface/cli.o (symbol from plugin)
                                                  obj/main/BETAFLIGHTF3/fc/rc_adjustments.o (symbol from plugin)
                                                  obj/main/BETAFLIGHTF3/interface/msp.o (symbol from plugin)
                                                  obj/main/BETAFLIGHTF3/io/osd.o (symbol from plugin)
getCurrentMinthrottle                             obj/main/BETAFLIGHTF3/fc/config.o (symbol from plugin)
getCurrentPidProfileIndex                         obj/main/BETAFLIGHTF3/fc/config.o (symbol from plugin)
                                                  obj/main/BETAFLIGHTF3/cms/cms_menu_imu.o (symbol from plugin)
                                                  obj/main/BETAFLIGHTF3/interface/cli.o (symbol from plugin)
                                                  obj/main/BETAFLIGHTF3/interface/msp.o (symbol from plugin)
                                                  obj/main/BETAFLIGHTF3/io/osd.o (symbol from plugin)
getDshotHz                                        obj/main/BETAFLIGHTF3/drivers/pwm_output.o (symbol from plugin)
                                                  obj/main/BETAFLIGHTF3/drivers/pwm_output_dshot.o (symbol from plugin)
getEEPROMConfigSize                               obj/main/BETAFLIGHTF3/config/config_eeprom.o (symbol from plugin)
                                                  obj/main/BETAFLIGHTF3/interface/cli.o (symbol from plugin)
getEscSensorData                                  C:\cygwin64\tmp\ccTUqUH8.ltrans2.ltrans.o
                                                  obj/main/BETAFLIGHTF3/sensors/esc_sensor.o (symbol from plugin)
                                                  C:\cygwin64\tmp\ccTUqUH8.ltrans5.ltrans.o
                                                  C:\cygwin64\tmp\ccTUqUH8.ltrans4.ltrans.o
                                                  C:\cygwin64\tmp\ccTUqUH8.ltrans0.ltrans.o
                                                  obj/main/BETAFLIGHTF3/telemetry/frsky_hub.o (symbol from plugin)
                                                  obj/main/BETAFLIGHTF3/sensors/voltage.o (symbol from plugin)
                                                  obj/main/BETAFLIGHTF3/sensors/current.o (symbol from plugin)
                                                  obj/main/BETAFLIGHTF3/interface/msp.o (symbol from plugin)
                                                  obj/main/BETAFLIGHTF3/io/osd.o (symbol from plugin)
getEstimatedAltitude                              obj/main/BETAFLIGHTF3/flight/altitude.o (symbol from plugin)
                                                  obj/main/BETAFLIGHTF3/telemetry/smartport.o (symbol from plugin)
                                                  obj/main/BETAFLIGHTF3/telemetry/jetiexbus.o (symbol from plugin)
                                                  obj/main/BETAFLIGHTF3/telemetry/hott.o (symbol from plugin)
                                                  obj/main/BETAFLIGHTF3/io/osd.o (symbol from plugin)
getEstimatedVario                                 obj/main/BETAFLIGHTF3/flight/altitude.o (symbol from plugin)
                                                  obj/main/BETAFLIGHTF3/telemetry/smartport.o (symbol from plugin)
                                                  obj/main/BETAFLIGHTF3/telemetry/hott.o (symbol from plugin)
                                                  obj/main/BETAFLIGHTF3/interface/msp.o (symbol from plugin)
                                                  obj/main/BETAFLIGHTF3/io/osd.o (symbol from plugin)
getLedHsv                                         obj/main/BETAFLIGHTF3/drivers/light_ws2811strip.o (symbol from plugin)
                                                  obj/main/BETAFLIGHTF3/io/ledstrip.o (symbol from plugin)
getLowVoltageCutoff                               obj/main/BETAFLIGHTF3/sensors/battery.o (symbol from plugin)
                                                  obj/main/BETAFLIGHTF3/fc/fc_rc.o (symbol from plugin)
getMAhDrawn                                       obj/main/BETAFLIGHTF3/sensors/battery.o (symbol from plugin)
                                                  obj/main/BETAFLIGHTF3/telemetry/smartport.o (symbol from plugin)
                                                  obj/main/BETAFLIGHTF3/telemetry/jetiexbus.o (symbol from plugin)
                                                  obj/main/BETAFLIGHTF3/telemetry/hott.o (symbol from plugin)
                                                  obj/main/BETAFLIGHTF3/telemetry/frsky_hub.o (symbol from plugin)
                                                  obj/main/BETAFLIGHTF3/telemetry/srxl.o (symbol from plugin)
                                                  obj/main/BETAFLIGHTF3/telemetry/crsf.o (symbol from plugin)
                                                  obj/main/BETAFLIGHTF3/interface/msp.o (symbol from plugin)
                                                  obj/main/BETAFLIGHTF3/io/osd.o (symbol from plugin)
getMotorCount                                     obj/main/BETAFLIGHTF3/flight/mixer.o (symbol from plugin)
                                                  obj/main/BETAFLIGHTF3/sensors/esc_sensor.o (symbol from plugin)
                                                  obj/main/BETAFLIGHTF3/blackbox/blackbox.o (symbol from plugin)
                                                  obj/main/BETAFLIGHTF3/interface/cli.o (symbol from plugin)
                                                  obj/main/BETAFLIGHTF3/fc/fc_core.o (symbol from plugin)
                                                  obj/main/BETAFLIGHTF3/fc/fc_init.o (symbol from plugin)
                                                  obj/main/BETAFLIGHTF3/io/beeper.o (symbol from plugin)
                                                  obj/main/BETAFLIGHTF3/interface/msp.o (symbol from plugin)
getMotorDmaOutput                                 obj/main/BETAFLIGHTF3/drivers/pwm_output_dshot.o (symbol from plugin)
                                                  obj/main/BETAFLIGHTF3/sensors/esc_sensor.o (symbol from plugin)
                                                  obj/main/BETAFLIGHTF3/drivers/pwm_output.o (symbol from plugin)
getMotorMixRange                                  obj/main/BETAFLIGHTF3/flight/mixer.o (symbol from plugin)
                                                  obj/main/BETAFLIGHTF3/flight/pid.o (symbol from plugin)
getNumberEscBytesRead                             obj/main/BETAFLIGHTF3/sensors/esc_sensor.o (symbol from plugin)
                                                  obj/main/BETAFLIGHTF3/interface/cli.o (symbol from plugin)
getPreferredBeeperOffMask                         obj/main/BETAFLIGHTF3/fc/config.o (symbol from plugin)
                                                  obj/main/BETAFLIGHTF3/interface/cli.o (symbol from plugin)
getRcDeflection                                   obj/main/BETAFLIGHTF3/fc/fc_rc.o (symbol from plugin)
                                                  obj/main/BETAFLIGHTF3/flight/pid.o (symbol from plugin)
                                                  obj/main/BETAFLIGHTF3/flight/mixer.o (symbol from plugin)
getRcDeflectionAbs                                obj/main/BETAFLIGHTF3/fc/fc_rc.o (symbol from plugin)
                                                  obj/main/BETAFLIGHTF3/flight/pid.o (symbol from plugin)
                                                  obj/main/BETAFLIGHTF3/flight/mixer.o (symbol from plugin)
getRcStickDeflection                              obj/main/BETAFLIGHTF3/fc/rc_controls.o (symbol from plugin)
getRssi                                           obj/main/BETAFLIGHTF3/rx/rx.o (symbol from plugin)
                                                  obj/main/BETAFLIGHTF3/telemetry/ltm.o (symbol from plugin)
                                                  obj/main/BETAFLIGHTF3/io/ledstrip.o (symbol from plugin)
                                                  obj/main/BETAFLIGHTF3/blackbox/blackbox.o (symbol from plugin)
                                                  obj/main/BETAFLIGHTF3/interface/msp.o (symbol from plugin)
                                                  obj/main/BETAFLIGHTF3/io/osd.o (symbol from plugin)
getSetpointRate                                   obj/main/BETAFLIGHTF3/fc/fc_rc.o (symbol from plugin)
                                                  obj/main/BETAFLIGHTF3/flight/pid.o (symbol from plugin)
getTaskDeltaTime                                  obj/main/BETAFLIGHTF3/scheduler/scheduler.o (symbol from plugin)
                                                  obj/main/BETAFLIGHTF3/interface/cli.o (symbol from plugin)
                                                  obj/main/BETAFLIGHTF3/fc/rc_controls.o (symbol from plugin)
                                                  obj/main/BETAFLIGHTF3/fc/fc_rc.o (symbol from plugin)
                                                  obj/main/BETAFLIGHTF3/fc/fc_core.o (symbol from plugin)
                                                  obj/main/BETAFLIGHTF3/interface/msp.o (symbol from plugin)
getTaskInfo                                       C:\cygwin64\tmp\ccTUqUH8.ltrans4.ltrans.o
                                                  obj/main/BETAFLIGHTF3/scheduler/scheduler.o (symbol from plugin)
                                                  C:\cygwin64\tmp\ccTUqUH8.ltrans3.ltrans.o
                                                  obj/main/BETAFLIGHTF3/interface/cli.o (symbol from plugin)
getThrottlePIDAttenuation                         obj/main/BETAFLIGHTF3/fc/fc_rc.o (symbol from plugin)
                                                  obj/main/BETAFLIGHTF3/flight/pid.o (symbol from plugin)
getTimerIndex                                     obj/main/BETAFLIGHTF3/drivers/pwm_output_dshot.o (symbol from plugin)
getVoltageMeterADC                                obj/main/BETAFLIGHTF3/sensors/voltage.o (symbol from plugin)
getVrefMv                                         obj/main/BETAFLIGHTF3/sensors/adcinternal.o (symbol from plugin)
                                                  obj/main/BETAFLIGHTF3/sensors/voltage.o (symbol from plugin)
                                                  obj/main/BETAFLIGHTF3/sensors/current.o (symbol from plugin)
gimbalConfig_Copy                                 obj/main/BETAFLIGHTF3/flight/servos.o (symbol from plugin)
gimbalConfig_Registry                             C:\cygwin64\tmp\ccTUqUH8.ltrans3.ltrans.o
                                                  obj/main/BETAFLIGHTF3/flight/servos.o (symbol from plugin)
gimbalConfig_System                               obj/main/BETAFLIGHTF3/flight/servos.o (symbol from plugin)
gpsSol                                            obj/main/BETAFLIGHTF3/telemetry/crsf.o (symbol from plugin)
grab.lto_priv.278                                 C:\cygwin64\tmp\ccTUqUH8.ltrans2.ltrans.o
                                                  C:\cygwin64\tmp\ccTUqUH8.ltrans6.ltrans.o
grab.lto_priv.514                                 C:\cygwin64\tmp\ccTUqUH8.ltrans2.ltrans.o
                                                  C:\cygwin64\tmp\ccTUqUH8.ltrans4.ltrans.o
gyro                                              C:\cygwin64\tmp\ccTUqUH8.ltrans6.ltrans.o
                                                  obj/main/BETAFLIGHTF3/sensors/gyro.o (symbol from plugin)
                                                  C:\cygwin64\tmp\ccTUqUH8.ltrans4.ltrans.o
                                                  C:\cygwin64\tmp\ccTUqUH8.ltrans3.ltrans.o
                                                  C:\cygwin64\tmp\ccTUqUH8.ltrans1.ltrans.o
                                                  C:\cygwin64\tmp\ccTUqUH8.ltrans0.ltrans.o
                                                  obj/main/BETAFLIGHTF3/blackbox/blackbox.o (symbol from plugin)
                                                  obj/main/BETAFLIGHTF3/sensors/initialisation.o (symbol from plugin)
                                                  obj/main/BETAFLIGHTF3/sensors/gyroanalyse.o (symbol from plugin)
                                                  obj/main/BETAFLIGHTF3/flight/pid.o (symbol from plugin)
                                                  obj/main/BETAFLIGHTF3/fc/fc_tasks.o (symbol from plugin)
gyroConfig_Copy                                   obj/main/BETAFLIGHTF3/sensors/gyro.o (symbol from plugin)
gyroConfig_Registry                               C:\cygwin64\tmp\ccTUqUH8.ltrans6.ltrans.o
                                                  obj/main/BETAFLIGHTF3/sensors/gyro.o (symbol from plugin)
gyroConfig_System                                 C:\cygwin64\tmp\ccTUqUH8.ltrans6.ltrans.o
                                                  obj/main/BETAFLIGHTF3/sensors/gyro.o (symbol from plugin)
                                                  C:\cygwin64\tmp\ccTUqUH8.ltrans4.ltrans.o
                                                  C:\cygwin64\tmp\ccTUqUH8.ltrans3.ltrans.o
                                                  C:\cygwin64\tmp\ccTUqUH8.ltrans1.ltrans.o
                                                  C:\cygwin64\tmp\ccTUqUH8.ltrans0.ltrans.o
                                                  obj/main/BETAFLIGHTF3/cms/cms_menu_imu.o (symbol from plugin)
                                                  obj/main/BETAFLIGHTF3/blackbox/blackbox.o (symbol from plugin)
                                                  obj/main/BETAFLIGHTF3/fc/fc_core.o (symbol from plugin)
                                                  obj/main/BETAFLIGHTF3/interface/msp.o (symbol from plugin)
                                                  obj/main/BETAFLIGHTF3/fc/config.o (symbol from plugin)
gyroData.lto_priv.434                             C:\cygwin64\tmp\ccTUqUH8.ltrans1.ltrans.o
                                                  C:\cygwin64\tmp\ccTUqUH8.ltrans3.ltrans.o
gyroDataAnalyse                                   obj/main/BETAFLIGHTF3/sensors/gyroanalyse.o (symbol from plugin)
                                                  obj/main/BETAFLIGHTF3/sensors/gyro.o (symbol from plugin)
gyroDataAnalyseInit                               obj/main/BETAFLIGHTF3/sensors/gyroanalyse.o (symbol from plugin)
                                                  obj/main/BETAFLIGHTF3/sensors/gyro.o (symbol from plugin)
gyroDataAnalyseUpdate                             obj/main/BETAFLIGHTF3/sensors/gyroanalyse.o (symbol from plugin)
gyroDebugMode.lto_priv.431                        C:\cygwin64\tmp\ccTUqUH8.ltrans1.ltrans.o
                                                  C:\cygwin64\tmp\ccTUqUH8.ltrans3.ltrans.o
gyroFftData                                       obj/main/BETAFLIGHTF3/sensors/gyroanalyse.o (symbol from plugin)
gyroGetAccumulationAverage                        obj/main/BETAFLIGHTF3/sensors/gyro.o (symbol from plugin)
                                                  obj/main/BETAFLIGHTF3/flight/imu.o (symbol from plugin)
gyroGetTemperature                                obj/main/BETAFLIGHTF3/sensors/gyro.o (symbol from plugin)
gyroInit                                          C:\cygwin64\tmp\ccTUqUH8.ltrans1.ltrans.o
                                                  obj/main/BETAFLIGHTF3/sensors/gyro.o (symbol from plugin)
                                                  C:\cygwin64\tmp\ccTUqUH8.ltrans4.ltrans.o
                                                  obj/main/BETAFLIGHTF3/sensors/initialisation.o (symbol from plugin)
gyroInitFilterLpf                                 obj/main/BETAFLIGHTF3/sensors/gyro.o (symbol from plugin)
gyroInitFilters                                   obj/main/BETAFLIGHTF3/sensors/gyro.o (symbol from plugin)
                                                  obj/main/BETAFLIGHTF3/interface/msp.o (symbol from plugin)
gyroInitSensorFilters.constprop.137               C:\cygwin64\tmp\ccTUqUH8.ltrans6.ltrans.o
                                                  C:\cygwin64\tmp\ccTUqUH8.ltrans4.ltrans.o
                                                  C:\cygwin64\tmp\ccTUqUH8.ltrans1.ltrans.o
gyroMpuConfiguration                              obj/main/BETAFLIGHTF3/sensors/gyro.o (symbol from plugin)
gyroMpuDetectionResult                            obj/main/BETAFLIGHTF3/sensors/gyro.o (symbol from plugin)
                                                  obj/main/BETAFLIGHTF3/sensors/acceleration.o (symbol from plugin)
                                                  obj/main/BETAFLIGHTF3/fc/config.o (symbol from plugin)
gyroOverflowDetected                              obj/main/BETAFLIGHTF3/sensors/gyro.o (symbol from plugin)
                                                  obj/main/BETAFLIGHTF3/flight/pid.o (symbol from plugin)
gyroRateDps                                       obj/main/BETAFLIGHTF3/sensors/gyro.o (symbol from plugin)
                                                  obj/main/BETAFLIGHTF3/interface/msp.o (symbol from plugin)
gyroReadTemperature                               obj/main/BETAFLIGHTF3/sensors/gyro.o (symbol from plugin)
                                                  obj/main/BETAFLIGHTF3/fc/fc_core.o (symbol from plugin)
gyroSensor1.lto_priv.341                          C:\cygwin64\tmp\ccTUqUH8.ltrans6.ltrans.o
                                                  C:\cygwin64\tmp\ccTUqUH8.ltrans4.ltrans.o
                                                  C:\cygwin64\tmp\ccTUqUH8.ltrans3.ltrans.o
                                                  C:\cygwin64\tmp\ccTUqUH8.ltrans1.ltrans.o
                                                  C:\cygwin64\tmp\ccTUqUH8.ltrans0.ltrans.o
gyroSensorBus                                     obj/main/BETAFLIGHTF3/sensors/gyro.o (symbol from plugin)
                                                  obj/main/BETAFLIGHTF3/sensors/acceleration.o (symbol from plugin)
gyroSetSampleRate                                 obj/main/BETAFLIGHTF3/drivers/accgyro/gyro_sync.o (symbol from plugin)
                                                  obj/main/BETAFLIGHTF3/sensors/gyro.o (symbol from plugin)
gyroStartCalibration                              obj/main/BETAFLIGHTF3/sensors/gyro.o (symbol from plugin)
                                                  obj/main/BETAFLIGHTF3/fc/rc_controls.o (symbol from plugin)
                                                  obj/main/BETAFLIGHTF3/fc/fc_core.o (symbol from plugin)
                                                  obj/main/BETAFLIGHTF3/fc/fc_init.o (symbol from plugin)
gyroSyncCheckUpdate                               obj/main/BETAFLIGHTF3/drivers/accgyro/gyro_sync.o (symbol from plugin)
gyroUpdate                                        obj/main/BETAFLIGHTF3/sensors/gyro.o (symbol from plugin)
                                                  obj/main/BETAFLIGHTF3/fc/fc_core.o (symbol from plugin)
handleCrsfMspFrameBuffer                          obj/main/BETAFLIGHTF3/telemetry/crsf.o (symbol from plugin)
handleCrsfTelemetry                               obj/main/BETAFLIGHTF3/telemetry/crsf.o (symbol from plugin)
                                                  obj/main/BETAFLIGHTF3/telemetry/telemetry.o (symbol from plugin)
handleFrSkyHubTelemetry                           obj/main/BETAFLIGHTF3/telemetry/frsky_hub.o (symbol from plugin)
                                                  obj/main/BETAFLIGHTF3/telemetry/telemetry.o (symbol from plugin)
handleHoTTTelemetry                               obj/main/BETAFLIGHTF3/telemetry/hott.o (symbol from plugin)
                                                  obj/main/BETAFLIGHTF3/telemetry/telemetry.o (symbol from plugin)
handleInflightCalibrationStickPosition            obj/main/BETAFLIGHTF3/fc/fc_core.o (symbol from plugin)
                                                  obj/main/BETAFLIGHTF3/fc/rc_controls.o (symbol from plugin)
handleJetiExBusTelemetry                          obj/main/BETAFLIGHTF3/telemetry/jetiexbus.o (symbol from plugin)
handleLtmTelemetry                                obj/main/BETAFLIGHTF3/telemetry/ltm.o (symbol from plugin)
handleMspFrame                                    C:\cygwin64\tmp\ccTUqUH8.ltrans2.ltrans.o
                                                  obj/main/BETAFLIGHTF3/telemetry/msp_shared.o (symbol from plugin)
                                                  C:\cygwin64\tmp\ccTUqUH8.ltrans0.ltrans.o
                                                  obj/main/BETAFLIGHTF3/telemetry/smartport.o (symbol from plugin)
                                                  obj/main/BETAFLIGHTF3/telemetry/crsf.o (symbol from plugin)
handleSmartPortTelemetry                          obj/main/BETAFLIGHTF3/telemetry/smartport.o (symbol from plugin)
                                                  obj/main/BETAFLIGHTF3/telemetry/telemetry.o (symbol from plugin)
handleSrxlTelemetry                               obj/main/BETAFLIGHTF3/telemetry/srxl.o (symbol from plugin)
                                                  obj/main/BETAFLIGHTF3/telemetry/telemetry.o (symbol from plugin)
handleVTXControlButton                            obj/main/BETAFLIGHTF3/io/vtx_control.o (symbol from plugin)
                                                  obj/main/BETAFLIGHTF3/fc/fc_core.o (symbol from plugin)
hanningWindow.lto_priv.441                        C:\cygwin64\tmp\ccTUqUH8.ltrans1.ltrans.o
                                                  C:\cygwin64\tmp\ccTUqUH8.ltrans3.ltrans.o
head.lto_priv.623                                 C:\cygwin64\tmp\ccTUqUH8.ltrans1.ltrans.o
                                                  C:\cygwin64\tmp\ccTUqUH8.ltrans0.ltrans.o
headfree                                          C:\cygwin64\tmp\ccTUqUH8.ltrans3.ltrans.o
                                                  obj/main/BETAFLIGHTF3/flight/imu.o (symbol from plugin)
                                                  C:\cygwin64\tmp\ccTUqUH8.ltrans0.ltrans.o
heartbeat.lto_priv.286                            C:\cygwin64\tmp\ccTUqUH8.ltrans2.ltrans.o
                                                  C:\cygwin64\tmp\ccTUqUH8.ltrans6.ltrans.o
heartbeat.lto_priv.522                            C:\cygwin64\tmp\ccTUqUH8.ltrans2.ltrans.o
                                                  C:\cygwin64\tmp\ccTUqUH8.ltrans4.ltrans.o
hosRegValue.lto_priv.693                          C:\cygwin64\tmp\ccTUqUH8.ltrans6.ltrans.o
                                                  C:\cygwin64\tmp\ccTUqUH8.ltrans5.ltrans.o
hottConfigurePortForRX.lto_priv.669               C:\cygwin64\tmp\ccTUqUH8.ltrans2.ltrans.o
                                                  C:\cygwin64\tmp\ccTUqUH8.ltrans0.ltrans.o
hottEAMMessage.lto_priv.575                       C:\cygwin64\tmp\ccTUqUH8.ltrans2.ltrans.o
                                                  C:\cygwin64\tmp\ccTUqUH8.ltrans0.ltrans.o
hottIsSending.lto_priv.576                        C:\cygwin64\tmp\ccTUqUH8.ltrans2.ltrans.o
                                                  C:\cygwin64\tmp\ccTUqUH8.ltrans0.ltrans.o
hottMsg.lto_priv.577                              C:\cygwin64\tmp\ccTUqUH8.ltrans2.ltrans.o
                                                  C:\cygwin64\tmp\ccTUqUH8.ltrans0.ltrans.o
hottPort.lto_priv.578                             C:\cygwin64\tmp\ccTUqUH8.ltrans2.ltrans.o
                                                  C:\cygwin64\tmp\ccTUqUH8.ltrans0.ltrans.o
hottPortSharing.lto_priv.582                      C:\cygwin64\tmp\ccTUqUH8.ltrans2.ltrans.o
                                                  C:\cygwin64\tmp\ccTUqUH8.ltrans0.ltrans.o
hottPrepareEAMResponse                            obj/main/BETAFLIGHTF3/telemetry/hott.o (symbol from plugin)
hottTelemetryEnabled.lto_priv.574                 C:\cygwin64\tmp\ccTUqUH8.ltrans2.ltrans.o
                                                  C:\cygwin64\tmp\ccTUqUH8.ltrans0.ltrans.o
hse_value                                         obj/main/BETAFLIGHTF3/target/system_stm32f30x.o (symbol from plugin)
hsv                                               obj/main/BETAFLIGHTF3/io/ledstrip.o (symbol from plugin)
hsvToRgb24                                        obj/main/BETAFLIGHTF3/common/colorconversion.o (symbol from plugin)
                                                  obj/main/BETAFLIGHTF3/drivers/light_ws2811strip.o (symbol from plugin)
huffmanEncodeBuf                                  obj/main/BETAFLIGHTF3/common/huffman.o (symbol from plugin)
huffmanEncodeBufStreaming                         obj/main/BETAFLIGHTF3/common/huffman.o (symbol from plugin)
huffmanTable                                      obj/main/BETAFLIGHTF3/common/huffman_table.o (symbol from plugin)
i2a                                               obj/main/BETAFLIGHTF3/common/typeconversion.o (symbol from plugin)
                                                  obj/main/BETAFLIGHTF3/common/printf.o (symbol from plugin)
i2c_OLED_clear_display_quick                      obj/main/BETAFLIGHTF3/io/displayport_oled.o (symbol from plugin)
i2c_OLED_send_char                                obj/main/BETAFLIGHTF3/io/displayport_oled.o (symbol from plugin)
i2c_OLED_send_string                              obj/main/BETAFLIGHTF3/io/displayport_oled.o (symbol from plugin)
i2c_OLED_set_xy                                   obj/main/BETAFLIGHTF3/io/displayport_oled.o (symbol from plugin)
ibusInit                                          obj/main/BETAFLIGHTF3/rx/ibus.o (symbol from plugin)
                                                  obj/main/BETAFLIGHTF3/rx/rx.o (symbol from plugin)
imuConfig_Copy                                    obj/main/BETAFLIGHTF3/flight/imu.o (symbol from plugin)
imuConfig_Registry                                C:\cygwin64\tmp\ccTUqUH8.ltrans4.ltrans.o
                                                  obj/main/BETAFLIGHTF3/flight/imu.o (symbol from plugin)
imuConfig_System                                  C:\cygwin64\tmp\ccTUqUH8.ltrans4.ltrans.o
                                                  obj/main/BETAFLIGHTF3/flight/imu.o (symbol from plugin)
                                                  C:\cygwin64\tmp\ccTUqUH8.ltrans0.ltrans.o
                                                  obj/main/BETAFLIGHTF3/interface/msp.o (symbol from plugin)
imuConfigure                                      obj/main/BETAFLIGHTF3/flight/imu.o (symbol from plugin)
                                                  obj/main/BETAFLIGHTF3/fc/config.o (symbol from plugin)
imuInit                                           C:\cygwin64\tmp\ccTUqUH8.ltrans3.ltrans.o
                                                  obj/main/BETAFLIGHTF3/flight/imu.o (symbol from plugin)
                                                  C:\cygwin64\tmp\ccTUqUH8.ltrans4.ltrans.o
                                                  obj/main/BETAFLIGHTF3/fc/fc_init.o (symbol from plugin)
imuQuaternionComputeProducts                      obj/main/BETAFLIGHTF3/flight/imu.o (symbol from plugin)
imuQuaternionHeadfreeOffsetSet                    obj/main/BETAFLIGHTF3/flight/imu.o (symbol from plugin)
                                                  obj/main/BETAFLIGHTF3/fc/fc_core.o (symbol from plugin)
imuQuaternionHeadfreeTransformVectorEarthToBody   obj/main/BETAFLIGHTF3/flight/imu.o (symbol from plugin)
                                                  obj/main/BETAFLIGHTF3/fc/fc_rc.o (symbol from plugin)
imuQuaternionMultiplication                       obj/main/BETAFLIGHTF3/flight/imu.o (symbol from plugin)
imuResetAccelerationSum                           obj/main/BETAFLIGHTF3/flight/imu.o (symbol from plugin)
imuRuntimeConfig.lto_priv.624                     C:\cygwin64\tmp\ccTUqUH8.ltrans3.ltrans.o
                                                  C:\cygwin64\tmp\ccTUqUH8.ltrans0.ltrans.o
imuUpdateAttitude                                 obj/main/BETAFLIGHTF3/flight/imu.o (symbol from plugin)
                                                  obj/main/BETAFLIGHTF3/fc/fc_tasks.o (symbol from plugin)
inCrashRecoveryMode.lto_priv.594                  C:\cygwin64\tmp\ccTUqUH8.ltrans3.ltrans.o
                                                  C:\cygwin64\tmp\ccTUqUH8.ltrans0.ltrans.o
indicate.part.2.constprop.197                     C:\cygwin64\tmp\ccTUqUH8.ltrans6.ltrans.o
                                                  C:\cygwin64\tmp\ccTUqUH8.ltrans5.ltrans.o
                                                  C:\cygwin64\tmp\ccTUqUH8.ltrans0.ltrans.o
indicate.part.2.constprop.198                     C:\cygwin64\tmp\ccTUqUH8.ltrans6.ltrans.o
                                                  C:\cygwin64\tmp\ccTUqUH8.ltrans5.ltrans.o
                                                  C:\cygwin64\tmp\ccTUqUH8.ltrans0.ltrans.o
indicateFailure                                   C:\cygwin64\tmp\ccTUqUH8.ltrans0.ltrans.o
                                                  obj/main/BETAFLIGHTF3/drivers/system.o (symbol from plugin)
                                                  C:\cygwin64\tmp\ccTUqUH8.ltrans4.ltrans.o
                                                  obj/main/BETAFLIGHTF3/fc/fc_init.o (symbol from plugin)
init                                              C:\cygwin64\tmp\ccTUqUH8.ltrans4.ltrans.o
                                                  obj/main/BETAFLIGHTF3/fc/fc_init.o (symbol from plugin)
                                                  C:\cygwin64\tmp\ccTUqUH8.ltrans5.ltrans.o
                                                  obj/main/BETAFLIGHTF3/main.o (symbol from plugin)
initActiveBoxIds                                  obj/main/BETAFLIGHTF3/interface/msp_box.o (symbol from plugin)
                                                  obj/main/BETAFLIGHTF3/interface/msp.o (symbol from plugin)
initBoardAlignment                                obj/main/BETAFLIGHTF3/sensors/boardalignment.o (symbol from plugin)
                                                  obj/main/BETAFLIGHTF3/fc/fc_init.o (symbol from plugin)
initCrsfMspBuffer                                 obj/main/BETAFLIGHTF3/telemetry/crsf.o (symbol from plugin)
                                                  obj/main/BETAFLIGHTF3/telemetry/telemetry.o (symbol from plugin)
initCrsfTelemetry                                 obj/main/BETAFLIGHTF3/telemetry/crsf.o (symbol from plugin)
                                                  obj/main/BETAFLIGHTF3/telemetry/telemetry.o (symbol from plugin)
initEEPROM                                        obj/main/BETAFLIGHTF3/config/config_eeprom.o (symbol from plugin)
                                                  obj/main/BETAFLIGHTF3/fc/fc_init.o (symbol from plugin)
initEscEndpoints                                  C:\cygwin64\tmp\ccTUqUH8.ltrans3.ltrans.o
                                                  obj/main/BETAFLIGHTF3/flight/mixer.o (symbol from plugin)
                                                  C:\cygwin64\tmp\ccTUqUH8.ltrans4.ltrans.o
initFrSkyHubTelemetry                             obj/main/BETAFLIGHTF3/telemetry/frsky_hub.o (symbol from plugin)
                                                  obj/main/BETAFLIGHTF3/telemetry/telemetry.o (symbol from plugin)
initFrSkyHubTelemetryExternal                     obj/main/BETAFLIGHTF3/telemetry/frsky_hub.o (symbol from plugin)
initGyroData                                      obj/main/BETAFLIGHTF3/sensors/gyroanalyse.o (symbol from plugin)
initHanning                                       obj/main/BETAFLIGHTF3/sensors/gyroanalyse.o (symbol from plugin)
initHoTTTelemetry                                 obj/main/BETAFLIGHTF3/telemetry/hott.o (symbol from plugin)
                                                  obj/main/BETAFLIGHTF3/telemetry/telemetry.o (symbol from plugin)
initJetiExBusTelemetry                            obj/main/BETAFLIGHTF3/telemetry/jetiexbus.o (symbol from plugin)
initLtmTelemetry                                  obj/main/BETAFLIGHTF3/telemetry/ltm.o (symbol from plugin)
initRcProcessing                                  C:\cygwin64\tmp\ccTUqUH8.ltrans3.ltrans.o
                                                  obj/main/BETAFLIGHTF3/fc/fc_rc.o (symbol from plugin)
                                                  C:\cygwin64\tmp\ccTUqUH8.ltrans4.ltrans.o
                                                  C:\cygwin64\tmp\ccTUqUH8.ltrans0.ltrans.o
                                                  obj/main/BETAFLIGHTF3/fc/rc_adjustments.o (symbol from plugin)
                                                  obj/main/BETAFLIGHTF3/fc/controlrate_profile.o (symbol from plugin)
                                                  obj/main/BETAFLIGHTF3/interface/msp.o (symbol from plugin)
                                                  obj/main/BETAFLIGHTF3/fc/config.o (symbol from plugin)
initSharedMsp                                     obj/main/BETAFLIGHTF3/telemetry/msp_shared.o (symbol from plugin)
                                                  obj/main/BETAFLIGHTF3/telemetry/telemetry.o (symbol from plugin)
initSmartPortTelemetry                            obj/main/BETAFLIGHTF3/telemetry/smartport.o (symbol from plugin)
                                                  obj/main/BETAFLIGHTF3/telemetry/telemetry.o (symbol from plugin)
initSmartPortTelemetryExternal                    obj/main/BETAFLIGHTF3/telemetry/smartport.o (symbol from plugin)
                                                  obj/main/BETAFLIGHTF3/rx/fport.o (symbol from plugin)
initSrxlTelemetry                                 obj/main/BETAFLIGHTF3/telemetry/srxl.o (symbol from plugin)
                                                  obj/main/BETAFLIGHTF3/telemetry/telemetry.o (symbol from plugin)
init_printf                                       obj/main/BETAFLIGHTF3/common/printf.o (symbol from plugin)
inputFilteringMode.lto_priv.467                   C:\cygwin64\tmp\ccTUqUH8.ltrans6.ltrans.o
                                                  C:\cygwin64\tmp\ccTUqUH8.ltrans4.ltrans.o
inputSource_e                                     obj/main/BETAFLIGHTF3/io/ledstrip.o (symbol from plugin)
                                                  obj/main/BETAFLIGHTF3/blackbox/blackbox.o (symbol from plugin)
                                                  obj/main/BETAFLIGHTF3/interface/settings.o (symbol from plugin)
                                                  obj/main/BETAFLIGHTF3/interface/cli.o (symbol from plugin)
                                                  obj/main/BETAFLIGHTF3/flight/servos_tricopter.o (symbol from plugin)
                                                  obj/main/BETAFLIGHTF3/flight/servos.o (symbol from plugin)
                                                  obj/main/BETAFLIGHTF3/fc/fc_core.o (symbol from plugin)
                                                  obj/main/BETAFLIGHTF3/fc/fc_init.o (symbol from plugin)
                                                  obj/main/BETAFLIGHTF3/interface/msp.o (symbol from plugin)
                                                  obj/main/BETAFLIGHTF3/fc/config.o (symbol from plugin)
intFeatureClear                                   obj/main/BETAFLIGHTF3/config/feature.o (symbol from plugin)
intFeatureClearAll                                obj/main/BETAFLIGHTF3/config/feature.o (symbol from plugin)
intFeatureSet                                     obj/main/BETAFLIGHTF3/config/feature.o (symbol from plugin)
ioDefUsedMask.lto_priv.297                        C:\cygwin64\tmp\ccTUqUH8.ltrans6.ltrans.o
                                                  C:\cygwin64\tmp\ccTUqUH8.ltrans5.ltrans.o
                                                  C:\cygwin64\tmp\ccTUqUH8.ltrans0.ltrans.o
ioDefUsedOffset.lto_priv.298                      C:\cygwin64\tmp\ccTUqUH8.ltrans6.ltrans.o
                                                  C:\cygwin64\tmp\ccTUqUH8.ltrans5.ltrans.o
                                                  C:\cygwin64\tmp\ccTUqUH8.ltrans0.ltrans.o
ioPortDefs                                        C:\cygwin64\tmp\ccTUqUH8.ltrans6.ltrans.o
                                                  obj/main/BETAFLIGHTF3/drivers/io.o (symbol from plugin)
                                                  C:\cygwin64\tmp\ccTUqUH8.ltrans5.ltrans.o
                                                  C:\cygwin64\tmp\ccTUqUH8.ltrans0.ltrans.o
ioRecs                                            C:\cygwin64\tmp\ccTUqUH8.ltrans6.ltrans.o
                                                  obj/main/BETAFLIGHTF3/drivers/io.o (symbol from plugin)
                                                  C:\cygwin64\tmp\ccTUqUH8.ltrans5.ltrans.o
                                                  C:\cygwin64\tmp\ccTUqUH8.ltrans3.ltrans.o
                                                  C:\cygwin64\tmp\ccTUqUH8.ltrans2.ltrans.o
                                                  C:\cygwin64\tmp\ccTUqUH8.ltrans0.ltrans.o
                                                  obj/main/BETAFLIGHTF3/interface/cli.o (symbol from plugin)
isAirmodeActive                                   C:\cygwin64\tmp\ccTUqUH8.ltrans3.ltrans.o
                                                  obj/main/BETAFLIGHTF3/fc/rc_modes.o (symbol from plugin)
                                                  C:\cygwin64\tmp\ccTUqUH8.ltrans5.ltrans.o
                                                  C:\cygwin64\tmp\ccTUqUH8.ltrans0.ltrans.o
                                                  obj/main/BETAFLIGHTF3/telemetry/crsf.o (symbol from plugin)
                                                  obj/main/BETAFLIGHTF3/flight/mixer.o (symbol from plugin)
                                                  obj/main/BETAFLIGHTF3/fc/fc_core.o (symbol from plugin)
                                                  obj/main/BETAFLIGHTF3/io/osd.o (symbol from plugin)
isAmperageAvailable                               obj/main/BETAFLIGHTF3/sensors/battery.o (symbol from plugin)
                                                  obj/main/BETAFLIGHTF3/telemetry/smartport.o (symbol from plugin)
                                                  obj/main/BETAFLIGHTF3/telemetry/frsky_hub.o (symbol from plugin)
                                                  obj/main/BETAFLIGHTF3/telemetry/crsf.o (symbol from plugin)
isAntiGravityModeActive                           obj/main/BETAFLIGHTF3/fc/rc_modes.o (symbol from plugin)
                                                  obj/main/BETAFLIGHTF3/fc/fc_rc.o (symbol from plugin)
isArmingDisabled                                  obj/main/BETAFLIGHTF3/fc/runtime_config.o (symbol from plugin)
                                                  obj/main/BETAFLIGHTF3/telemetry/smartport.o (symbol from plugin)
                                                  obj/main/BETAFLIGHTF3/io/ledstrip.o (symbol from plugin)
                                                  obj/main/BETAFLIGHTF3/fc/fc_core.o (symbol from plugin)
                                                  obj/main/BETAFLIGHTF3/io/osd.o (symbol from plugin)
isBatteryVoltageAvailable                         C:\cygwin64\tmp\ccTUqUH8.ltrans4.ltrans.o
                                                  obj/main/BETAFLIGHTF3/sensors/battery.o (symbol from plugin)
                                                  C:\cygwin64\tmp\ccTUqUH8.ltrans2.ltrans.o
                                                  C:\cygwin64\tmp\ccTUqUH8.ltrans0.ltrans.o
                                                  obj/main/BETAFLIGHTF3/telemetry/smartport.o (symbol from plugin)
                                                  obj/main/BETAFLIGHTF3/telemetry/frsky_hub.o (symbol from plugin)
                                                  obj/main/BETAFLIGHTF3/telemetry/crsf.o (symbol from plugin)
isBeeperOn                                        obj/main/BETAFLIGHTF3/io/beeper.o (symbol from plugin)
                                                  obj/main/BETAFLIGHTF3/io/ledstrip.o (symbol from plugin)
                                                  obj/main/BETAFLIGHTF3/io/osd.o (symbol from plugin)
isBlackboxDeviceFull                              obj/main/BETAFLIGHTF3/blackbox/blackbox_io.o (symbol from plugin)
                                                  obj/main/BETAFLIGHTF3/blackbox/blackbox.o (symbol from plugin)
isChecksumOkIa6b                                  obj/main/BETAFLIGHTF3/telemetry/ibus_shared.o (symbol from plugin)
                                                  obj/main/BETAFLIGHTF3/rx/ibus.o (symbol from plugin)
isDshot.lto_priv.418                              C:\cygwin64\tmp\ccTUqUH8.ltrans6.ltrans.o
                                                  C:\cygwin64\tmp\ccTUqUH8.ltrans4.ltrans.o
                                                  C:\cygwin64\tmp\ccTUqUH8.ltrans3.ltrans.o
                                                  C:\cygwin64\tmp\ccTUqUH8.ltrans0.ltrans.o
isEEPROMContentValid                              C:\cygwin64\tmp\ccTUqUH8.ltrans5.ltrans.o
                                                  obj/main/BETAFLIGHTF3/config/config_eeprom.o (symbol from plugin)
                                                  C:\cygwin64\tmp\ccTUqUH8.ltrans4.ltrans.o
                                                  obj/main/BETAFLIGHTF3/fc/config.o (symbol from plugin)
isEscHi                                           obj/main/BETAFLIGHTF3/io/serial_4way.o (symbol from plugin)
                                                  obj/main/BETAFLIGHTF3/io/serial_4way_stk500v2.o (symbol from plugin)
                                                  obj/main/BETAFLIGHTF3/io/serial_4way_avrootloader.o (symbol from plugin)
isEscLo                                           obj/main/BETAFLIGHTF3/io/serial_4way.o (symbol from plugin)
                                                  obj/main/BETAFLIGHTF3/io/serial_4way_stk500v2.o (symbol from plugin)
isEscSensorActive                                 obj/main/BETAFLIGHTF3/sensors/esc_sensor.o (symbol from plugin)
isEscSerialTransmitBufferEmpty.lto_priv.328       C:\cygwin64\tmp\ccTUqUH8.ltrans1.ltrans.o
                                                  C:\cygwin64\tmp\ccTUqUH8.ltrans2.ltrans.o
isFirstArmingGyroCalibrationRunning               obj/main/BETAFLIGHTF3/sensors/gyro.o (symbol from plugin)
                                                  obj/main/BETAFLIGHTF3/fc/fc_core.o (symbol from plugin)
isFlipOverAfterCrashMode                          obj/main/BETAFLIGHTF3/fc/fc_core.o (symbol from plugin)
                                                  obj/main/BETAFLIGHTF3/flight/mixer.o (symbol from plugin)
isGyroCalibrationComplete                         obj/main/BETAFLIGHTF3/sensors/gyro.o (symbol from plugin)
                                                  obj/main/BETAFLIGHTF3/fc/fc_core.o (symbol from plugin)
isGyroSensorCalibrationComplete                   obj/main/BETAFLIGHTF3/sensors/gyro.o (symbol from plugin)
isMPUSoftReset                                    obj/main/BETAFLIGHTF3/drivers/system_stm32f30x.o (symbol from plugin)
                                                  obj/main/BETAFLIGHTF3/rx/spektrum.o (symbol from plugin)
isMcuConnected                                    obj/main/BETAFLIGHTF3/io/serial_4way.o (symbol from plugin)
                                                  obj/main/BETAFLIGHTF3/io/serial_4way_avrootloader.o (symbol from plugin)
isMixerUsingServos                                obj/main/BETAFLIGHTF3/flight/servos.o (symbol from plugin)
                                                  obj/main/BETAFLIGHTF3/fc/fc_core.o (symbol from plugin)
                                                  obj/main/BETAFLIGHTF3/fc/fc_init.o (symbol from plugin)
isModeActivationConditionPresent                  C:\cygwin64\tmp\ccTUqUH8.ltrans3.ltrans.o
                                                  obj/main/BETAFLIGHTF3/fc/rc_modes.o (symbol from plugin)
                                                  C:\cygwin64\tmp\ccTUqUH8.ltrans5.ltrans.o
                                                  C:\cygwin64\tmp\ccTUqUH8.ltrans2.ltrans.o
                                                  C:\cygwin64\tmp\ccTUqUH8.ltrans1.ltrans.o
                                                  obj/main/BETAFLIGHTF3/io/vtx.o (symbol from plugin)
                                                  obj/main/BETAFLIGHTF3/blackbox/blackbox.o (symbol from plugin)
                                                  obj/main/BETAFLIGHTF3/flight/mixer.o (symbol from plugin)
                                                  obj/main/BETAFLIGHTF3/fc/rc_controls.o (symbol from plugin)
                                                  obj/main/BETAFLIGHTF3/fc/fc_rc.o (symbol from plugin)
                                                  obj/main/BETAFLIGHTF3/fc/fc_core.o (symbol from plugin)
                                                  obj/main/BETAFLIGHTF3/io/osd.o (symbol from plugin)
isMotorProtocolDshot                              obj/main/BETAFLIGHTF3/drivers/pwm_output.o (symbol from plugin)
                                                  obj/main/BETAFLIGHTF3/flight/mixer.o (symbol from plugin)
                                                  obj/main/BETAFLIGHTF3/fc/fc_core.o (symbol from plugin)
                                                  obj/main/BETAFLIGHTF3/interface/msp_box.o (symbol from plugin)
isMotorsReversed                                  obj/main/BETAFLIGHTF3/fc/fc_rc.o (symbol from plugin)
                                                  obj/main/BETAFLIGHTF3/flight/mixer.o (symbol from plugin)
isPPMDataBeingReceived                            obj/main/BETAFLIGHTF3/drivers/rx/rx_pwm.o (symbol from plugin)
                                                  obj/main/BETAFLIGHTF3/rx/rx.o (symbol from plugin)
isPWMDataBeingReceived                            obj/main/BETAFLIGHTF3/drivers/rx/rx_pwm.o (symbol from plugin)
                                                  obj/main/BETAFLIGHTF3/rx/rx.o (symbol from plugin)
isRXDataNew                                       C:\cygwin64\tmp\ccTUqUH8.ltrans3.ltrans.o
                                                  obj/main/BETAFLIGHTF3/fc/fc_core.o (symbol from plugin)
                                                  C:\cygwin64\tmp\ccTUqUH8.ltrans0.ltrans.o
                                                  obj/main/BETAFLIGHTF3/fc/fc_rc.o (symbol from plugin)
                                                  obj/main/BETAFLIGHTF3/fc/fc_tasks.o (symbol from plugin)
isRangeActive                                     C:\cygwin64\tmp\ccTUqUH8.ltrans3.ltrans.o
                                                  obj/main/BETAFLIGHTF3/fc/rc_modes.o (symbol from plugin)
                                                  C:\cygwin64\tmp\ccTUqUH8.ltrans0.ltrans.o
                                                  obj/main/BETAFLIGHTF3/io/vtx_control.o (symbol from plugin)
                                                  obj/main/BETAFLIGHTF3/fc/rc_adjustments.o (symbol from plugin)
isSerialConfigValid                               obj/main/BETAFLIGHTF3/io/serial.o (symbol from plugin)
                                                  obj/main/BETAFLIGHTF3/fc/config.o (symbol from plugin)
isSerialConfigValid.constprop.170                 C:\cygwin64\tmp\ccTUqUH8.ltrans6.ltrans.o
                                                  C:\cygwin64\tmp\ccTUqUH8.ltrans0.ltrans.o
isSerialPortShared                                obj/main/BETAFLIGHTF3/io/serial.o (symbol from plugin)
                                                  obj/main/BETAFLIGHTF3/rx/ibus.o (symbol from plugin)
isSerialTransmitBufferEmpty                       obj/main/BETAFLIGHTF3/drivers/serial.o (symbol from plugin)
                                                  obj/main/BETAFLIGHTF3/telemetry/jetiexbus.o (symbol from plugin)
                                                  obj/main/BETAFLIGHTF3/blackbox/blackbox_io.o (symbol from plugin)
                                                  obj/main/BETAFLIGHTF3/io/serial.o (symbol from plugin)
                                                  obj/main/BETAFLIGHTF3/common/printf.o (symbol from plugin)
isSoftSerialTransmitBufferEmpty                   obj/main/BETAFLIGHTF3/drivers/serial_softserial.o (symbol from plugin)
isTransferInProgress.lto_priv.285                 C:\cygwin64\tmp\ccTUqUH8.ltrans2.ltrans.o
                                                  C:\cygwin64\tmp\ccTUqUH8.ltrans6.ltrans.o
isTransferInProgress.lto_priv.521                 C:\cygwin64\tmp\ccTUqUH8.ltrans2.ltrans.o
                                                  C:\cygwin64\tmp\ccTUqUH8.ltrans4.ltrans.o
isUartTransmitBufferEmpty.lto_priv.701            C:\cygwin64\tmp\ccTUqUH8.ltrans0.ltrans.o
                                                  C:\cygwin64\tmp\ccTUqUH8.ltrans5.ltrans.o
isUsbVcpTransmitBufferEmpty.lto_priv.530          C:\cygwin64\tmp\ccTUqUH8.ltrans6.ltrans.o
                                                  C:\cygwin64\tmp\ccTUqUH8.ltrans4.ltrans.o
isUsingSticksForArming                            obj/main/BETAFLIGHTF3/fc/rc_controls.o (symbol from plugin)
                                                  obj/main/BETAFLIGHTF3/flight/failsafe.o (symbol from plugin)
                                                  obj/main/BETAFLIGHTF3/fc/fc_core.o (symbol from plugin)
isUsingSticksToArm.lto_priv.495                   C:\cygwin64\tmp\ccTUqUH8.ltrans3.ltrans.o
                                                  C:\cygwin64\tmp\ccTUqUH8.ltrans4.ltrans.o
                                                  C:\cygwin64\tmp\ccTUqUH8.ltrans0.ltrans.o
isWS2811LedStripReady                             obj/main/BETAFLIGHTF3/drivers/light_ws2811strip.o (symbol from plugin)
                                                  obj/main/BETAFLIGHTF3/io/ledstrip.o (symbol from plugin)
isalnum                                           C:\cygwin64\tmp\ccTUqUH8.ltrans5.ltrans.o
isdigit                                           C:\cygwin64\tmp\ccTUqUH8.ltrans5.ltrans.o
islower                                           C:\cygwin64\tmp\ccTUqUH8.ltrans5.ltrans.o
isspace                                           C:\cygwin64\tmp\ccTUqUH8.ltrans5.ltrans.o
                                                  C:\cygwin64\tmp\ccTUqUH8.ltrans3.ltrans.o
isupper                                           C:\cygwin64\tmp\ccTUqUH8.ltrans5.ltrans.o
itoa                                              obj/main/BETAFLIGHTF3/common/typeconversion.o (symbol from plugin)
                                                  obj/main/BETAFLIGHTF3/cms/cms.o (symbol from plugin)
                                                  obj/main/BETAFLIGHTF3/interface/cli.o (symbol from plugin)
                                                  obj/main/BETAFLIGHTF3/io/osd.o (symbol from plugin)
itoa.constprop.189                                C:\cygwin64\tmp\ccTUqUH8.ltrans6.ltrans.o
                                                  C:\cygwin64\tmp\ccTUqUH8.ltrans5.ltrans.o
                                                  C:\cygwin64\tmp\ccTUqUH8.ltrans3.ltrans.o
                                                  C:\cygwin64\tmp\ccTUqUH8.ltrans1.ltrans.o
jetiExBusCalcCRC16                                obj/main/BETAFLIGHTF3/rx/jetiexbus.o (symbol from plugin)
                                                  obj/main/BETAFLIGHTF3/telemetry/jetiexbus.o (symbol from plugin)
jetiExBusDecodeChannelFrame                       obj/main/BETAFLIGHTF3/rx/jetiexbus.o (symbol from plugin)
jetiExBusFrameReset                               obj/main/BETAFLIGHTF3/rx/jetiexbus.o (symbol from plugin)
jetiExBusInit                                     obj/main/BETAFLIGHTF3/rx/jetiexbus.o (symbol from plugin)
jetiExBusPort                                     obj/main/BETAFLIGHTF3/rx/jetiexbus.o (symbol from plugin)
                                                  obj/main/BETAFLIGHTF3/telemetry/jetiexbus.o (symbol from plugin)
jetiExBusRequestFrame                             obj/main/BETAFLIGHTF3/rx/jetiexbus.o (symbol from plugin)
                                                  obj/main/BETAFLIGHTF3/telemetry/jetiexbus.o (symbol from plugin)
jetiExBusRequestState                             obj/main/BETAFLIGHTF3/rx/jetiexbus.o (symbol from plugin)
                                                  obj/main/BETAFLIGHTF3/telemetry/jetiexbus.o (symbol from plugin)
jetiExSensors                                     obj/main/BETAFLIGHTF3/telemetry/jetiexbus.o (symbol from plugin)
jetiTimeStampRequest                              obj/main/BETAFLIGHTF3/rx/jetiexbus.o (symbol from plugin)
                                                  obj/main/BETAFLIGHTF3/telemetry/jetiexbus.o (symbol from plugin)
lastArmingDisabledReason.lto_priv.596             C:\cygwin64\tmp\ccTUqUH8.ltrans4.ltrans.o
                                                  C:\cygwin64\tmp\ccTUqUH8.ltrans0.ltrans.o
lastMspRssiUpdateUs.lto_priv.590                  C:\cygwin64\tmp\ccTUqUH8.ltrans4.ltrans.o
                                                  C:\cygwin64\tmp\ccTUqUH8.ltrans0.ltrans.o
latchActiveFeatures                               obj/main/BETAFLIGHTF3/config/feature.o (symbol from plugin)
                                                  obj/main/BETAFLIGHTF3/fc/fc_init.o (symbol from plugin)
ledColorBuffer.lto_priv.332                       C:\cygwin64\tmp\ccTUqUH8.ltrans2.ltrans.o
                                                  C:\cygwin64\tmp\ccTUqUH8.ltrans1.ltrans.o
ledInit                                           obj/main/BETAFLIGHTF3/drivers/light_led.o (symbol from plugin)
                                                  obj/main/BETAFLIGHTF3/fc/fc_init.o (symbol from plugin)
ledInit.constprop.120                             C:\cygwin64\tmp\ccTUqUH8.ltrans6.ltrans.o
                                                  C:\cygwin64\tmp\ccTUqUH8.ltrans4.ltrans.o
ledInversion.lto_priv.464                         C:\cygwin64\tmp\ccTUqUH8.ltrans6.ltrans.o
                                                  C:\cygwin64\tmp\ccTUqUH8.ltrans5.ltrans.o
                                                  C:\cygwin64\tmp\ccTUqUH8.ltrans4.ltrans.o
                                                  C:\cygwin64\tmp\ccTUqUH8.ltrans0.ltrans.o
ledSet                                            C:\cygwin64\tmp\ccTUqUH8.ltrans5.ltrans.o
                                                  obj/main/BETAFLIGHTF3/drivers/light_led.o (symbol from plugin)
                                                  C:\cygwin64\tmp\ccTUqUH8.ltrans6.ltrans.o
                                                  C:\cygwin64\tmp\ccTUqUH8.ltrans4.ltrans.o
                                                  C:\cygwin64\tmp\ccTUqUH8.ltrans2.ltrans.o
                                                  C:\cygwin64\tmp\ccTUqUH8.ltrans1.ltrans.o
                                                  C:\cygwin64\tmp\ccTUqUH8.ltrans0.ltrans.o
                                                  obj/main/BETAFLIGHTF3/drivers/serial_escserial.o (symbol from plugin)
                                                  obj/main/BETAFLIGHTF3/rx/spektrum.o (symbol from plugin)
                                                  obj/main/BETAFLIGHTF3/io/serial_4way.o (symbol from plugin)
                                                  obj/main/BETAFLIGHTF3/fc/fc_core.o (symbol from plugin)
                                                  obj/main/BETAFLIGHTF3/fc/fc_init.o (symbol from plugin)
                                                  obj/main/BETAFLIGHTF3/io/statusindicator.o (symbol from plugin)
                                                  obj/main/BETAFLIGHTF3/io/serial.o (symbol from plugin)
                                                  obj/main/BETAFLIGHTF3/fc/fc_hardfaults.o (symbol from plugin)
                                                  obj/main/BETAFLIGHTF3/drivers/system.o (symbol from plugin)
ledStripConfig_Copy                               C:\cygwin64\tmp\ccTUqUH8.ltrans2.ltrans.o
                                                  obj/main/BETAFLIGHTF3/io/ledstrip.o (symbol from plugin)
                                                  C:\cygwin64\tmp\ccTUqUH8.ltrans3.ltrans.o
                                                  obj/main/BETAFLIGHTF3/interface/cli.o (symbol from plugin)
ledStripConfig_Registry                           C:\cygwin64\tmp\ccTUqUH8.ltrans2.ltrans.o
                                                  obj/main/BETAFLIGHTF3/io/ledstrip.o (symbol from plugin)
ledStripConfig_System                             C:\cygwin64\tmp\ccTUqUH8.ltrans2.ltrans.o
                                                  obj/main/BETAFLIGHTF3/io/ledstrip.o (symbol from plugin)
                                                  C:\cygwin64\tmp\ccTUqUH8.ltrans4.ltrans.o
                                                  C:\cygwin64\tmp\ccTUqUH8.ltrans3.ltrans.o
                                                  C:\cygwin64\tmp\ccTUqUH8.ltrans0.ltrans.o
                                                  obj/main/BETAFLIGHTF3/interface/cli.o (symbol from plugin)
                                                  obj/main/BETAFLIGHTF3/interface/msp.o (symbol from plugin)
ledStripDMABuffer                                 C:\cygwin64\tmp\ccTUqUH8.ltrans2.ltrans.o
                                                  obj/main/BETAFLIGHTF3/drivers/light_ws2811strip.o (symbol from plugin)
                                                  C:\cygwin64\tmp\ccTUqUH8.ltrans5.ltrans.o
                                                  C:\cygwin64\tmp\ccTUqUH8.ltrans1.ltrans.o
                                                  obj/main/BETAFLIGHTF3/drivers/light_ws2811strip_stdperiph.o (symbol from plugin)
ledStripEnable                                    C:\cygwin64\tmp\ccTUqUH8.ltrans2.ltrans.o
                                                  obj/main/BETAFLIGHTF3/io/ledstrip.o (symbol from plugin)
                                                  C:\cygwin64\tmp\ccTUqUH8.ltrans4.ltrans.o
                                                  obj/main/BETAFLIGHTF3/fc/fc_init.o (symbol from plugin)
ledStripInit                                      obj/main/BETAFLIGHTF3/io/ledstrip.o (symbol from plugin)
                                                  obj/main/BETAFLIGHTF3/fc/fc_init.o (symbol from plugin)
ledStripInitialised.lto_priv.476                  C:\cygwin64\tmp\ccTUqUH8.ltrans2.ltrans.o
                                                  C:\cygwin64\tmp\ccTUqUH8.ltrans4.ltrans.o
ledStripUpdate                                    C:\cygwin64\tmp\ccTUqUH8.ltrans2.ltrans.o
                                                  obj/main/BETAFLIGHTF3/io/ledstrip.o (symbol from plugin)
                                                  C:\cygwin64\tmp\ccTUqUH8.ltrans3.ltrans.o
                                                  obj/main/BETAFLIGHTF3/fc/fc_tasks.o (symbol from plugin)
ledToggle                                         C:\cygwin64\tmp\ccTUqUH8.ltrans5.ltrans.o
                                                  obj/main/BETAFLIGHTF3/drivers/light_led.o (symbol from plugin)
                                                  C:\cygwin64\tmp\ccTUqUH8.ltrans4.ltrans.o
                                                  obj/main/BETAFLIGHTF3/fc/fc_init.o (symbol from plugin)
                                                  obj/main/BETAFLIGHTF3/io/statusindicator.o (symbol from plugin)
                                                  obj/main/BETAFLIGHTF3/drivers/system.o (symbol from plugin)
                                                  obj/main/BETAFLIGHTF3/drivers/max7456.o (symbol from plugin)
leds.lto_priv.465                                 C:\cygwin64\tmp\ccTUqUH8.ltrans6.ltrans.o
                                                  C:\cygwin64\tmp\ccTUqUH8.ltrans5.ltrans.o
                                                  C:\cygwin64\tmp\ccTUqUH8.ltrans4.ltrans.o
                                                  C:\cygwin64\tmp\ccTUqUH8.ltrans0.ltrans.o
li2a                                              obj/main/BETAFLIGHTF3/common/typeconversion.o (symbol from plugin)
                                                  obj/main/BETAFLIGHTF3/common/printf.o (symbol from plugin)
linecoding                                        obj/main/BETAFLIGHTF3/vcp/usb_prop.o (symbol from plugin)
loadCustomServoMixer                              C:\cygwin64\tmp\ccTUqUH8.ltrans3.ltrans.o
                                                  obj/main/BETAFLIGHTF3/flight/servos.o (symbol from plugin)
                                                  C:\cygwin64\tmp\ccTUqUH8.ltrans4.ltrans.o
                                                  obj/main/BETAFLIGHTF3/interface/msp.o (symbol from plugin)
loadDmaBuffer                                     C:\cygwin64\tmp\ccTUqUH8.ltrans6.ltrans.o
                                                  obj/main/BETAFLIGHTF3/drivers/pwm_output.o (symbol from plugin)
                                                  C:\cygwin64\tmp\ccTUqUH8.ltrans4.ltrans.o
                                                  obj/main/BETAFLIGHTF3/drivers/pwm_output_dshot.o (symbol from plugin)
loadDmaBufferDshot.lto_priv.268                   C:\cygwin64\tmp\ccTUqUH8.ltrans4.ltrans.o
                                                  C:\cygwin64\tmp\ccTUqUH8.ltrans6.ltrans.o
loadDmaBufferProshot.lto_priv.267                 C:\cygwin64\tmp\ccTUqUH8.ltrans4.ltrans.o
                                                  C:\cygwin64\tmp\ccTUqUH8.ltrans6.ltrans.o
loadEEPROM                                        obj/main/BETAFLIGHTF3/config/config_eeprom.o (symbol from plugin)
                                                  obj/main/BETAFLIGHTF3/fc/config.o (symbol from plugin)
locked.lto_priv.602                               C:\cygwin64\tmp\ccTUqUH8.ltrans2.ltrans.o
                                                  C:\cygwin64\tmp\ccTUqUH8.ltrans0.ltrans.o
log2f                                             d:/gcc-arm-none-eabi-7-2017-q4-major-win32/bin/../lib/gcc/arm-none-eabi/7.2.1/../../../../arm-none-eabi/lib/thumb/v7e-m/fpv4-sp/hard\libm.a(lib_a-sf_log2.o)
                                                  C:\cygwin64\tmp\ccTUqUH8.ltrans6.ltrans.o
                                                  C:\cygwin64\tmp\ccTUqUH8.ltrans3.ltrans.o
lookupBaudRateIndex                               C:\cygwin64\tmp\ccTUqUH8.ltrans4.ltrans.o
                                                  obj/main/BETAFLIGHTF3/io/serial.o (symbol from plugin)
                                                  C:\cygwin64\tmp\ccTUqUH8.ltrans3.ltrans.o
                                                  obj/main/BETAFLIGHTF3/interface/cli.o (symbol from plugin)
lookupTableAccHardware                            obj/main/BETAFLIGHTF3/interface/settings.o (symbol from plugin)
lookupTableGyroHardware                           obj/main/BETAFLIGHTF3/interface/settings.o (symbol from plugin)
lookupTables                                      obj/main/BETAFLIGHTF3/interface/settings.o (symbol from plugin)
                                                  obj/main/BETAFLIGHTF3/interface/cli.o (symbol from plugin)
lookupThrottleRC.lto_priv.585                     C:\cygwin64\tmp\ccTUqUH8.ltrans3.ltrans.o
                                                  C:\cygwin64\tmp\ccTUqUH8.ltrans0.ltrans.o
lowVoltageCutoff.lto_priv.588                     C:\cygwin64\tmp\ccTUqUH8.ltrans4.ltrans.o
                                                  C:\cygwin64\tmp\ccTUqUH8.ltrans0.ltrans.o
lrintf                                            d:/gcc-arm-none-eabi-7-2017-q4-major-win32/bin/../lib/gcc/arm-none-eabi/7.2.1/../../../../arm-none-eabi/lib/thumb/v7e-m/fpv4-sp/hard\libm.a(lib_a-sf_lrint.o)
                                                  C:\cygwin64\tmp\ccTUqUH8.ltrans6.ltrans.o
                                                  C:\cygwin64\tmp\ccTUqUH8.ltrans4.ltrans.o
                                                  C:\cygwin64\tmp\ccTUqUH8.ltrans3.ltrans.o
                                                  C:\cygwin64\tmp\ccTUqUH8.ltrans1.ltrans.o
                                                  C:\cygwin64\tmp\ccTUqUH8.ltrans0.ltrans.o
mag                                               C:\cygwin64\tmp\ccTUqUH8.ltrans3.ltrans.o
                                                  obj/main/BETAFLIGHTF3/sensors/compass.o (symbol from plugin)
                                                  C:\cygwin64\tmp\ccTUqUH8.ltrans0.ltrans.o
                                                  obj/main/BETAFLIGHTF3/flight/imu.o (symbol from plugin)
                                                  obj/main/BETAFLIGHTF3/interface/msp.o (symbol from plugin)
magDev                                            obj/main/BETAFLIGHTF3/sensors/compass.o (symbol from plugin)
main                                              C:\cygwin64\tmp\ccTUqUH8.ltrans5.ltrans.o
                                                  obj/main/BETAFLIGHTF3/main.o (symbol from plugin)
                                                  obj/main/BETAFLIGHTF3/startup_stm32f30x_md_gcc.o
malloc                                            d:/gcc-arm-none-eabi-7-2017-q4-major-win32/bin/../lib/gcc/arm-none-eabi/7.2.1/../../../../arm-none-eabi/lib/thumb/v7e-m/fpv4-sp/hard\libc_nano.a(lib_a-malloc.o)
                                                  d:/gcc-arm-none-eabi-7-2017-q4-major-win32/bin/../lib/gcc/arm-none-eabi/7.2.1/../../../../arm-none-eabi/lib/thumb/v7e-m/fpv4-sp/hard\libc_nano.a(lib_a-strtok.o)
map                                               obj/main/BETAFLIGHTF3/io/spektrum_rssi.o (symbol from plugin)
max7456Brightness                                 C:\cygwin64\tmp\ccTUqUH8.ltrans5.ltrans.o
                                                  obj/main/BETAFLIGHTF3/drivers/max7456.o (symbol from plugin)
                                                  C:\cygwin64\tmp\ccTUqUH8.ltrans2.ltrans.o
                                                  obj/main/BETAFLIGHTF3/io/displayport_max7456.o (symbol from plugin)
max7456ClearScreen                                obj/main/BETAFLIGHTF3/drivers/max7456.o (symbol from plugin)
                                                  obj/main/BETAFLIGHTF3/io/displayport_max7456.o (symbol from plugin)
max7456Config_Copy                                obj/main/BETAFLIGHTF3/pg/max7456.o (symbol from plugin)
max7456Config_Registry                            C:\cygwin64\tmp\ccTUqUH8.ltrans6.ltrans.o
                                                  obj/main/BETAFLIGHTF3/pg/max7456.o (symbol from plugin)
max7456Config_System                              obj/main/BETAFLIGHTF3/pg/max7456.o (symbol from plugin)
                                                  obj/main/BETAFLIGHTF3/io/displayport_max7456.o (symbol from plugin)
max7456CsPin.lto_priv.322                         C:\cygwin64\tmp\ccTUqUH8.ltrans6.ltrans.o
                                                  C:\cygwin64\tmp\ccTUqUH8.ltrans5.ltrans.o
                                                  C:\cygwin64\tmp\ccTUqUH8.ltrans4.ltrans.o
                                                  C:\cygwin64\tmp\ccTUqUH8.ltrans2.ltrans.o
max7456DisplayPort                                obj/main/BETAFLIGHTF3/io/displayport_max7456.o (symbol from plugin)
max7456DisplayPortInit                            obj/main/BETAFLIGHTF3/io/displayport_max7456.o (symbol from plugin)
                                                  obj/main/BETAFLIGHTF3/fc/fc_init.o (symbol from plugin)
max7456DisplayPortInit.constprop.161              C:\cygwin64\tmp\ccTUqUH8.ltrans6.ltrans.o
                                                  C:\cygwin64\tmp\ccTUqUH8.ltrans4.ltrans.o
max7456DmaInProgress                              obj/main/BETAFLIGHTF3/drivers/max7456.o (symbol from plugin)
                                                  obj/main/BETAFLIGHTF3/io/displayport_max7456.o (symbol from plugin)
max7456DrawScreen                                 obj/main/BETAFLIGHTF3/drivers/max7456.o (symbol from plugin)
                                                  obj/main/BETAFLIGHTF3/io/displayport_max7456.o (symbol from plugin)
max7456GetRowsCount                               obj/main/BETAFLIGHTF3/drivers/max7456.o (symbol from plugin)
                                                  obj/main/BETAFLIGHTF3/io/displayport_max7456.o (symbol from plugin)
max7456GetScreenBuffer                            obj/main/BETAFLIGHTF3/drivers/max7456.o (symbol from plugin)
max7456HardwareReset                              obj/main/BETAFLIGHTF3/drivers/max7456.o (symbol from plugin)
max7456Init                                       obj/main/BETAFLIGHTF3/drivers/max7456.o (symbol from plugin)
                                                  obj/main/BETAFLIGHTF3/io/displayport_max7456.o (symbol from plugin)
max7456Invert                                     obj/main/BETAFLIGHTF3/drivers/max7456.o (symbol from plugin)
                                                  obj/main/BETAFLIGHTF3/io/displayport_max7456.o (symbol from plugin)
max7456Lock.lto_priv.498                          C:\cygwin64\tmp\ccTUqUH8.ltrans2.ltrans.o
                                                  C:\cygwin64\tmp\ccTUqUH8.ltrans5.ltrans.o
                                                  C:\cygwin64\tmp\ccTUqUH8.ltrans4.ltrans.o
max7456ReInit                                     C:\cygwin64\tmp\ccTUqUH8.ltrans5.ltrans.o
                                                  obj/main/BETAFLIGHTF3/drivers/max7456.o (symbol from plugin)
                                                  C:\cygwin64\tmp\ccTUqUH8.ltrans2.ltrans.o
max7456RefreshAll                                 obj/main/BETAFLIGHTF3/drivers/max7456.o (symbol from plugin)
                                                  obj/main/BETAFLIGHTF3/io/displayport_max7456.o (symbol from plugin)
max7456RefreshAll.part.0                          C:\cygwin64\tmp\ccTUqUH8.ltrans5.ltrans.o
                                                  C:\cygwin64\tmp\ccTUqUH8.ltrans2.ltrans.o
max7456SpiClock.lto_priv.321                      C:\cygwin64\tmp\ccTUqUH8.ltrans6.ltrans.o
max7456Write                                      obj/main/BETAFLIGHTF3/drivers/max7456.o (symbol from plugin)
                                                  obj/main/BETAFLIGHTF3/io/displayport_max7456.o (symbol from plugin)
max7456WriteChar                                  obj/main/BETAFLIGHTF3/drivers/max7456.o (symbol from plugin)
                                                  obj/main/BETAFLIGHTF3/io/displayport_max7456.o (symbol from plugin)
max7456WriteNvm                                   obj/main/BETAFLIGHTF3/drivers/max7456.o (symbol from plugin)
                                                  obj/main/BETAFLIGHTF3/interface/msp.o (symbol from plugin)
maxScreenSize                                     C:\cygwin64\tmp\ccTUqUH8.ltrans2.ltrans.o
                                                  obj/main/BETAFLIGHTF3/drivers/max7456.o (symbol from plugin)
                                                  C:\cygwin64\tmp\ccTUqUH8.ltrans5.ltrans.o
                                                  obj/main/BETAFLIGHTF3/io/displayport_max7456.o (symbol from plugin)
memcmp                                            d:/gcc-arm-none-eabi-7-2017-q4-major-win32/bin/../lib/gcc/arm-none-eabi/7.2.1/../../../../arm-none-eabi/lib/thumb/v7e-m/fpv4-sp/hard\libc_nano.a(lib_a-memcmp.o)
                                                  C:\cygwin64\tmp\ccTUqUH8.ltrans2.ltrans.o
                                                  C:\cygwin64\tmp\ccTUqUH8.ltrans1.ltrans.o
memcpy                                            d:/gcc-arm-none-eabi-7-2017-q4-major-win32/bin/../lib/gcc/arm-none-eabi/7.2.1/../../../../arm-none-eabi/lib/thumb/v7e-m/fpv4-sp/hard\libc_nano.a(lib_a-memcpy-stub.o)
                                                  C:\cygwin64\tmp\ccTUqUH8.ltrans6.ltrans.o
                                                  C:\cygwin64\tmp\ccTUqUH8.ltrans5.ltrans.o
                                                  C:\cygwin64\tmp\ccTUqUH8.ltrans4.ltrans.o
                                                  C:\cygwin64\tmp\ccTUqUH8.ltrans3.ltrans.o
                                                  C:\cygwin64\tmp\ccTUqUH8.ltrans2.ltrans.o
                                                  C:\cygwin64\tmp\ccTUqUH8.ltrans1.ltrans.o
                                                  C:\cygwin64\tmp\ccTUqUH8.ltrans0.ltrans.o
                                                  obj/main/BETAFLIGHTF3/io/ledstrip.o (symbol from plugin)
memmove                                           d:/gcc-arm-none-eabi-7-2017-q4-major-win32/bin/../lib/gcc/arm-none-eabi/7.2.1/../../../../arm-none-eabi/lib/thumb/v7e-m/fpv4-sp/hard\libc_nano.a(lib_a-memmove.o)
                                                  C:\cygwin64\tmp\ccTUqUH8.ltrans4.ltrans.o
memset                                            d:/gcc-arm-none-eabi-7-2017-q4-major-win32/bin/../lib/gcc/arm-none-eabi/7.2.1/../../../../arm-none-eabi/lib/thumb/v7e-m/fpv4-sp/hard\libc_nano.a(lib_a-memset.o)
                                                  C:\cygwin64\tmp\ccTUqUH8.ltrans6.ltrans.o
                                                  C:\cygwin64\tmp\ccTUqUH8.ltrans5.ltrans.o
                                                  C:\cygwin64\tmp\ccTUqUH8.ltrans4.ltrans.o
                                                  C:\cygwin64\tmp\ccTUqUH8.ltrans3.ltrans.o
                                                  C:\cygwin64\tmp\ccTUqUH8.ltrans2.ltrans.o
                                                  C:\cygwin64\tmp\ccTUqUH8.ltrans1.ltrans.o
                                                  C:\cygwin64\tmp\ccTUqUH8.ltrans0.ltrans.o
menuAlarms                                        obj/main/BETAFLIGHTF3/cms/cms_menu_osd.o (symbol from plugin)
menuAlarmsEntries                                 obj/main/BETAFLIGHTF3/cms/cms_menu_osd.o (symbol from plugin)
menuMain                                          obj/main/BETAFLIGHTF3/cms/cms_menu_builtin.o (symbol from plugin)
                                                  obj/main/BETAFLIGHTF3/cms/cms.o (symbol from plugin)
menuOsdActiveElems                                obj/main/BETAFLIGHTF3/cms/cms_menu_osd.o (symbol from plugin)
menuOsdActiveElemsEntries                         obj/main/BETAFLIGHTF3/cms/cms_menu_osd.o (symbol from plugin)
menuTimers                                        obj/main/BETAFLIGHTF3/cms/cms_menu_osd.o (symbol from plugin)
menuTimersEntries                                 obj/main/BETAFLIGHTF3/cms/cms_menu_osd.o (symbol from plugin)
merge_rfft_f32                                    obj/main/BETAFLIGHTF3/./lib/main/DSP_Lib/Source/TransformFunctions/arm_rfft_fast_f32.o (symbol from plugin)
micros                                            C:\cygwin64\tmp\ccTUqUH8.ltrans0.ltrans.o
                                                  obj/main/BETAFLIGHTF3/drivers/system.o (symbol from plugin)
                                                  C:\cygwin64\tmp\ccTUqUH8.ltrans6.ltrans.o
                                                  C:\cygwin64\tmp\ccTUqUH8.ltrans5.ltrans.o
                                                  C:\cygwin64\tmp\ccTUqUH8.ltrans4.ltrans.o
                                                  C:\cygwin64\tmp\ccTUqUH8.ltrans3.ltrans.o
                                                  C:\cygwin64\tmp\ccTUqUH8.ltrans1.ltrans.o
                                                  obj/main/BETAFLIGHTF3/telemetry/smartport.o (symbol from plugin)
                                                  obj/main/BETAFLIGHTF3/telemetry/jetiexbus.o (symbol from plugin)
                                                  obj/main/BETAFLIGHTF3/sensors/gyroanalyse.o (symbol from plugin)
                                                  obj/main/BETAFLIGHTF3/rx/fport.o (symbol from plugin)
                                                  obj/main/BETAFLIGHTF3/rx/xbus.o (symbol from plugin)
                                                  obj/main/BETAFLIGHTF3/rx/sumh.o (symbol from plugin)
                                                  obj/main/BETAFLIGHTF3/rx/sumd.o (symbol from plugin)
                                                  obj/main/BETAFLIGHTF3/io/spektrum_rssi.o (symbol from plugin)
                                                  obj/main/BETAFLIGHTF3/rx/spektrum.o (symbol from plugin)
                                                  obj/main/BETAFLIGHTF3/rx/sbus.o (symbol from plugin)
                                                  obj/main/BETAFLIGHTF3/rx/crsf.o (symbol from plugin)
                                                  obj/main/BETAFLIGHTF3/rx/rx.o (symbol from plugin)
                                                  obj/main/BETAFLIGHTF3/rx/jetiexbus.o (symbol from plugin)
                                                  obj/main/BETAFLIGHTF3/rx/ibus.o (symbol from plugin)
                                                  obj/main/BETAFLIGHTF3/io/serial_4way_stk500v2.o (symbol from plugin)
                                                  obj/main/BETAFLIGHTF3/io/serial_4way_avrootloader.o (symbol from plugin)
                                                  obj/main/BETAFLIGHTF3/fc/fc_core.o (symbol from plugin)
                                                  obj/main/BETAFLIGHTF3/scheduler/scheduler.o (symbol from plugin)
                                                  obj/main/BETAFLIGHTF3/io/statusindicator.o (symbol from plugin)
                                                  obj/main/BETAFLIGHTF3/io/beeper.o (symbol from plugin)
                                                  obj/main/BETAFLIGHTF3/fc/fc_dispatch.o (symbol from plugin)
                                                  obj/main/BETAFLIGHTF3/io/osd.o (symbol from plugin)
microsISR                                         obj/main/BETAFLIGHTF3/drivers/system.o (symbol from plugin)
millis                                            obj/main/BETAFLIGHTF3/drivers/system.o (symbol from plugin)
                                                  obj/main/BETAFLIGHTF3/drivers/serial_usb_vcp.o (symbol from plugin)
                                                  obj/main/BETAFLIGHTF3/drivers/sdcard.o (symbol from plugin)
                                                  obj/main/BETAFLIGHTF3/io/vtx_smartaudio.o (symbol from plugin)
                                                  obj/main/BETAFLIGHTF3/telemetry/ltm.o (symbol from plugin)
                                                  obj/main/BETAFLIGHTF3/telemetry/smartport.o (symbol from plugin)
                                                  obj/main/BETAFLIGHTF3/telemetry/hott.o (symbol from plugin)
                                                  obj/main/BETAFLIGHTF3/telemetry/frsky_hub.o (symbol from plugin)
                                                  obj/main/BETAFLIGHTF3/io/rcdevice.o (symbol from plugin)
                                                  obj/main/BETAFLIGHTF3/io/rcdevice_cam.o (symbol from plugin)
                                                  obj/main/BETAFLIGHTF3/cms/cms.o (symbol from plugin)
                                                  obj/main/BETAFLIGHTF3/blackbox/blackbox.o (symbol from plugin)
                                                  obj/main/BETAFLIGHTF3/rx/fport.o (symbol from plugin)
                                                  obj/main/BETAFLIGHTF3/rx/rx.o (symbol from plugin)
                                                  obj/main/BETAFLIGHTF3/io/serial_4way_avrootloader.o (symbol from plugin)
                                                  obj/main/BETAFLIGHTF3/interface/cli.o (symbol from plugin)
                                                  obj/main/BETAFLIGHTF3/flight/imu.o (symbol from plugin)
                                                  obj/main/BETAFLIGHTF3/flight/failsafe.o (symbol from plugin)
                                                  obj/main/BETAFLIGHTF3/fc/rc_adjustments.o (symbol from plugin)
                                                  obj/main/BETAFLIGHTF3/fc/fc_core.o (symbol from plugin)
                                                  obj/main/BETAFLIGHTF3/drivers/camera_control.o (symbol from plugin)
                                                  obj/main/BETAFLIGHTF3/msp/msp_serial.o (symbol from plugin)
                                                  obj/main/BETAFLIGHTF3/io/statusindicator.o (symbol from plugin)
                                                  obj/main/BETAFLIGHTF3/common/time.o (symbol from plugin)
                                                  obj/main/BETAFLIGHTF3/drivers/max7456.o (symbol from plugin)
mixTable                                          obj/main/BETAFLIGHTF3/flight/mixer.o (symbol from plugin)
                                                  obj/main/BETAFLIGHTF3/fc/fc_core.o (symbol from plugin)
mixerAtail4.lto_priv.454                          C:\cygwin64\tmp\ccTUqUH8.ltrans6.ltrans.o
mixerConfig_Copy                                  C:\cygwin64\tmp\ccTUqUH8.ltrans1.ltrans.o
                                                  obj/main/BETAFLIGHTF3/flight/mixer.o (symbol from plugin)
                                                  C:\cygwin64\tmp\ccTUqUH8.ltrans3.ltrans.o
                                                  obj/main/BETAFLIGHTF3/interface/cli.o (symbol from plugin)
mixerConfig_Registry                              C:\cygwin64\tmp\ccTUqUH8.ltrans1.ltrans.o
                                                  obj/main/BETAFLIGHTF3/flight/mixer.o (symbol from plugin)
mixerConfig_System                                C:\cygwin64\tmp\ccTUqUH8.ltrans1.ltrans.o
                                                  obj/main/BETAFLIGHTF3/flight/mixer.o (symbol from plugin)
                                                  C:\cygwin64\tmp\ccTUqUH8.ltrans4.ltrans.o
                                                  C:\cygwin64\tmp\ccTUqUH8.ltrans3.ltrans.o
                                                  C:\cygwin64\tmp\ccTUqUH8.ltrans0.ltrans.o
                                                  obj/main/BETAFLIGHTF3/blackbox/blackbox.o (symbol from plugin)
                                                  obj/main/BETAFLIGHTF3/interface/cli.o (symbol from plugin)
                                                  obj/main/BETAFLIGHTF3/fc/fc_core.o (symbol from plugin)
                                                  obj/main/BETAFLIGHTF3/fc/fc_init.o (symbol from plugin)
                                                  obj/main/BETAFLIGHTF3/interface/msp_box.o (symbol from plugin)
                                                  obj/main/BETAFLIGHTF3/interface/msp.o (symbol from plugin)
                                                  obj/main/BETAFLIGHTF3/fc/config.o (symbol from plugin)
mixerConfigureOutput                              C:\cygwin64\tmp\ccTUqUH8.ltrans3.ltrans.o
                                                  obj/main/BETAFLIGHTF3/flight/mixer.o (symbol from plugin)
                                                  C:\cygwin64\tmp\ccTUqUH8.ltrans4.ltrans.o
                                                  obj/main/BETAFLIGHTF3/fc/fc_init.o (symbol from plugin)
mixerHex6X.lto_priv.452                           C:\cygwin64\tmp\ccTUqUH8.ltrans6.ltrans.o
mixerInit                                         obj/main/BETAFLIGHTF3/flight/mixer.o (symbol from plugin)
                                                  obj/main/BETAFLIGHTF3/fc/fc_init.o (symbol from plugin)
mixerIsOutputSaturated                            obj/main/BETAFLIGHTF3/flight/mixer.o (symbol from plugin)
                                                  obj/main/BETAFLIGHTF3/flight/pid.o (symbol from plugin)
mixerIsTricopter                                  obj/main/BETAFLIGHTF3/flight/mixer.o (symbol from plugin)
                                                  obj/main/BETAFLIGHTF3/flight/servos.o (symbol from plugin)
mixerLoadMix                                      obj/main/BETAFLIGHTF3/flight/mixer.o (symbol from plugin)
                                                  obj/main/BETAFLIGHTF3/interface/cli.o (symbol from plugin)
mixerLoadMix.constprop.41                         C:\cygwin64\tmp\ccTUqUH8.ltrans6.ltrans.o
                                                  C:\cygwin64\tmp\ccTUqUH8.ltrans3.ltrans.o
mixerQuadP.lto_priv.448                           C:\cygwin64\tmp\ccTUqUH8.ltrans6.ltrans.o
mixerQuadX.lto_priv.449                           C:\cygwin64\tmp\ccTUqUH8.ltrans6.ltrans.o
mixerQuadX1234.lto_priv.455                       C:\cygwin64\tmp\ccTUqUH8.ltrans6.ltrans.o
mixerResetDisarmedMotors                          obj/main/BETAFLIGHTF3/flight/mixer.o (symbol from plugin)
                                                  obj/main/BETAFLIGHTF3/interface/cli.o (symbol from plugin)
mixerSingleProp.lto_priv.450                      C:\cygwin64\tmp\ccTUqUH8.ltrans6.ltrans.o
mixerTricopter.lto_priv.447                       C:\cygwin64\tmp\ccTUqUH8.ltrans6.ltrans.o
mixerTricopterInit                                C:\cygwin64\tmp\ccTUqUH8.ltrans2.ltrans.o
                                                  obj/main/BETAFLIGHTF3/flight/mixer_tricopter.o (symbol from plugin)
                                                  obj/main/BETAFLIGHTF3/flight/mixer.o (symbol from plugin)
mixerTricopterIsServoSaturated                    obj/main/BETAFLIGHTF3/flight/mixer_tricopter.o (symbol from plugin)
                                                  obj/main/BETAFLIGHTF3/flight/mixer.o (symbol from plugin)
mixerTricopterMotorCorrection                     obj/main/BETAFLIGHTF3/flight/mixer_tricopter.o (symbol from plugin)
                                                  obj/main/BETAFLIGHTF3/flight/mixer.o (symbol from plugin)
mixerVtail4.lto_priv.453                          C:\cygwin64\tmp\ccTUqUH8.ltrans6.ltrans.o
mixerY4.lto_priv.451                              C:\cygwin64\tmp\ccTUqUH8.ltrans6.ltrans.o
mixers                                            C:\cygwin64\tmp\ccTUqUH8.ltrans6.ltrans.o
                                                  obj/main/BETAFLIGHTF3/flight/mixer.o (symbol from plugin)
                                                  C:\cygwin64\tmp\ccTUqUH8.ltrans3.ltrans.o
                                                  C:\cygwin64\tmp\ccTUqUH8.ltrans0.ltrans.o
                                                  obj/main/BETAFLIGHTF3/flight/servos.o (symbol from plugin)
                                                  obj/main/BETAFLIGHTF3/fc/config.o (symbol from plugin)
modeActivationConditions_CopyArray                C:\cygwin64\tmp\ccTUqUH8.ltrans1.ltrans.o
                                                  obj/main/BETAFLIGHTF3/fc/rc_modes.o (symbol from plugin)
                                                  C:\cygwin64\tmp\ccTUqUH8.ltrans3.ltrans.o
                                                  obj/main/BETAFLIGHTF3/interface/cli.o (symbol from plugin)
modeActivationConditions_Registry                 C:\cygwin64\tmp\ccTUqUH8.ltrans1.ltrans.o
                                                  obj/main/BETAFLIGHTF3/fc/rc_modes.o (symbol from plugin)
modeActivationConditions_SystemArray              C:\cygwin64\tmp\ccTUqUH8.ltrans1.ltrans.o
                                                  obj/main/BETAFLIGHTF3/fc/rc_modes.o (symbol from plugin)
                                                  C:\cygwin64\tmp\ccTUqUH8.ltrans4.ltrans.o
                                                  C:\cygwin64\tmp\ccTUqUH8.ltrans3.ltrans.o
                                                  C:\cygwin64\tmp\ccTUqUH8.ltrans0.ltrans.o
                                                  obj/main/BETAFLIGHTF3/rx/rx.o (symbol from plugin)
                                                  obj/main/BETAFLIGHTF3/interface/cli.o (symbol from plugin)
                                                  obj/main/BETAFLIGHTF3/interface/msp.o (symbol from plugin)
modeColors                                        obj/main/BETAFLIGHTF3/telemetry/ltm.o (symbol from plugin)
                                                  obj/main/BETAFLIGHTF3/io/ledstrip.o (symbol from plugin)
                                                  obj/main/BETAFLIGHTF3/interface/settings.o (symbol from plugin)
                                                  obj/main/BETAFLIGHTF3/interface/cli.o (symbol from plugin)
                                                  obj/main/BETAFLIGHTF3/fc/fc_init.o (symbol from plugin)
                                                  obj/main/BETAFLIGHTF3/interface/msp.o (symbol from plugin)
                                                  obj/main/BETAFLIGHTF3/fc/fc_tasks.o (symbol from plugin)
                                                  obj/main/BETAFLIGHTF3/fc/config.o (symbol from plugin)
motor                                             C:\cygwin64\tmp\ccTUqUH8.ltrans1.ltrans.o
                                                  obj/main/BETAFLIGHTF3/flight/mixer.o (symbol from plugin)
                                                  C:\cygwin64\tmp\ccTUqUH8.ltrans3.ltrans.o
                                                  C:\cygwin64\tmp\ccTUqUH8.ltrans0.ltrans.o
                                                  obj/main/BETAFLIGHTF3/blackbox/blackbox.o (symbol from plugin)
                                                  obj/main/BETAFLIGHTF3/flight/servos.o (symbol from plugin)
                                                  obj/main/BETAFLIGHTF3/interface/msp.o (symbol from plugin)
motorConfig_Copy                                  obj/main/BETAFLIGHTF3/flight/mixer.o (symbol from plugin)
motorConfig_Registry                              C:\cygwin64\tmp\ccTUqUH8.ltrans6.ltrans.o
                                                  obj/main/BETAFLIGHTF3/flight/mixer.o (symbol from plugin)
motorConfig_System                                C:\cygwin64\tmp\ccTUqUH8.ltrans6.ltrans.o
                                                  obj/main/BETAFLIGHTF3/flight/mixer.o (symbol from plugin)
                                                  C:\cygwin64\tmp\ccTUqUH8.ltrans4.ltrans.o
                                                  C:\cygwin64\tmp\ccTUqUH8.ltrans3.ltrans.o
                                                  C:\cygwin64\tmp\ccTUqUH8.ltrans1.ltrans.o
                                                  C:\cygwin64\tmp\ccTUqUH8.ltrans0.ltrans.o
                                                  obj/main/BETAFLIGHTF3/cms/cms_menu_misc.o (symbol from plugin)
                                                  obj/main/BETAFLIGHTF3/blackbox/blackbox.o (symbol from plugin)
                                                  obj/main/BETAFLIGHTF3/interface/cli.o (symbol from plugin)
                                                  obj/main/BETAFLIGHTF3/fc/fc_init.o (symbol from plugin)
                                                  obj/main/BETAFLIGHTF3/interface/msp.o (symbol from plugin)
                                                  obj/main/BETAFLIGHTF3/fc/config.o (symbol from plugin)
motorCount.lto_priv.334                           C:\cygwin64\tmp\ccTUqUH8.ltrans2.ltrans.o
                                                  C:\cygwin64\tmp\ccTUqUH8.ltrans4.ltrans.o
                                                  C:\cygwin64\tmp\ccTUqUH8.ltrans3.ltrans.o
                                                  C:\cygwin64\tmp\ccTUqUH8.ltrans1.ltrans.o
                                                  C:\cygwin64\tmp\ccTUqUH8.ltrans0.ltrans.o
motorDevInit                                      obj/main/BETAFLIGHTF3/drivers/pwm_output.o (symbol from plugin)
                                                  obj/main/BETAFLIGHTF3/fc/fc_init.o (symbol from plugin)
motorDevInit.constprop.125                        C:\cygwin64\tmp\ccTUqUH8.ltrans6.ltrans.o
                                                  C:\cygwin64\tmp\ccTUqUH8.ltrans4.ltrans.o
motorOutputHigh                                   C:\cygwin64\tmp\ccTUqUH8.ltrans1.ltrans.o
                                                  obj/main/BETAFLIGHTF3/flight/mixer.o (symbol from plugin)
                                                  C:\cygwin64\tmp\ccTUqUH8.ltrans3.ltrans.o
                                                  obj/main/BETAFLIGHTF3/blackbox/blackbox.o (symbol from plugin)
motorOutputLow                                    C:\cygwin64\tmp\ccTUqUH8.ltrans1.ltrans.o
                                                  obj/main/BETAFLIGHTF3/flight/mixer.o (symbol from plugin)
                                                  C:\cygwin64\tmp\ccTUqUH8.ltrans3.ltrans.o
                                                  obj/main/BETAFLIGHTF3/blackbox/blackbox.o (symbol from plugin)
motor_DMA_IRQHandler.lto_priv.273                 C:\cygwin64\tmp\ccTUqUH8.ltrans5.ltrans.o
                                                  C:\cygwin64\tmp\ccTUqUH8.ltrans6.ltrans.o
motor_disarmed                                    C:\cygwin64\tmp\ccTUqUH8.ltrans3.ltrans.o
                                                  obj/main/BETAFLIGHTF3/flight/mixer.o (symbol from plugin)
                                                  C:\cygwin64\tmp\ccTUqUH8.ltrans4.ltrans.o
                                                  obj/main/BETAFLIGHTF3/interface/cli.o (symbol from plugin)
                                                  obj/main/BETAFLIGHTF3/interface/msp.o (symbol from plugin)
motors.lto_priv.326                               C:\cygwin64\tmp\ccTUqUH8.ltrans6.ltrans.o
                                                  C:\cygwin64\tmp\ccTUqUH8.ltrans4.ltrans.o
                                                  C:\cygwin64\tmp\ccTUqUH8.ltrans3.ltrans.o
                                                  C:\cygwin64\tmp\ccTUqUH8.ltrans2.ltrans.o
                                                  C:\cygwin64\tmp\ccTUqUH8.ltrans0.ltrans.o
mpu6000SpiAccDetect                               obj/main/BETAFLIGHTF3/drivers/accgyro/accgyro_spi_mpu6000.o (symbol from plugin)
                                                  obj/main/BETAFLIGHTF3/sensors/acceleration.o (symbol from plugin)
mpu6000SpiAccInit                                 C:\cygwin64\tmp\ccTUqUH8.ltrans5.ltrans.o
                                                  obj/main/BETAFLIGHTF3/drivers/accgyro/accgyro_spi_mpu6000.o (symbol from plugin)
                                                  C:\cygwin64\tmp\ccTUqUH8.ltrans1.ltrans.o
mpu6000SpiDetect                                  obj/main/BETAFLIGHTF3/drivers/accgyro/accgyro_spi_mpu6000.o (symbol from plugin)
                                                  obj/main/BETAFLIGHTF3/drivers/accgyro/accgyro_mpu.o (symbol from plugin)
mpu6000SpiGyroDetect                              obj/main/BETAFLIGHTF3/drivers/accgyro/accgyro_spi_mpu6000.o (symbol from plugin)
                                                  obj/main/BETAFLIGHTF3/sensors/gyro.o (symbol from plugin)
mpu6000SpiGyroInit                                C:\cygwin64\tmp\ccTUqUH8.ltrans5.ltrans.o
                                                  obj/main/BETAFLIGHTF3/drivers/accgyro/accgyro_spi_mpu6000.o (symbol from plugin)
                                                  C:\cygwin64\tmp\ccTUqUH8.ltrans1.ltrans.o
mpuAccRead                                        C:\cygwin64\tmp\ccTUqUH8.ltrans5.ltrans.o
                                                  obj/main/BETAFLIGHTF3/drivers/accgyro/accgyro_mpu.o (symbol from plugin)
                                                  C:\cygwin64\tmp\ccTUqUH8.ltrans1.ltrans.o
                                                  obj/main/BETAFLIGHTF3/drivers/accgyro/accgyro_spi_mpu6000.o (symbol from plugin)
mpuDetect                                         obj/main/BETAFLIGHTF3/drivers/accgyro/accgyro_mpu.o (symbol from plugin)
                                                  obj/main/BETAFLIGHTF3/sensors/gyro.o (symbol from plugin)
mpuGyroCheckOverflow                              obj/main/BETAFLIGHTF3/drivers/accgyro/accgyro_mpu.o (symbol from plugin)
                                                  obj/main/BETAFLIGHTF3/sensors/gyro.o (symbol from plugin)
mpuGyroInit                                       obj/main/BETAFLIGHTF3/drivers/accgyro/accgyro_mpu.o (symbol from plugin)
                                                  obj/main/BETAFLIGHTF3/drivers/accgyro/accgyro_spi_mpu6000.o (symbol from plugin)
mpuGyroRead                                       obj/main/BETAFLIGHTF3/drivers/accgyro/accgyro_mpu.o (symbol from plugin)
                                                  obj/main/BETAFLIGHTF3/drivers/accgyro/accgyro_spi_mpu6000.o (symbol from plugin)
mpuGyroReadSPI                                    C:\cygwin64\tmp\ccTUqUH8.ltrans5.ltrans.o
                                                  obj/main/BETAFLIGHTF3/drivers/accgyro/accgyro_mpu.o (symbol from plugin)
                                                  C:\cygwin64\tmp\ccTUqUH8.ltrans1.ltrans.o
                                                  obj/main/BETAFLIGHTF3/drivers/accgyro/accgyro_spi_mpu6000.o (symbol from plugin)
mpuResetFn                                        obj/main/BETAFLIGHTF3/drivers/accgyro/accgyro_mpu.o (symbol from plugin)
                                                  obj/main/BETAFLIGHTF3/sensors/gyro.o (symbol from plugin)
mspEscPassthroughFn.lto_priv.500                  C:\cygwin64\tmp\ccTUqUH8.ltrans0.ltrans.o
                                                  C:\cygwin64\tmp\ccTUqUH8.ltrans4.ltrans.o
mspFcProcessCommand                               C:\cygwin64\tmp\ccTUqUH8.ltrans4.ltrans.o
                                                  obj/main/BETAFLIGHTF3/interface/msp.o (symbol from plugin)
                                                  C:\cygwin64\tmp\ccTUqUH8.ltrans2.ltrans.o
                                                  C:\cygwin64\tmp\ccTUqUH8.ltrans0.ltrans.o
                                                  obj/main/BETAFLIGHTF3/telemetry/msp_shared.o (symbol from plugin)
                                                  obj/main/BETAFLIGHTF3/fc/fc_tasks.o (symbol from plugin)
mspFcProcessReply                                 obj/main/BETAFLIGHTF3/interface/msp.o (symbol from plugin)
                                                  obj/main/BETAFLIGHTF3/fc/fc_tasks.o (symbol from plugin)
mspFrame.lto_priv.496                             C:\cygwin64\tmp\ccTUqUH8.ltrans1.ltrans.o
                                                  C:\cygwin64\tmp\ccTUqUH8.ltrans4.ltrans.o
mspInit                                           obj/main/BETAFLIGHTF3/interface/msp.o (symbol from plugin)
                                                  obj/main/BETAFLIGHTF3/fc/fc_init.o (symbol from plugin)
mspPorts.lto_priv.320                             C:\cygwin64\tmp\ccTUqUH8.ltrans6.ltrans.o
                                                  C:\cygwin64\tmp\ccTUqUH8.ltrans4.ltrans.o
                                                  C:\cygwin64\tmp\ccTUqUH8.ltrans2.ltrans.o
                                                  C:\cygwin64\tmp\ccTUqUH8.ltrans0.ltrans.o
mspProcessOutCommand.lto_priv.552                 C:\cygwin64\tmp\ccTUqUH8.ltrans0.ltrans.o
                                                  C:\cygwin64\tmp\ccTUqUH8.ltrans4.ltrans.o
mspRebootFn.lto_priv.502                          C:\cygwin64\tmp\ccTUqUH8.ltrans0.ltrans.o
                                                  C:\cygwin64\tmp\ccTUqUH8.ltrans4.ltrans.o
mspReplyPending.lto_priv.345                      C:\cygwin64\tmp\ccTUqUH8.ltrans2.ltrans.o
                                                  C:\cygwin64\tmp\ccTUqUH8.ltrans1.ltrans.o
                                                  C:\cygwin64\tmp\ccTUqUH8.ltrans0.ltrans.o
mspRxBuffer.lto_priv.307                          C:\cygwin64\tmp\ccTUqUH8.ltrans2.ltrans.o
                                                  C:\cygwin64\tmp\ccTUqUH8.ltrans1.ltrans.o
                                                  C:\cygwin64\tmp\ccTUqUH8.ltrans0.ltrans.o
mspSerialAllocatePorts                            C:\cygwin64\tmp\ccTUqUH8.ltrans4.ltrans.o
                                                  obj/main/BETAFLIGHTF3/msp/msp_serial.o (symbol from plugin)
                                                  C:\cygwin64\tmp\ccTUqUH8.ltrans1.ltrans.o
                                                  obj/main/BETAFLIGHTF3/blackbox/blackbox_io.o (symbol from plugin)
                                                  obj/main/BETAFLIGHTF3/fc/fc_core.o (symbol from plugin)
mspSerialEncode.isra.1.lto_priv.290               C:\cygwin64\tmp\ccTUqUH8.ltrans4.ltrans.o
                                                  C:\cygwin64\tmp\ccTUqUH8.ltrans6.ltrans.o
                                                  C:\cygwin64\tmp\ccTUqUH8.ltrans0.ltrans.o
mspSerialInit                                     obj/main/BETAFLIGHTF3/msp/msp_serial.o (symbol from plugin)
                                                  obj/main/BETAFLIGHTF3/fc/fc_init.o (symbol from plugin)
mspSerialProcess                                  obj/main/BETAFLIGHTF3/msp/msp_serial.o (symbol from plugin)
                                                  obj/main/BETAFLIGHTF3/fc/fc_tasks.o (symbol from plugin)
mspSerialPush                                     obj/main/BETAFLIGHTF3/msp/msp_serial.o (symbol from plugin)
                                                  obj/main/BETAFLIGHTF3/io/displayport_msp.o (symbol from plugin)
mspSerialPush.constprop.76                        C:\cygwin64\tmp\ccTUqUH8.ltrans6.ltrans.o
                                                  C:\cygwin64\tmp\ccTUqUH8.ltrans2.ltrans.o
mspSerialReleasePortIfAllocated                   C:\cygwin64\tmp\ccTUqUH8.ltrans4.ltrans.o
                                                  obj/main/BETAFLIGHTF3/msp/msp_serial.o (symbol from plugin)
                                                  C:\cygwin64\tmp\ccTUqUH8.ltrans1.ltrans.o
                                                  C:\cygwin64\tmp\ccTUqUH8.ltrans0.ltrans.o
                                                  obj/main/BETAFLIGHTF3/telemetry/telemetry.o (symbol from plugin)
                                                  obj/main/BETAFLIGHTF3/blackbox/blackbox_io.o (symbol from plugin)
mspSerialTxBytesFree                              obj/main/BETAFLIGHTF3/msp/msp_serial.o (symbol from plugin)
                                                  obj/main/BETAFLIGHTF3/io/displayport_msp.o (symbol from plugin)
mspSerialWaiting                                  obj/main/BETAFLIGHTF3/msp/msp_serial.o (symbol from plugin)
                                                  obj/main/BETAFLIGHTF3/fc/fc_tasks.o (symbol from plugin)
needRelease                                       obj/main/BETAFLIGHTF3/io/rcdevice_cam.o (symbol from plugin)
nopConsumer.lto_priv.276                          C:\cygwin64\tmp\ccTUqUH8.ltrans4.ltrans.o
normalizeV                                        obj/main/BETAFLIGHTF3/common/maths.o (symbol from plugin)
nullFilterApply                                   C:\cygwin64\tmp\ccTUqUH8.ltrans5.ltrans.o
                                                  obj/main/BETAFLIGHTF3/common/filter.o (symbol from plugin)
                                                  C:\cygwin64\tmp\ccTUqUH8.ltrans6.ltrans.o
                                                  C:\cygwin64\tmp\ccTUqUH8.ltrans4.ltrans.o
                                                  C:\cygwin64\tmp\ccTUqUH8.ltrans3.ltrans.o
                                                  obj/main/BETAFLIGHTF3/sensors/gyro.o (symbol from plugin)
                                                  obj/main/BETAFLIGHTF3/flight/pid.o (symbol from plugin)
offset                                            C:\cygwin64\tmp\ccTUqUH8.ltrans4.ltrans.o
                                                  obj/main/BETAFLIGHTF3/flight/imu.o (symbol from plugin)
                                                  C:\cygwin64\tmp\ccTUqUH8.ltrans0.ltrans.o
onSerialRxPinChange                               obj/main/BETAFLIGHTF3/drivers/serial_softserial.o (symbol from plugin)
onSerialRxPinChangeBL.lto_priv.274                C:\cygwin64\tmp\ccTUqUH8.ltrans1.ltrans.o
                                                  C:\cygwin64\tmp\ccTUqUH8.ltrans6.ltrans.o
onSerialRxPinChangeEsc.lto_priv.325               C:\cygwin64\tmp\ccTUqUH8.ltrans1.ltrans.o
                                                  C:\cygwin64\tmp\ccTUqUH8.ltrans2.ltrans.o
onSerialTimerBL.lto_priv.275                      C:\cygwin64\tmp\ccTUqUH8.ltrans1.ltrans.o
                                                  C:\cygwin64\tmp\ccTUqUH8.ltrans6.ltrans.o
onSerialTimerEsc.lto_priv.324                     C:\cygwin64\tmp\ccTUqUH8.ltrans1.ltrans.o
                                                  C:\cygwin64\tmp\ccTUqUH8.ltrans2.ltrans.o
onSerialTimerOverflow                             obj/main/BETAFLIGHTF3/drivers/serial_softserial.o (symbol from plugin)
openSerialPort                                    C:\cygwin64\tmp\ccTUqUH8.ltrans4.ltrans.o
                                                  obj/main/BETAFLIGHTF3/io/serial.o (symbol from plugin)
                                                  C:\cygwin64\tmp\ccTUqUH8.ltrans3.ltrans.o
                                                  C:\cygwin64\tmp\ccTUqUH8.ltrans2.ltrans.o
                                                  C:\cygwin64\tmp\ccTUqUH8.ltrans1.ltrans.o
                                                  C:\cygwin64\tmp\ccTUqUH8.ltrans0.ltrans.o
                                                  obj/main/BETAFLIGHTF3/io/vtx_tramp.o (symbol from plugin)
                                                  obj/main/BETAFLIGHTF3/io/vtx_smartaudio.o (symbol from plugin)
                                                  obj/main/BETAFLIGHTF3/sensors/esc_sensor.o (symbol from plugin)
                                                  obj/main/BETAFLIGHTF3/telemetry/ltm.o (symbol from plugin)
                                                  obj/main/BETAFLIGHTF3/telemetry/smartport.o (symbol from plugin)
                                                  obj/main/BETAFLIGHTF3/telemetry/hott.o (symbol from plugin)
                                                  obj/main/BETAFLIGHTF3/telemetry/frsky_hub.o (symbol from plugin)
                                                  obj/main/BETAFLIGHTF3/io/rcdevice.o (symbol from plugin)
                                                  obj/main/BETAFLIGHTF3/blackbox/blackbox_io.o (symbol from plugin)
                                                  obj/main/BETAFLIGHTF3/rx/fport.o (symbol from plugin)
                                                  obj/main/BETAFLIGHTF3/rx/xbus.o (symbol from plugin)
                                                  obj/main/BETAFLIGHTF3/rx/sumh.o (symbol from plugin)
                                                  obj/main/BETAFLIGHTF3/rx/sumd.o (symbol from plugin)
                                                  obj/main/BETAFLIGHTF3/rx/spektrum.o (symbol from plugin)
                                                  obj/main/BETAFLIGHTF3/rx/sbus.o (symbol from plugin)
                                                  obj/main/BETAFLIGHTF3/rx/crsf.o (symbol from plugin)
                                                  obj/main/BETAFLIGHTF3/rx/jetiexbus.o (symbol from plugin)
                                                  obj/main/BETAFLIGHTF3/rx/ibus.o (symbol from plugin)
                                                  obj/main/BETAFLIGHTF3/interface/cli.o (symbol from plugin)
                                                  obj/main/BETAFLIGHTF3/msp/msp_serial.o (symbol from plugin)
openSoftSerial                                    obj/main/BETAFLIGHTF3/drivers/serial_softserial.o (symbol from plugin)
                                                  obj/main/BETAFLIGHTF3/io/serial.o (symbol from plugin)
osdConfig_Copy                                    obj/main/BETAFLIGHTF3/io/osd.o (symbol from plugin)
osdConfig_Registry                                C:\cygwin64\tmp\ccTUqUH8.ltrans1.ltrans.o
                                                  obj/main/BETAFLIGHTF3/io/osd.o (symbol from plugin)
osdConfig_System                                  C:\cygwin64\tmp\ccTUqUH8.ltrans1.ltrans.o
                                                  obj/main/BETAFLIGHTF3/io/osd.o (symbol from plugin)
                                                  C:\cygwin64\tmp\ccTUqUH8.ltrans5.ltrans.o
                                                  C:\cygwin64\tmp\ccTUqUH8.ltrans4.ltrans.o
                                                  obj/main/BETAFLIGHTF3/cms/cms_menu_osd.o (symbol from plugin)
                                                  obj/main/BETAFLIGHTF3/interface/msp.o (symbol from plugin)
osdDevice                                         obj/main/BETAFLIGHTF3/io/rcdevice_osd.o (symbol from plugin)
osdDisplayPort.lto_priv.686                       C:\cygwin64\tmp\ccTUqUH8.ltrans4.ltrans.o
                                                  C:\cygwin64\tmp\ccTUqUH8.ltrans5.ltrans.o
osdFormatMessage.constprop.188                    C:\cygwin64\tmp\ccTUqUH8.ltrans6.ltrans.o
                                                  C:\cygwin64\tmp\ccTUqUH8.ltrans5.ltrans.o
osdFormatRtcDateTime.lto_priv.551                 C:\cygwin64\tmp\ccTUqUH8.ltrans5.ltrans.o
                                                  C:\cygwin64\tmp\ccTUqUH8.ltrans4.ltrans.o
osdInit                                           obj/main/BETAFLIGHTF3/io/osd.o (symbol from plugin)
                                                  obj/main/BETAFLIGHTF3/fc/fc_init.o (symbol from plugin)
osdResetAlarms                                    obj/main/BETAFLIGHTF3/io/osd.o (symbol from plugin)
                                                  obj/main/BETAFLIGHTF3/io/displayport_max7456.o (symbol from plugin)
osdTimerSourceNames                               C:\cygwin64\tmp\ccTUqUH8.ltrans1.ltrans.o
                                                  obj/main/BETAFLIGHTF3/io/osd.o (symbol from plugin)
                                                  C:\cygwin64\tmp\ccTUqUH8.ltrans5.ltrans.o
                                                  obj/main/BETAFLIGHTF3/cms/cms_menu_osd.o (symbol from plugin)
osdUpdate                                         C:\cygwin64\tmp\ccTUqUH8.ltrans5.ltrans.o
                                                  obj/main/BETAFLIGHTF3/io/osd.o (symbol from plugin)
                                                  C:\cygwin64\tmp\ccTUqUH8.ltrans3.ltrans.o
                                                  obj/main/BETAFLIGHTF3/fc/fc_tasks.o (symbol from plugin)
osdUpdateAlarms                                   obj/main/BETAFLIGHTF3/io/osd.o (symbol from plugin)
overflowAxisMask.lto_priv.442                     C:\cygwin64\tmp\ccTUqUH8.ltrans1.ltrans.o
                                                  C:\cygwin64\tmp\ccTUqUH8.ltrans3.ltrans.o
overlayCodes.lto_priv.319                         C:\cygwin64\tmp\ccTUqUH8.ltrans6.ltrans.o
ownerNames                                        obj/main/BETAFLIGHTF3/drivers/resource.o (symbol from plugin)
                                                  obj/main/BETAFLIGHTF3/interface/cli.o (symbol from plugin)
pEpInt_IN                                         obj/main/BETAFLIGHTF3/vcp/usb_istr.o (symbol from plugin)
                                                  obj/main/BETAFLIGHTF3/usb_int.o (symbol from plugin)
pEpInt_OUT                                        obj/main/BETAFLIGHTF3/vcp/usb_istr.o (symbol from plugin)
                                                  obj/main/BETAFLIGHTF3/usb_int.o (symbol from plugin)
pInformation                                      C:\cygwin64\tmp\ccTUqUH8.ltrans6.ltrans.o
                                                  obj/main/BETAFLIGHTF3/usb_init.o (symbol from plugin)
                                                  C:\cygwin64\tmp\ccTUqUH8.ltrans4.ltrans.o
                                                  C:\cygwin64\tmp\ccTUqUH8.ltrans2.ltrans.o
                                                  obj/main/BETAFLIGHTF3/vcp/usb_prop.o (symbol from plugin)
                                                  obj/main/BETAFLIGHTF3/usb_core.o (symbol from plugin)
pProperty                                         C:\cygwin64\tmp\ccTUqUH8.ltrans6.ltrans.o
                                                  obj/main/BETAFLIGHTF3/usb_init.o (symbol from plugin)
                                                  C:\cygwin64\tmp\ccTUqUH8.ltrans4.ltrans.o
                                                  obj/main/BETAFLIGHTF3/usb_core.o (symbol from plugin)
pUser_Standard_Requests                           C:\cygwin64\tmp\ccTUqUH8.ltrans6.ltrans.o
                                                  obj/main/BETAFLIGHTF3/usb_init.o (symbol from plugin)
                                                  C:\cygwin64\tmp\ccTUqUH8.ltrans4.ltrans.o
                                                  C:\cygwin64\tmp\ccTUqUH8.ltrans2.ltrans.o
                                                  obj/main/BETAFLIGHTF3/usb_core.o (symbol from plugin)
packFlightModeFlags                               obj/main/BETAFLIGHTF3/interface/msp_box.o (symbol from plugin)
                                                  obj/main/BETAFLIGHTF3/interface/msp.o (symbol from plugin)
packetSent                                        obj/main/BETAFLIGHTF3/vcp/hw_config.o (symbol from plugin)
                                                  obj/main/BETAFLIGHTF3/vcp/usb_endp.o (symbol from plugin)
parseColor                                        C:\cygwin64\tmp\ccTUqUH8.ltrans2.ltrans.o
                                                  obj/main/BETAFLIGHTF3/io/ledstrip.o (symbol from plugin)
                                                  C:\cygwin64\tmp\ccTUqUH8.ltrans3.ltrans.o
                                                  obj/main/BETAFLIGHTF3/interface/cli.o (symbol from plugin)
parseLedStripConfig                               obj/main/BETAFLIGHTF3/io/ledstrip.o (symbol from plugin)
                                                  obj/main/BETAFLIGHTF3/interface/cli.o (symbol from plugin)
parseLedStripConfig.part.13                       C:\cygwin64\tmp\ccTUqUH8.ltrans2.ltrans.o
                                                  C:\cygwin64\tmp\ccTUqUH8.ltrans3.ltrans.o
parseRcChannels                                   C:\cygwin64\tmp\ccTUqUH8.ltrans1.ltrans.o
                                                  obj/main/BETAFLIGHTF3/rx/rx.o (symbol from plugin)
                                                  C:\cygwin64\tmp\ccTUqUH8.ltrans3.ltrans.o
                                                  obj/main/BETAFLIGHTF3/interface/cli.o (symbol from plugin)
pgFind                                            C:\cygwin64\tmp\ccTUqUH8.ltrans4.ltrans.o
                                                  obj/main/BETAFLIGHTF3/pg/pg.o (symbol from plugin)
                                                  C:\cygwin64\tmp\ccTUqUH8.ltrans3.ltrans.o
                                                  obj/main/BETAFLIGHTF3/interface/cli.o (symbol from plugin)
pgLoad                                            obj/main/BETAFLIGHTF3/pg/pg.o (symbol from plugin)
                                                  obj/main/BETAFLIGHTF3/config/config_eeprom.o (symbol from plugin)
pgReset                                           obj/main/BETAFLIGHTF3/pg/pg.o (symbol from plugin)
                                                  obj/main/BETAFLIGHTF3/config/config_eeprom.o (symbol from plugin)
pgResetAll                                        obj/main/BETAFLIGHTF3/pg/pg.o (symbol from plugin)
                                                  obj/main/BETAFLIGHTF3/fc/config.o (symbol from plugin)
pgResetCopy                                       obj/main/BETAFLIGHTF3/pg/pg.o (symbol from plugin)
pgResetFn_accelerometerConfig                     obj/main/BETAFLIGHTF3/sensors/acceleration.o (symbol from plugin)
pgResetFn_adcConfig                               C:\cygwin64\tmp\ccTUqUH8.ltrans4.ltrans.o
                                                  obj/main/BETAFLIGHTF3/pg/adc.o (symbol from plugin)
                                                  C:\cygwin64\tmp\ccTUqUH8.ltrans6.ltrans.o
pgResetFn_barometerConfig                         obj/main/BETAFLIGHTF3/sensors/barometer.o (symbol from plugin)
pgResetFn_compassConfig                           obj/main/BETAFLIGHTF3/sensors/compass.o (symbol from plugin)
pgResetFn_controlRateProfiles                     C:\cygwin64\tmp\ccTUqUH8.ltrans4.ltrans.o
                                                  obj/main/BETAFLIGHTF3/fc/controlrate_profile.o (symbol from plugin)
                                                  C:\cygwin64\tmp\ccTUqUH8.ltrans1.ltrans.o
pgResetFn_displayPortProfileMax7456               obj/main/BETAFLIGHTF3/io/displayport_max7456.o (symbol from plugin)
pgResetFn_ledStripConfig                          obj/main/BETAFLIGHTF3/io/ledstrip.o (symbol from plugin)
pgResetFn_motorConfig                             C:\cygwin64\tmp\ccTUqUH8.ltrans3.ltrans.o
                                                  obj/main/BETAFLIGHTF3/flight/mixer.o (symbol from plugin)
                                                  C:\cygwin64\tmp\ccTUqUH8.ltrans6.ltrans.o
pgResetFn_osdConfig                               C:\cygwin64\tmp\ccTUqUH8.ltrans5.ltrans.o
                                                  obj/main/BETAFLIGHTF3/io/osd.o (symbol from plugin)
                                                  C:\cygwin64\tmp\ccTUqUH8.ltrans1.ltrans.o
pgResetFn_pidProfiles                             C:\cygwin64\tmp\ccTUqUH8.ltrans3.ltrans.o
                                                  obj/main/BETAFLIGHTF3/flight/pid.o (symbol from plugin)
                                                  C:\cygwin64\tmp\ccTUqUH8.ltrans1.ltrans.o
pgResetFn_ppmConfig                               C:\cygwin64\tmp\ccTUqUH8.ltrans4.ltrans.o
                                                  obj/main/BETAFLIGHTF3/pg/rx_pwm.o (symbol from plugin)
                                                  C:\cygwin64\tmp\ccTUqUH8.ltrans6.ltrans.o
pgResetFn_pwmConfig                               C:\cygwin64\tmp\ccTUqUH8.ltrans4.ltrans.o
                                                  obj/main/BETAFLIGHTF3/pg/rx_pwm.o (symbol from plugin)
                                                  C:\cygwin64\tmp\ccTUqUH8.ltrans6.ltrans.o
pgResetFn_rxChannelRangeConfigs                   obj/main/BETAFLIGHTF3/rx/rx.o (symbol from plugin)
pgResetFn_rxConfig                                C:\cygwin64\tmp\ccTUqUH8.ltrans1.ltrans.o
                                                  obj/main/BETAFLIGHTF3/rx/rx.o (symbol from plugin)
                                                  C:\cygwin64\tmp\ccTUqUH8.ltrans6.ltrans.o
pgResetFn_rxFailsafeChannelConfigs                obj/main/BETAFLIGHTF3/rx/rx.o (symbol from plugin)
pgResetFn_sdcardConfig                            C:\cygwin64\tmp\ccTUqUH8.ltrans4.ltrans.o
                                                  obj/main/BETAFLIGHTF3/pg/sdcard.o (symbol from plugin)
                                                  C:\cygwin64\tmp\ccTUqUH8.ltrans6.ltrans.o
pgResetFn_serialConfig                            C:\cygwin64\tmp\ccTUqUH8.ltrans4.ltrans.o
                                                  obj/main/BETAFLIGHTF3/io/serial.o (symbol from plugin)
                                                  C:\cygwin64\tmp\ccTUqUH8.ltrans6.ltrans.o
                                                  C:\cygwin64\tmp\ccTUqUH8.ltrans0.ltrans.o
                                                  obj/main/BETAFLIGHTF3/fc/config.o (symbol from plugin)
pgResetFn_serialPinConfig                         C:\cygwin64\tmp\ccTUqUH8.ltrans5.ltrans.o
                                                  obj/main/BETAFLIGHTF3/drivers/serial_pinconfig.o (symbol from plugin)
                                                  C:\cygwin64\tmp\ccTUqUH8.ltrans6.ltrans.o
pgResetFn_servoConfig                             C:\cygwin64\tmp\ccTUqUH8.ltrans3.ltrans.o
                                                  obj/main/BETAFLIGHTF3/flight/servos.o (symbol from plugin)
                                                  C:\cygwin64\tmp\ccTUqUH8.ltrans6.ltrans.o
pgResetFn_servoParams                             obj/main/BETAFLIGHTF3/flight/servos.o (symbol from plugin)
pgResetFn_spiPinConfig                            obj/main/BETAFLIGHTF3/pg/bus_spi.o (symbol from plugin)
pgResetFn_statusLedConfig                         C:\cygwin64\tmp\ccTUqUH8.ltrans5.ltrans.o
                                                  obj/main/BETAFLIGHTF3/drivers/light_led.o (symbol from plugin)
                                                  C:\cygwin64\tmp\ccTUqUH8.ltrans6.ltrans.o
pgResetFn_voltageSensorADCConfig                  C:\cygwin64\tmp\ccTUqUH8.ltrans4.ltrans.o
                                                  obj/main/BETAFLIGHTF3/sensors/voltage.o (symbol from plugin)
                                                  C:\cygwin64\tmp\ccTUqUH8.ltrans1.ltrans.o
pgResetInstance                                   C:\cygwin64\tmp\ccTUqUH8.ltrans4.ltrans.o
                                                  obj/main/BETAFLIGHTF3/pg/pg.o (symbol from plugin)
                                                  C:\cygwin64\tmp\ccTUqUH8.ltrans0.ltrans.o
pgResetTemplate_armingConfig                      C:\cygwin64\tmp\ccTUqUH8.ltrans1.ltrans.o
                                                  obj/main/BETAFLIGHTF3/fc/rc_controls.o (symbol from plugin)
pgResetTemplate_batteryConfig                     C:\cygwin64\tmp\ccTUqUH8.ltrans2.ltrans.o
                                                  obj/main/BETAFLIGHTF3/sensors/battery.o (symbol from plugin)
pgResetTemplate_beeperConfig                      C:\cygwin64\tmp\ccTUqUH8.ltrans3.ltrans.o
                                                  obj/main/BETAFLIGHTF3/pg/beeper.o (symbol from plugin)
pgResetTemplate_beeperDevConfig                   C:\cygwin64\tmp\ccTUqUH8.ltrans4.ltrans.o
                                                  obj/main/BETAFLIGHTF3/pg/beeper_dev.o (symbol from plugin)
pgResetTemplate_blackboxConfig                    C:\cygwin64\tmp\ccTUqUH8.ltrans1.ltrans.o
                                                  obj/main/BETAFLIGHTF3/blackbox/blackbox.o (symbol from plugin)
pgResetTemplate_cameraControlConfig               C:\cygwin64\tmp\ccTUqUH8.ltrans4.ltrans.o
                                                  obj/main/BETAFLIGHTF3/drivers/camera_control.o (symbol from plugin)
pgResetTemplate_currentSensorADCConfig            C:\cygwin64\tmp\ccTUqUH8.ltrans1.ltrans.o
                                                  obj/main/BETAFLIGHTF3/sensors/current.o (symbol from plugin)
pgResetTemplate_escSensorConfig                   C:\cygwin64\tmp\ccTUqUH8.ltrans2.ltrans.o
                                                  obj/main/BETAFLIGHTF3/sensors/esc_sensor.o (symbol from plugin)
pgResetTemplate_escSerialConfig                   C:\cygwin64\tmp\ccTUqUH8.ltrans2.ltrans.o
                                                  obj/main/BETAFLIGHTF3/drivers/serial_escserial.o (symbol from plugin)
pgResetTemplate_failsafeConfig                    C:\cygwin64\tmp\ccTUqUH8.ltrans3.ltrans.o
                                                  obj/main/BETAFLIGHTF3/flight/failsafe.o (symbol from plugin)
pgResetTemplate_featureConfig                     C:\cygwin64\tmp\ccTUqUH8.ltrans1.ltrans.o
                                                  obj/main/BETAFLIGHTF3/config/feature.o (symbol from plugin)
pgResetTemplate_flight3DConfig                    C:\cygwin64\tmp\ccTUqUH8.ltrans3.ltrans.o
                                                  obj/main/BETAFLIGHTF3/fc/rc_controls.o (symbol from plugin)
pgResetTemplate_gyroConfig                        C:\cygwin64\tmp\ccTUqUH8.ltrans6.ltrans.o
                                                  obj/main/BETAFLIGHTF3/sensors/gyro.o (symbol from plugin)
pgResetTemplate_imuConfig                         C:\cygwin64\tmp\ccTUqUH8.ltrans4.ltrans.o
                                                  obj/main/BETAFLIGHTF3/flight/imu.o (symbol from plugin)
pgResetTemplate_max7456Config                     C:\cygwin64\tmp\ccTUqUH8.ltrans6.ltrans.o
                                                  obj/main/BETAFLIGHTF3/pg/max7456.o (symbol from plugin)
pgResetTemplate_mixerConfig                       C:\cygwin64\tmp\ccTUqUH8.ltrans1.ltrans.o
                                                  obj/main/BETAFLIGHTF3/flight/mixer.o (symbol from plugin)
pgResetTemplate_pidConfig                         C:\cygwin64\tmp\ccTUqUH8.ltrans1.ltrans.o
                                                  obj/main/BETAFLIGHTF3/flight/pid.o (symbol from plugin)
pgResetTemplate_pilotConfig                       C:\cygwin64\tmp\ccTUqUH8.ltrans1.ltrans.o
                                                  obj/main/BETAFLIGHTF3/fc/config.o (symbol from plugin)
pgResetTemplate_rcControlsConfig                  C:\cygwin64\tmp\ccTUqUH8.ltrans1.ltrans.o
                                                  obj/main/BETAFLIGHTF3/fc/rc_controls.o (symbol from plugin)
pgResetTemplate_systemConfig                      C:\cygwin64\tmp\ccTUqUH8.ltrans6.ltrans.o
                                                  obj/main/BETAFLIGHTF3/fc/config.o (symbol from plugin)
pgResetTemplate_telemetryConfig                   C:\cygwin64\tmp\ccTUqUH8.ltrans2.ltrans.o
                                                  obj/main/BETAFLIGHTF3/telemetry/telemetry.o (symbol from plugin)
pgResetTemplate_throttleCorrectionConfig          C:\cygwin64\tmp\ccTUqUH8.ltrans3.ltrans.o
                                                  obj/main/BETAFLIGHTF3/fc/fc_core.o (symbol from plugin)
pgResetTemplate_timeConfig                        C:\cygwin64\tmp\ccTUqUH8.ltrans1.ltrans.o
                                                  obj/main/BETAFLIGHTF3/common/time.o (symbol from plugin)
pgResetTemplate_tricopterMixerConfig              C:\cygwin64\tmp\ccTUqUH8.ltrans5.ltrans.o
                                                  obj/main/BETAFLIGHTF3/flight/mixer_tricopter.o (symbol from plugin)
pgResetTemplate_vtxConfig                         C:\cygwin64\tmp\ccTUqUH8.ltrans3.ltrans.o
                                                  obj/main/BETAFLIGHTF3/io/vtx_control.o (symbol from plugin)
pgResetTemplate_vtxSettingsConfig                 C:\cygwin64\tmp\ccTUqUH8.ltrans2.ltrans.o
                                                  obj/main/BETAFLIGHTF3/io/vtx.o (symbol from plugin)
pgStore                                           obj/main/BETAFLIGHTF3/pg/pg.o (symbol from plugin)
pidConfig_Copy                                    obj/main/BETAFLIGHTF3/flight/pid.o (symbol from plugin)
pidConfig_Registry                                C:\cygwin64\tmp\ccTUqUH8.ltrans1.ltrans.o
                                                  obj/main/BETAFLIGHTF3/flight/pid.o (symbol from plugin)
pidConfig_System                                  C:\cygwin64\tmp\ccTUqUH8.ltrans1.ltrans.o
                                                  obj/main/BETAFLIGHTF3/flight/pid.o (symbol from plugin)
                                                  C:\cygwin64\tmp\ccTUqUH8.ltrans4.ltrans.o
                                                  C:\cygwin64\tmp\ccTUqUH8.ltrans3.ltrans.o
                                                  C:\cygwin64\tmp\ccTUqUH8.ltrans0.ltrans.o
                                                  obj/main/BETAFLIGHTF3/blackbox/blackbox.o (symbol from plugin)
                                                  obj/main/BETAFLIGHTF3/interface/cli.o (symbol from plugin)
                                                  obj/main/BETAFLIGHTF3/fc/fc_core.o (symbol from plugin)
                                                  obj/main/BETAFLIGHTF3/interface/msp.o (symbol from plugin)
                                                  obj/main/BETAFLIGHTF3/fc/config.o (symbol from plugin)
pidController                                     obj/main/BETAFLIGHTF3/flight/pid.o (symbol from plugin)
                                                  obj/main/BETAFLIGHTF3/fc/fc_core.o (symbol from plugin)
pidCopyProfile                                    C:\cygwin64\tmp\ccTUqUH8.ltrans3.ltrans.o
                                                  obj/main/BETAFLIGHTF3/flight/pid.o (symbol from plugin)
                                                  C:\cygwin64\tmp\ccTUqUH8.ltrans4.ltrans.o
                                                  C:\cygwin64\tmp\ccTUqUH8.ltrans1.ltrans.o
                                                  obj/main/BETAFLIGHTF3/cms/cms_menu_imu.o (symbol from plugin)
                                                  obj/main/BETAFLIGHTF3/interface/msp.o (symbol from plugin)
pidInit                                           C:\cygwin64\tmp\ccTUqUH8.ltrans3.ltrans.o
                                                  obj/main/BETAFLIGHTF3/flight/pid.o (symbol from plugin)
                                                  C:\cygwin64\tmp\ccTUqUH8.ltrans4.ltrans.o
                                                  C:\cygwin64\tmp\ccTUqUH8.ltrans0.ltrans.o
                                                  obj/main/BETAFLIGHTF3/fc/fc_init.o (symbol from plugin)
                                                  obj/main/BETAFLIGHTF3/fc/config.o (symbol from plugin)
pidInitConfig                                     C:\cygwin64\tmp\ccTUqUH8.ltrans3.ltrans.o
                                                  obj/main/BETAFLIGHTF3/flight/pid.o (symbol from plugin)
                                                  C:\cygwin64\tmp\ccTUqUH8.ltrans4.ltrans.o
                                                  C:\cygwin64\tmp\ccTUqUH8.ltrans1.ltrans.o
                                                  C:\cygwin64\tmp\ccTUqUH8.ltrans0.ltrans.o
                                                  obj/main/BETAFLIGHTF3/cms/cms_menu_imu.o (symbol from plugin)
                                                  obj/main/BETAFLIGHTF3/fc/rc_adjustments.o (symbol from plugin)
                                                  obj/main/BETAFLIGHTF3/interface/msp.o (symbol from plugin)
pidInitFilters                                    obj/main/BETAFLIGHTF3/flight/pid.o (symbol from plugin)
                                                  obj/main/BETAFLIGHTF3/interface/msp.o (symbol from plugin)
pidInitFilters.part.1                             C:\cygwin64\tmp\ccTUqUH8.ltrans3.ltrans.o
                                                  C:\cygwin64\tmp\ccTUqUH8.ltrans4.ltrans.o
pidProfile.lto_priv.601                           C:\cygwin64\tmp\ccTUqUH8.ltrans4.ltrans.o
pidProfiles_CopyArray                             obj/main/BETAFLIGHTF3/flight/pid.o (symbol from plugin)
pidProfiles_Registry                              C:\cygwin64\tmp\ccTUqUH8.ltrans1.ltrans.o
                                                  obj/main/BETAFLIGHTF3/flight/pid.o (symbol from plugin)
pidProfiles_SystemArray                           C:\cygwin64\tmp\ccTUqUH8.ltrans1.ltrans.o
                                                  obj/main/BETAFLIGHTF3/flight/pid.o (symbol from plugin)
                                                  C:\cygwin64\tmp\ccTUqUH8.ltrans3.ltrans.o
                                                  C:\cygwin64\tmp\ccTUqUH8.ltrans0.ltrans.o
                                                  obj/main/BETAFLIGHTF3/cms/cms_menu_imu.o (symbol from plugin)
                                                  obj/main/BETAFLIGHTF3/fc/config.o (symbol from plugin)
pidResetITerm                                     obj/main/BETAFLIGHTF3/flight/pid.o (symbol from plugin)
                                                  obj/main/BETAFLIGHTF3/flight/mixer.o (symbol from plugin)
                                                  obj/main/BETAFLIGHTF3/fc/fc_core.o (symbol from plugin)
pidSetItermAccelerator                            obj/main/BETAFLIGHTF3/flight/pid.o (symbol from plugin)
                                                  obj/main/BETAFLIGHTF3/fc/fc_rc.o (symbol from plugin)
pidStabilisationEnabled.lto_priv.595              C:\cygwin64\tmp\ccTUqUH8.ltrans3.ltrans.o
                                                  C:\cygwin64\tmp\ccTUqUH8.ltrans0.ltrans.o
pidStabilisationState                             obj/main/BETAFLIGHTF3/flight/pid.o (symbol from plugin)
                                                  obj/main/BETAFLIGHTF3/fc/fc_core.o (symbol from plugin)
pilotConfig_Copy                                  C:\cygwin64\tmp\ccTUqUH8.ltrans1.ltrans.o
                                                  obj/main/BETAFLIGHTF3/fc/config.o (symbol from plugin)
                                                  C:\cygwin64\tmp\ccTUqUH8.ltrans3.ltrans.o
                                                  obj/main/BETAFLIGHTF3/interface/cli.o (symbol from plugin)
pilotConfig_Registry                              C:\cygwin64\tmp\ccTUqUH8.ltrans1.ltrans.o
                                                  obj/main/BETAFLIGHTF3/fc/config.o (symbol from plugin)
pilotConfig_System                                C:\cygwin64\tmp\ccTUqUH8.ltrans1.ltrans.o
                                                  obj/main/BETAFLIGHTF3/fc/config.o (symbol from plugin)
                                                  C:\cygwin64\tmp\ccTUqUH8.ltrans5.ltrans.o
                                                  C:\cygwin64\tmp\ccTUqUH8.ltrans4.ltrans.o
                                                  C:\cygwin64\tmp\ccTUqUH8.ltrans3.ltrans.o
                                                  C:\cygwin64\tmp\ccTUqUH8.ltrans0.ltrans.o
                                                  obj/main/BETAFLIGHTF3/blackbox/blackbox.o (symbol from plugin)
                                                  obj/main/BETAFLIGHTF3/interface/cli.o (symbol from plugin)
                                                  obj/main/BETAFLIGHTF3/interface/msp.o (symbol from plugin)
                                                  obj/main/BETAFLIGHTF3/io/osd.o (symbol from plugin)
port.lto_priv.410                                 C:\cygwin64\tmp\ccTUqUH8.ltrans1.ltrans.o
                                                  C:\cygwin64\tmp\ccTUqUH8.ltrans3.ltrans.o
portConfig.lto_priv.310                           C:\cygwin64\tmp\ccTUqUH8.ltrans2.ltrans.o
                                                  C:\cygwin64\tmp\ccTUqUH8.ltrans0.ltrans.o
portConfig.lto_priv.311                           C:\cygwin64\tmp\ccTUqUH8.ltrans2.ltrans.o
                                                  C:\cygwin64\tmp\ccTUqUH8.ltrans0.ltrans.o
portConfig.lto_priv.312                           C:\cygwin64\tmp\ccTUqUH8.ltrans2.ltrans.o
                                                  C:\cygwin64\tmp\ccTUqUH8.ltrans0.ltrans.o
powerf                                            obj/main/BETAFLIGHTF3/common/maths.o (symbol from plugin)
powf                                              d:/gcc-arm-none-eabi-7-2017-q4-major-win32/bin/../lib/gcc/arm-none-eabi/7.2.1/../../../../arm-none-eabi/lib/thumb/v7e-m/fpv4-sp/hard\libm.a(lib_a-sf_pow.o)
                                                  C:\cygwin64\tmp\ccTUqUH8.ltrans6.ltrans.o
                                                  C:\cygwin64\tmp\ccTUqUH8.ltrans3.ltrans.o
ppmAvoidPWMTimerClash                             obj/main/BETAFLIGHTF3/drivers/rx/rx_pwm.o (symbol from plugin)
ppmConfig_Copy                                    obj/main/BETAFLIGHTF3/pg/rx_pwm.o (symbol from plugin)
ppmConfig_Registry                                C:\cygwin64\tmp\ccTUqUH8.ltrans6.ltrans.o
                                                  obj/main/BETAFLIGHTF3/pg/rx_pwm.o (symbol from plugin)
ppmConfig_System                                  C:\cygwin64\tmp\ccTUqUH8.ltrans6.ltrans.o
                                                  obj/main/BETAFLIGHTF3/pg/rx_pwm.o (symbol from plugin)
                                                  obj/main/BETAFLIGHTF3/fc/fc_init.o (symbol from plugin)
ppmCountDivisor.lto_priv.470                      C:\cygwin64\tmp\ccTUqUH8.ltrans6.ltrans.o
                                                  C:\cygwin64\tmp\ccTUqUH8.ltrans4.ltrans.o
ppmDev.lto_priv.469                               C:\cygwin64\tmp\ccTUqUH8.ltrans6.ltrans.o
                                                  C:\cygwin64\tmp\ccTUqUH8.ltrans4.ltrans.o
ppmEdgeCallback.lto_priv.264                      C:\cygwin64\tmp\ccTUqUH8.ltrans4.ltrans.o
                                                  C:\cygwin64\tmp\ccTUqUH8.ltrans6.ltrans.o
ppmFrameCount.lto_priv.471                        C:\cygwin64\tmp\ccTUqUH8.ltrans1.ltrans.o
                                                  C:\cygwin64\tmp\ccTUqUH8.ltrans4.ltrans.o
ppmISREvent                                       obj/main/BETAFLIGHTF3/drivers/rx/rx_pwm.o (symbol from plugin)
ppmOverflowCallback.lto_priv.265                  C:\cygwin64\tmp\ccTUqUH8.ltrans4.ltrans.o
                                                  C:\cygwin64\tmp\ccTUqUH8.ltrans6.ltrans.o
ppmRead                                           obj/main/BETAFLIGHTF3/drivers/rx/rx_pwm.o (symbol from plugin)
                                                  obj/main/BETAFLIGHTF3/rx/pwm.o (symbol from plugin)
ppmRxInit                                         obj/main/BETAFLIGHTF3/drivers/rx/rx_pwm.o (symbol from plugin)
                                                  obj/main/BETAFLIGHTF3/fc/fc_init.o (symbol from plugin)
ppmRxInit.constprop.126                           C:\cygwin64\tmp\ccTUqUH8.ltrans6.ltrans.o
                                                  C:\cygwin64\tmp\ccTUqUH8.ltrans4.ltrans.o
prepareDshotPacket                                obj/main/BETAFLIGHTF3/drivers/pwm_output.o (symbol from plugin)
                                                  obj/main/BETAFLIGHTF3/drivers/pwm_output_dshot.o (symbol from plugin)
prepareForNextRxByte                              obj/main/BETAFLIGHTF3/drivers/serial_softserial.o (symbol from plugin)
printEscInfo                                      obj/main/BETAFLIGHTF3/interface/cli.o (symbol from plugin)
printfSerialPort.lto_priv.683                     C:\cygwin64\tmp\ccTUqUH8.ltrans0.ltrans.o
                                                  C:\cygwin64\tmp\ccTUqUH8.ltrans5.ltrans.o
printfSupportInit                                 obj/main/BETAFLIGHTF3/common/printf.o (symbol from plugin)
                                                  obj/main/BETAFLIGHTF3/fc/fc_init.o (symbol from plugin)
processFrSkyHubTelemetry                          obj/main/BETAFLIGHTF3/telemetry/frsky_hub.o (symbol from plugin)
processLoopback                                   obj/main/BETAFLIGHTF3/fc/fc_init.o (symbol from plugin)
                                                  obj/main/BETAFLIGHTF3/main.o (symbol from plugin)
processRcAdjustments                              obj/main/BETAFLIGHTF3/fc/rc_adjustments.o (symbol from plugin)
                                                  obj/main/BETAFLIGHTF3/fc/fc_core.o (symbol from plugin)
processRcCommand                                  obj/main/BETAFLIGHTF3/fc/fc_rc.o (symbol from plugin)
                                                  obj/main/BETAFLIGHTF3/fc/fc_core.o (symbol from plugin)
processRcStickPositions                           obj/main/BETAFLIGHTF3/fc/rc_controls.o (symbol from plugin)
                                                  obj/main/BETAFLIGHTF3/fc/fc_core.o (symbol from plugin)
processRx                                         obj/main/BETAFLIGHTF3/fc/fc_core.o (symbol from plugin)
                                                  obj/main/BETAFLIGHTF3/fc/fc_tasks.o (symbol from plugin)
processRxState                                    obj/main/BETAFLIGHTF3/drivers/serial_softserial.o (symbol from plugin)
processSmartPortTelemetry                         C:\cygwin64\tmp\ccTUqUH8.ltrans2.ltrans.o
                                                  obj/main/BETAFLIGHTF3/telemetry/smartport.o (symbol from plugin)
                                                  C:\cygwin64\tmp\ccTUqUH8.ltrans1.ltrans.o
                                                  C:\cygwin64\tmp\ccTUqUH8.ltrans0.ltrans.o
                                                  obj/main/BETAFLIGHTF3/rx/fport.o (symbol from plugin)
processTxState                                    obj/main/BETAFLIGHTF3/drivers/serial_softserial.o (symbol from plugin)
pt1FilterApply                                    C:\cygwin64\tmp\ccTUqUH8.ltrans5.ltrans.o
                                                  obj/main/BETAFLIGHTF3/common/filter.o (symbol from plugin)
                                                  C:\cygwin64\tmp\ccTUqUH8.ltrans6.ltrans.o
                                                  C:\cygwin64\tmp\ccTUqUH8.ltrans3.ltrans.o
                                                  obj/main/BETAFLIGHTF3/sensors/gyro.o (symbol from plugin)
                                                  obj/main/BETAFLIGHTF3/flight/pid.o (symbol from plugin)
pt1FilterInit                                     obj/main/BETAFLIGHTF3/common/filter.o (symbol from plugin)
                                                  obj/main/BETAFLIGHTF3/sensors/gyro.o (symbol from plugin)
                                                  obj/main/BETAFLIGHTF3/flight/pid.o (symbol from plugin)
ptermYawFilterApplyFn.lto_priv.493                C:\cygwin64\tmp\ccTUqUH8.ltrans3.ltrans.o
                                                  C:\cygwin64\tmp\ccTUqUH8.ltrans4.ltrans.o
pwmAreMotorsEnabled                               obj/main/BETAFLIGHTF3/drivers/pwm_output.o (symbol from plugin)
                                                  obj/main/BETAFLIGHTF3/sensors/esc_sensor.o (symbol from plugin)
                                                  obj/main/BETAFLIGHTF3/flight/mixer.o (symbol from plugin)
pwmCompleteDshotMotorUpdate                       C:\cygwin64\tmp\ccTUqUH8.ltrans5.ltrans.o
                                                  obj/main/BETAFLIGHTF3/drivers/pwm_output_dshot.o (symbol from plugin)
                                                  C:\cygwin64\tmp\ccTUqUH8.ltrans6.ltrans.o
                                                  obj/main/BETAFLIGHTF3/drivers/pwm_output.o (symbol from plugin)
pwmCompleteMotorUpdate                            obj/main/BETAFLIGHTF3/drivers/pwm_output.o (symbol from plugin)
                                                  obj/main/BETAFLIGHTF3/flight/mixer.o (symbol from plugin)
pwmCompleteOneshotMotorUpdate.lto_priv.271        C:\cygwin64\tmp\ccTUqUH8.ltrans4.ltrans.o
                                                  C:\cygwin64\tmp\ccTUqUH8.ltrans6.ltrans.o
pwmCompleteWrite.lto_priv.419                     C:\cygwin64\tmp\ccTUqUH8.ltrans6.ltrans.o
                                                  C:\cygwin64\tmp\ccTUqUH8.ltrans3.ltrans.o
pwmCompleteWriteUnused.lto_priv.270               C:\cygwin64\tmp\ccTUqUH8.ltrans4.ltrans.o
                                                  C:\cygwin64\tmp\ccTUqUH8.ltrans6.ltrans.o
pwmConfig_Copy                                    obj/main/BETAFLIGHTF3/pg/rx_pwm.o (symbol from plugin)
pwmConfig_Registry                                C:\cygwin64\tmp\ccTUqUH8.ltrans6.ltrans.o
                                                  obj/main/BETAFLIGHTF3/pg/rx_pwm.o (symbol from plugin)
pwmConfig_System                                  C:\cygwin64\tmp\ccTUqUH8.ltrans6.ltrans.o
                                                  obj/main/BETAFLIGHTF3/pg/rx_pwm.o (symbol from plugin)
                                                  obj/main/BETAFLIGHTF3/fc/fc_init.o (symbol from plugin)
pwmDisableMotors                                  C:\cygwin64\tmp\ccTUqUH8.ltrans4.ltrans.o
                                                  obj/main/BETAFLIGHTF3/drivers/pwm_output.o (symbol from plugin)
                                                  C:\cygwin64\tmp\ccTUqUH8.ltrans3.ltrans.o
                                                  C:\cygwin64\tmp\ccTUqUH8.ltrans2.ltrans.o
                                                  obj/main/BETAFLIGHTF3/drivers/serial_escserial.o (symbol from plugin)
                                                  obj/main/BETAFLIGHTF3/io/serial_4way.o (symbol from plugin)
                                                  obj/main/BETAFLIGHTF3/interface/cli.o (symbol from plugin)
                                                  obj/main/BETAFLIGHTF3/fc/fc_core.o (symbol from plugin)
                                                  obj/main/BETAFLIGHTF3/io/beeper.o (symbol from plugin)
pwmDshotMotorHardwareConfig                       obj/main/BETAFLIGHTF3/drivers/pwm_output_dshot.o (symbol from plugin)
                                                  obj/main/BETAFLIGHTF3/drivers/pwm_output.o (symbol from plugin)
pwmEdgeCallback.lto_priv.262                      C:\cygwin64\tmp\ccTUqUH8.ltrans4.ltrans.o
                                                  C:\cygwin64\tmp\ccTUqUH8.ltrans6.ltrans.o
pwmEnableMotors                                   C:\cygwin64\tmp\ccTUqUH8.ltrans4.ltrans.o
                                                  obj/main/BETAFLIGHTF3/drivers/pwm_output.o (symbol from plugin)
                                                  C:\cygwin64\tmp\ccTUqUH8.ltrans3.ltrans.o
                                                  C:\cygwin64\tmp\ccTUqUH8.ltrans1.ltrans.o
                                                  obj/main/BETAFLIGHTF3/io/serial_4way.o (symbol from plugin)
                                                  obj/main/BETAFLIGHTF3/interface/cli.o (symbol from plugin)
                                                  obj/main/BETAFLIGHTF3/fc/fc_core.o (symbol from plugin)
                                                  obj/main/BETAFLIGHTF3/fc/fc_init.o (symbol from plugin)
                                                  obj/main/BETAFLIGHTF3/io/beeper.o (symbol from plugin)
pwmGetMotors                                      obj/main/BETAFLIGHTF3/drivers/pwm_output.o (symbol from plugin)
                                                  obj/main/BETAFLIGHTF3/drivers/serial_escserial.o (symbol from plugin)
                                                  obj/main/BETAFLIGHTF3/io/serial_4way.o (symbol from plugin)
                                                  obj/main/BETAFLIGHTF3/drivers/rx/rx_pwm.o (symbol from plugin)
                                                  obj/main/BETAFLIGHTF3/interface/msp.o (symbol from plugin)
pwmICConfig                                       C:\cygwin64\tmp\ccTUqUH8.ltrans4.ltrans.o
                                                  obj/main/BETAFLIGHTF3/drivers/rx/rx_pwm.o (symbol from plugin)
                                                  C:\cygwin64\tmp\ccTUqUH8.ltrans6.ltrans.o
pwmMotorsEnabled.lto_priv.306                     C:\cygwin64\tmp\ccTUqUH8.ltrans6.ltrans.o
                                                  C:\cygwin64\tmp\ccTUqUH8.ltrans4.ltrans.o
                                                  C:\cygwin64\tmp\ccTUqUH8.ltrans3.ltrans.o
                                                  C:\cygwin64\tmp\ccTUqUH8.ltrans2.ltrans.o
pwmOutConfig                                      C:\cygwin64\tmp\ccTUqUH8.ltrans4.ltrans.o
                                                  obj/main/BETAFLIGHTF3/drivers/pwm_output.o (symbol from plugin)
                                                  C:\cygwin64\tmp\ccTUqUH8.ltrans6.ltrans.o
                                                  obj/main/BETAFLIGHTF3/drivers/camera_control.o (symbol from plugin)
pwmOverflowCallback.lto_priv.263                  C:\cygwin64\tmp\ccTUqUH8.ltrans4.ltrans.o
                                                  C:\cygwin64\tmp\ccTUqUH8.ltrans6.ltrans.o
pwmRead                                           obj/main/BETAFLIGHTF3/drivers/rx/rx_pwm.o (symbol from plugin)
                                                  obj/main/BETAFLIGHTF3/rx/pwm.o (symbol from plugin)
pwmRxInit                                         obj/main/BETAFLIGHTF3/drivers/rx/rx_pwm.o (symbol from plugin)
                                                  obj/main/BETAFLIGHTF3/fc/fc_init.o (symbol from plugin)
pwmRxInit.constprop.127                           C:\cygwin64\tmp\ccTUqUH8.ltrans6.ltrans.o
                                                  C:\cygwin64\tmp\ccTUqUH8.ltrans4.ltrans.o
pwmShutdownPulsesForAllMotors                     obj/main/BETAFLIGHTF3/drivers/pwm_output.o (symbol from plugin)
                                                  obj/main/BETAFLIGHTF3/flight/mixer.o (symbol from plugin)
pwmToggleBeeper                                   obj/main/BETAFLIGHTF3/drivers/pwm_output.o (symbol from plugin)
                                                  obj/main/BETAFLIGHTF3/drivers/sound_beeper.o (symbol from plugin)
pwmWrite.lto_priv.420                             C:\cygwin64\tmp\ccTUqUH8.ltrans6.ltrans.o
                                                  C:\cygwin64\tmp\ccTUqUH8.ltrans4.ltrans.o
                                                  C:\cygwin64\tmp\ccTUqUH8.ltrans3.ltrans.o
pwmWriteBeeper                                    obj/main/BETAFLIGHTF3/drivers/pwm_output.o (symbol from plugin)
                                                  obj/main/BETAFLIGHTF3/drivers/sound_beeper.o (symbol from plugin)
pwmWriteDshot.lto_priv.266                        C:\cygwin64\tmp\ccTUqUH8.ltrans4.ltrans.o
                                                  C:\cygwin64\tmp\ccTUqUH8.ltrans6.ltrans.o
pwmWriteDshotCommand                              C:\cygwin64\tmp\ccTUqUH8.ltrans4.ltrans.o
                                                  obj/main/BETAFLIGHTF3/drivers/pwm_output.o (symbol from plugin)
                                                  C:\cygwin64\tmp\ccTUqUH8.ltrans3.ltrans.o
                                                  obj/main/BETAFLIGHTF3/interface/cli.o (symbol from plugin)
                                                  obj/main/BETAFLIGHTF3/fc/fc_core.o (symbol from plugin)
                                                  obj/main/BETAFLIGHTF3/io/beeper.o (symbol from plugin)
pwmWriteDshotInt                                  obj/main/BETAFLIGHTF3/drivers/pwm_output_dshot.o (symbol from plugin)
                                                  obj/main/BETAFLIGHTF3/drivers/pwm_output.o (symbol from plugin)
pwmWriteMotor                                     obj/main/BETAFLIGHTF3/drivers/pwm_output.o (symbol from plugin)
                                                  obj/main/BETAFLIGHTF3/flight/mixer.o (symbol from plugin)
pwmWriteServo                                     obj/main/BETAFLIGHTF3/drivers/pwm_output.o (symbol from plugin)
                                                  obj/main/BETAFLIGHTF3/flight/servos.o (symbol from plugin)
pwmWriteStandard.lto_priv.269                     C:\cygwin64\tmp\ccTUqUH8.ltrans4.ltrans.o
                                                  C:\cygwin64\tmp\ccTUqUH8.ltrans6.ltrans.o
pwmWriteUnused.lto_priv.272                       C:\cygwin64\tmp\ccTUqUH8.ltrans4.ltrans.o
                                                  C:\cygwin64\tmp\ccTUqUH8.ltrans6.ltrans.o
q.lto_priv.587                                    C:\cygwin64\tmp\ccTUqUH8.ltrans3.ltrans.o
                                                  C:\cygwin64\tmp\ccTUqUH8.ltrans0.ltrans.o
qConstruct                                        obj/main/BETAFLIGHTF3/common/maths.o (symbol from plugin)
                                                  obj/main/BETAFLIGHTF3/fc/fc_rc.o (symbol from plugin)
qMultiply                                         obj/main/BETAFLIGHTF3/common/maths.o (symbol from plugin)
                                                  obj/main/BETAFLIGHTF3/fc/fc_rc.o (symbol from plugin)
qP.lto_priv.463                                   C:\cygwin64\tmp\ccTUqUH8.ltrans3.ltrans.o
                                                  C:\cygwin64\tmp\ccTUqUH8.ltrans4.ltrans.o
                                                  C:\cygwin64\tmp\ccTUqUH8.ltrans0.ltrans.o
qPercent                                          obj/main/BETAFLIGHTF3/common/maths.o (symbol from plugin)
queueAdd                                          C:\cygwin64\tmp\ccTUqUH8.ltrans4.ltrans.o
                                                  obj/main/BETAFLIGHTF3/scheduler/scheduler.o (symbol from plugin)
                                                  C:\cygwin64\tmp\ccTUqUH8.ltrans0.ltrans.o
queueClear                                        obj/main/BETAFLIGHTF3/scheduler/scheduler.o (symbol from plugin)
queueContains                                     obj/main/BETAFLIGHTF3/scheduler/scheduler.o (symbol from plugin)
queueFirst                                        obj/main/BETAFLIGHTF3/scheduler/scheduler.o (symbol from plugin)
queueNext                                         obj/main/BETAFLIGHTF3/scheduler/scheduler.o (symbol from plugin)
queueRemove                                       obj/main/BETAFLIGHTF3/scheduler/scheduler.o (symbol from plugin)
quickMedianFilter3                                obj/main/BETAFLIGHTF3/common/maths.o (symbol from plugin)
quickMedianFilter3f                               obj/main/BETAFLIGHTF3/common/maths.o (symbol from plugin)
quickMedianFilter5                                obj/main/BETAFLIGHTF3/common/maths.o (symbol from plugin)
quickMedianFilter5f                               obj/main/BETAFLIGHTF3/common/maths.o (symbol from plugin)
quickMedianFilter7                                obj/main/BETAFLIGHTF3/common/maths.o (symbol from plugin)
quickMedianFilter7f                               obj/main/BETAFLIGHTF3/common/maths.o (symbol from plugin)
quickMedianFilter9                                obj/main/BETAFLIGHTF3/common/maths.o (symbol from plugin)
quickMedianFilter9f                               obj/main/BETAFLIGHTF3/common/maths.o (symbol from plugin)
rcAliasToAngleIndexMap                            obj/main/BETAFLIGHTF3/flight/pid.o (symbol from plugin)
rcChannelLetters                                  C:\cygwin64\tmp\ccTUqUH8.ltrans1.ltrans.o
                                                  obj/main/BETAFLIGHTF3/rx/rx.o (symbol from plugin)
                                                  C:\cygwin64\tmp\ccTUqUH8.ltrans3.ltrans.o
                                                  obj/main/BETAFLIGHTF3/interface/cli.o (symbol from plugin)
rcCommand                                         C:\cygwin64\tmp\ccTUqUH8.ltrans2.ltrans.o
                                                  obj/main/BETAFLIGHTF3/fc/rc_controls.o (symbol from plugin)
                                                  C:\cygwin64\tmp\ccTUqUH8.ltrans4.ltrans.o
                                                  C:\cygwin64\tmp\ccTUqUH8.ltrans3.ltrans.o
                                                  C:\cygwin64\tmp\ccTUqUH8.ltrans1.ltrans.o
                                                  C:\cygwin64\tmp\ccTUqUH8.ltrans0.ltrans.o
                                                  obj/main/BETAFLIGHTF3/io/ledstrip.o (symbol from plugin)
                                                  obj/main/BETAFLIGHTF3/blackbox/blackbox.o (symbol from plugin)
                                                  obj/main/BETAFLIGHTF3/flight/servos.o (symbol from plugin)
                                                  obj/main/BETAFLIGHTF3/flight/mixer.o (symbol from plugin)
                                                  obj/main/BETAFLIGHTF3/fc/fc_rc.o (symbol from plugin)
                                                  obj/main/BETAFLIGHTF3/fc/fc_core.o (symbol from plugin)
                                                  obj/main/BETAFLIGHTF3/sensors/battery.o (symbol from plugin)
rcControlsConfig_Copy                             obj/main/BETAFLIGHTF3/fc/rc_controls.o (symbol from plugin)
rcControlsConfig_Registry                         C:\cygwin64\tmp\ccTUqUH8.ltrans1.ltrans.o
                                                  obj/main/BETAFLIGHTF3/fc/rc_controls.o (symbol from plugin)
rcControlsConfig_System                           C:\cygwin64\tmp\ccTUqUH8.ltrans1.ltrans.o
                                                  obj/main/BETAFLIGHTF3/fc/rc_controls.o (symbol from plugin)
                                                  C:\cygwin64\tmp\ccTUqUH8.ltrans4.ltrans.o
                                                  C:\cygwin64\tmp\ccTUqUH8.ltrans0.ltrans.o
                                                  obj/main/BETAFLIGHTF3/blackbox/blackbox.o (symbol from plugin)
                                                  obj/main/BETAFLIGHTF3/fc/fc_rc.o (symbol from plugin)
                                                  obj/main/BETAFLIGHTF3/interface/msp.o (symbol from plugin)
rcData                                            C:\cygwin64\tmp\ccTUqUH8.ltrans2.ltrans.o
                                                  obj/main/BETAFLIGHTF3/rx/rx.o (symbol from plugin)
                                                  C:\cygwin64\tmp\ccTUqUH8.ltrans5.ltrans.o
                                                  C:\cygwin64\tmp\ccTUqUH8.ltrans3.ltrans.o
                                                  C:\cygwin64\tmp\ccTUqUH8.ltrans1.ltrans.o
                                                  C:\cygwin64\tmp\ccTUqUH8.ltrans0.ltrans.o
                                                  obj/main/BETAFLIGHTF3/io/ledstrip.o (symbol from plugin)
                                                  obj/main/BETAFLIGHTF3/io/rcdevice_cam.o (symbol from plugin)
                                                  obj/main/BETAFLIGHTF3/cms/cms_menu_misc.o (symbol from plugin)
                                                  obj/main/BETAFLIGHTF3/cms/cms.o (symbol from plugin)
                                                  obj/main/BETAFLIGHTF3/flight/servos.o (symbol from plugin)
                                                  obj/main/BETAFLIGHTF3/flight/mixer.o (symbol from plugin)
                                                  obj/main/BETAFLIGHTF3/flight/failsafe.o (symbol from plugin)
                                                  obj/main/BETAFLIGHTF3/fc/rc_modes.o (symbol from plugin)
                                                  obj/main/BETAFLIGHTF3/fc/rc_controls.o (symbol from plugin)
                                                  obj/main/BETAFLIGHTF3/fc/rc_adjustments.o (symbol from plugin)
                                                  obj/main/BETAFLIGHTF3/fc/fc_rc.o (symbol from plugin)
                                                  obj/main/BETAFLIGHTF3/fc/fc_core.o (symbol from plugin)
                                                  obj/main/BETAFLIGHTF3/interface/msp.o (symbol from plugin)
                                                  obj/main/BETAFLIGHTF3/io/osd.o (symbol from plugin)
rcInvalidPulsPeriod                               C:\cygwin64\tmp\ccTUqUH8.ltrans1.ltrans.o
                                                  obj/main/BETAFLIGHTF3/rx/rx.o (symbol from plugin)
                                                  C:\cygwin64\tmp\ccTUqUH8.ltrans0.ltrans.o
rcModeActivationMask                              C:\cygwin64\tmp\ccTUqUH8.ltrans1.ltrans.o
                                                  obj/main/BETAFLIGHTF3/fc/rc_modes.o (symbol from plugin)
                                                  C:\cygwin64\tmp\ccTUqUH8.ltrans4.ltrans.o
                                                  C:\cygwin64\tmp\ccTUqUH8.ltrans3.ltrans.o
                                                  C:\cygwin64\tmp\ccTUqUH8.ltrans0.ltrans.o
                                                  obj/main/BETAFLIGHTF3/blackbox/blackbox.o (symbol from plugin)
rcModeUpdate                                      obj/main/BETAFLIGHTF3/fc/rc_modes.o (symbol from plugin)
rcSampleIndex.lto_priv.608                        C:\cygwin64\tmp\ccTUqUH8.ltrans1.ltrans.o
                                                  C:\cygwin64\tmp\ccTUqUH8.ltrans0.ltrans.o
rcdeviceDisplayPortInit                           obj/main/BETAFLIGHTF3/io/displayport_rcdevice.o (symbol from plugin)
rcdeviceInMenu                                    C:\cygwin64\tmp\ccTUqUH8.ltrans2.ltrans.o
                                                  obj/main/BETAFLIGHTF3/io/rcdevice_cam.o (symbol from plugin)
                                                  C:\cygwin64\tmp\ccTUqUH8.ltrans1.ltrans.o
                                                  obj/main/BETAFLIGHTF3/cms/cms.o (symbol from plugin)
rcdeviceInit                                      C:\cygwin64\tmp\ccTUqUH8.ltrans2.ltrans.o
                                                  obj/main/BETAFLIGHTF3/io/rcdevice_cam.o (symbol from plugin)
                                                  C:\cygwin64\tmp\ccTUqUH8.ltrans4.ltrans.o
                                                  obj/main/BETAFLIGHTF3/fc/fc_init.o (symbol from plugin)
rcdeviceIsEnabled                                 obj/main/BETAFLIGHTF3/io/rcdevice_cam.o (symbol from plugin)
                                                  obj/main/BETAFLIGHTF3/fc/fc_tasks.o (symbol from plugin)
rcdeviceOSDClearScreen                            obj/main/BETAFLIGHTF3/io/rcdevice_osd.o (symbol from plugin)
                                                  obj/main/BETAFLIGHTF3/io/displayport_rcdevice.o (symbol from plugin)
rcdeviceOSDDisplayPort                            obj/main/BETAFLIGHTF3/io/displayport_rcdevice.o (symbol from plugin)
rcdeviceOSDDrawScreen                             obj/main/BETAFLIGHTF3/io/rcdevice_osd.o (symbol from plugin)
                                                  obj/main/BETAFLIGHTF3/io/displayport_rcdevice.o (symbol from plugin)
rcdeviceOSDGrab                                   obj/main/BETAFLIGHTF3/io/rcdevice_osd.o (symbol from plugin)
                                                  obj/main/BETAFLIGHTF3/io/displayport_rcdevice.o (symbol from plugin)
rcdeviceOSDHeartbeat                              obj/main/BETAFLIGHTF3/io/rcdevice_osd.o (symbol from plugin)
                                                  obj/main/BETAFLIGHTF3/io/displayport_rcdevice.o (symbol from plugin)
rcdeviceOSDInit                                   obj/main/BETAFLIGHTF3/io/rcdevice_osd.o (symbol from plugin)
                                                  obj/main/BETAFLIGHTF3/io/displayport_rcdevice.o (symbol from plugin)
rcdeviceOSDIsTransferInProgress                   obj/main/BETAFLIGHTF3/io/rcdevice_osd.o (symbol from plugin)
                                                  obj/main/BETAFLIGHTF3/io/displayport_rcdevice.o (symbol from plugin)
rcdeviceOSDRelease                                obj/main/BETAFLIGHTF3/io/rcdevice_osd.o (symbol from plugin)
                                                  obj/main/BETAFLIGHTF3/io/displayport_rcdevice.o (symbol from plugin)
rcdeviceOSDResync                                 obj/main/BETAFLIGHTF3/io/rcdevice_osd.o (symbol from plugin)
                                                  obj/main/BETAFLIGHTF3/io/displayport_rcdevice.o (symbol from plugin)
rcdeviceOSDTxBytesFree                            obj/main/BETAFLIGHTF3/io/rcdevice_osd.o (symbol from plugin)
                                                  obj/main/BETAFLIGHTF3/io/displayport_rcdevice.o (symbol from plugin)
rcdeviceOSDWriteChar                              obj/main/BETAFLIGHTF3/io/rcdevice_osd.o (symbol from plugin)
                                                  obj/main/BETAFLIGHTF3/io/displayport_rcdevice.o (symbol from plugin)
rcdeviceOSDWriteString                            obj/main/BETAFLIGHTF3/io/rcdevice_osd.o (symbol from plugin)
                                                  obj/main/BETAFLIGHTF3/io/displayport_rcdevice.o (symbol from plugin)
rcdeviceScreenSize                                obj/main/BETAFLIGHTF3/io/rcdevice_osd.o (symbol from plugin)
                                                  obj/main/BETAFLIGHTF3/io/displayport_rcdevice.o (symbol from plugin)
rcdeviceUpdate                                    C:\cygwin64\tmp\ccTUqUH8.ltrans2.ltrans.o
                                                  obj/main/BETAFLIGHTF3/io/rcdevice_cam.o (symbol from plugin)
                                                  C:\cygwin64\tmp\ccTUqUH8.ltrans3.ltrans.o
                                                  obj/main/BETAFLIGHTF3/fc/fc_tasks.o (symbol from plugin)
readBitfield                                      obj/main/BETAFLIGHTF3/drivers/sdcard_standard.o (symbol from plugin)
                                                  obj/main/BETAFLIGHTF3/drivers/sdcard.o (symbol from plugin)
readBitfield.constprop.48                         C:\cygwin64\tmp\ccTUqUH8.ltrans6.ltrans.o
                                                  C:\cygwin64\tmp\ccTUqUH8.ltrans2.ltrans.o
readEEPROM                                        C:\cygwin64\tmp\ccTUqUH8.ltrans0.ltrans.o
                                                  obj/main/BETAFLIGHTF3/fc/config.o (symbol from plugin)
                                                  C:\cygwin64\tmp\ccTUqUH8.ltrans4.ltrans.o
                                                  obj/main/BETAFLIGHTF3/fc/fc_init.o (symbol from plugin)
                                                  obj/main/BETAFLIGHTF3/interface/msp.o (symbol from plugin)
receiveBuffer                                     obj/main/BETAFLIGHTF3/vcp/hw_config.o (symbol from plugin)
                                                  obj/main/BETAFLIGHTF3/vcp/usb_endp.o (symbol from plugin)
receiveLength                                     obj/main/BETAFLIGHTF3/vcp/usb_endp.o (symbol from plugin)
                                                  obj/main/BETAFLIGHTF3/vcp/hw_config.o (symbol from plugin)
reevaluateLedConfig                               C:\cygwin64\tmp\ccTUqUH8.ltrans2.ltrans.o
                                                  obj/main/BETAFLIGHTF3/io/ledstrip.o (symbol from plugin)
                                                  C:\cygwin64\tmp\ccTUqUH8.ltrans4.ltrans.o
                                                  C:\cygwin64\tmp\ccTUqUH8.ltrans0.ltrans.o
                                                  obj/main/BETAFLIGHTF3/interface/msp.o (symbol from plugin)
                                                  obj/main/BETAFLIGHTF3/fc/config.o (symbol from plugin)
release.lto_priv.279                              C:\cygwin64\tmp\ccTUqUH8.ltrans2.ltrans.o
                                                  C:\cygwin64\tmp\ccTUqUH8.ltrans6.ltrans.o
release.lto_priv.515                              C:\cygwin64\tmp\ccTUqUH8.ltrans2.ltrans.o
                                                  C:\cygwin64\tmp\ccTUqUH8.ltrans4.ltrans.o
releaseSharedTelemetryPorts                       obj/main/BETAFLIGHTF3/telemetry/telemetry.o (symbol from plugin)
                                                  obj/main/BETAFLIGHTF3/fc/fc_core.o (symbol from plugin)
remotewakeupon                                    obj/main/BETAFLIGHTF3/vcp/usb_pwr.o (symbol from plugin)
requestedSensors                                  obj/main/BETAFLIGHTF3/sensors/initialisation.o (symbol from plugin)
rescheduleTask                                    obj/main/BETAFLIGHTF3/scheduler/scheduler.o (symbol from plugin)
                                                  obj/main/BETAFLIGHTF3/fc/fc_tasks.o (symbol from plugin)
resetAdjustmentStates                             obj/main/BETAFLIGHTF3/fc/rc_adjustments.o (symbol from plugin)
                                                  obj/main/BETAFLIGHTF3/fc/config.o (symbol from plugin)
resetAllRxChannelRangeConfigurations              obj/main/BETAFLIGHTF3/rx/rx.o (symbol from plugin)
                                                  obj/main/BETAFLIGHTF3/interface/cli.o (symbol from plugin)
resetArmingDisabled                               obj/main/BETAFLIGHTF3/fc/fc_core.o (symbol from plugin)
                                                  obj/main/BETAFLIGHTF3/fc/rc_controls.o (symbol from plugin)
resetConfigs                                      C:\cygwin64\tmp\ccTUqUH8.ltrans0.ltrans.o
                                                  obj/main/BETAFLIGHTF3/fc/config.o (symbol from plugin)
                                                  C:\cygwin64\tmp\ccTUqUH8.ltrans3.ltrans.o
                                                  obj/main/BETAFLIGHTF3/interface/cli.o (symbol from plugin)
resetEEPROM                                       C:\cygwin64\tmp\ccTUqUH8.ltrans0.ltrans.o
                                                  obj/main/BETAFLIGHTF3/fc/config.o (symbol from plugin)
                                                  C:\cygwin64\tmp\ccTUqUH8.ltrans4.ltrans.o
                                                  obj/main/BETAFLIGHTF3/fc/fc_init.o (symbol from plugin)
                                                  obj/main/BETAFLIGHTF3/interface/msp.o (symbol from plugin)
resetPPMDataReceivedState                         obj/main/BETAFLIGHTF3/drivers/rx/rx_pwm.o (symbol from plugin)
                                                  obj/main/BETAFLIGHTF3/rx/rx.o (symbol from plugin)
resetPidProfile                                   obj/main/BETAFLIGHTF3/flight/pid.o (symbol from plugin)
                                                  obj/main/BETAFLIGHTF3/interface/msp.o (symbol from plugin)
resetRollAndPitchTrims                            obj/main/BETAFLIGHTF3/sensors/acceleration.o (symbol from plugin)
resetYawAxis                                      obj/main/BETAFLIGHTF3/fc/fc_rc.o (symbol from plugin)
                                                  obj/main/BETAFLIGHTF3/fc/fc_core.o (symbol from plugin)
resolution                                        obj/main/BETAFLIGHTF3/rx/spektrum.o (symbol from plugin)
                                                  obj/main/BETAFLIGHTF3/io/spektrum_rssi.o (symbol from plugin)
resourceTable                                     obj/main/BETAFLIGHTF3/interface/cli.o (symbol from plugin)
resumeRefreshAt                                   C:\cygwin64\tmp\ccTUqUH8.ltrans2.ltrans.o
                                                  obj/main/BETAFLIGHTF3/io/osd.o (symbol from plugin)
                                                  C:\cygwin64\tmp\ccTUqUH8.ltrans5.ltrans.o
                                                  C:\cygwin64\tmp\ccTUqUH8.ltrans4.ltrans.o
                                                  obj/main/BETAFLIGHTF3/io/displayport_max7456.o (symbol from plugin)
                                                  obj/main/BETAFLIGHTF3/drivers/camera_control.o (symbol from plugin)
resumeRxSignal                                    C:\cygwin64\tmp\ccTUqUH8.ltrans1.ltrans.o
                                                  obj/main/BETAFLIGHTF3/rx/rx.o (symbol from plugin)
                                                  C:\cygwin64\tmp\ccTUqUH8.ltrans0.ltrans.o
                                                  obj/main/BETAFLIGHTF3/fc/config.o (symbol from plugin)
resync.lto_priv.287                               C:\cygwin64\tmp\ccTUqUH8.ltrans2.ltrans.o
                                                  C:\cygwin64\tmp\ccTUqUH8.ltrans6.ltrans.o
resync.lto_priv.523                               C:\cygwin64\tmp\ccTUqUH8.ltrans2.ltrans.o
                                                  C:\cygwin64\tmp\ccTUqUH8.ltrans4.ltrans.o
reverseMotors.lto_priv.586                        C:\cygwin64\tmp\ccTUqUH8.ltrans3.ltrans.o
                                                  C:\cygwin64\tmp\ccTUqUH8.ltrans0.ltrans.o
rotateV                                           obj/main/BETAFLIGHTF3/common/maths.o (symbol from plugin)
rssi.lto_priv.335                                 C:\cygwin64\tmp\ccTUqUH8.ltrans2.ltrans.o
                                                  C:\cygwin64\tmp\ccTUqUH8.ltrans5.ltrans.o
                                                  C:\cygwin64\tmp\ccTUqUH8.ltrans4.ltrans.o
                                                  C:\cygwin64\tmp\ccTUqUH8.ltrans1.ltrans.o
                                                  C:\cygwin64\tmp\ccTUqUH8.ltrans0.ltrans.o
rssiSampleIndex.10942.lto_priv.592                C:\cygwin64\tmp\ccTUqUH8.ltrans1.ltrans.o
                                                  C:\cygwin64\tmp\ccTUqUH8.ltrans0.ltrans.o
rssiSamples.10941.lto_priv.593                    C:\cygwin64\tmp\ccTUqUH8.ltrans1.ltrans.o
                                                  C:\cygwin64\tmp\ccTUqUH8.ltrans0.ltrans.o
rssiSource                                        C:\cygwin64\tmp\ccTUqUH8.ltrans1.ltrans.o
                                                  obj/main/BETAFLIGHTF3/rx/rx.o (symbol from plugin)
                                                  C:\cygwin64\tmp\ccTUqUH8.ltrans4.ltrans.o
                                                  C:\cygwin64\tmp\ccTUqUH8.ltrans0.ltrans.o
                                                  obj/main/BETAFLIGHTF3/rx/fport.o (symbol from plugin)
                                                  obj/main/BETAFLIGHTF3/interface/msp.o (symbol from plugin)
rssi_channel                                      obj/main/BETAFLIGHTF3/rx/spektrum.o (symbol from plugin)
                                                  obj/main/BETAFLIGHTF3/io/spektrum_rssi.o (symbol from plugin)
rtcGet                                            obj/main/BETAFLIGHTF3/common/time.o (symbol from plugin)
rtcGetDateTime                                    C:\cygwin64\tmp\ccTUqUH8.ltrans5.ltrans.o
                                                  obj/main/BETAFLIGHTF3/common/time.o (symbol from plugin)
                                                  C:\cygwin64\tmp\ccTUqUH8.ltrans3.ltrans.o
                                                  C:\cygwin64\tmp\ccTUqUH8.ltrans2.ltrans.o
                                                  C:\cygwin64\tmp\ccTUqUH8.ltrans1.ltrans.o
                                                  C:\cygwin64\tmp\ccTUqUH8.ltrans0.ltrans.o
                                                  obj/main/BETAFLIGHTF3/io/asyncfatfs/asyncfatfs.o (symbol from plugin)
                                                  obj/main/BETAFLIGHTF3/blackbox/blackbox.o (symbol from plugin)
                                                  obj/main/BETAFLIGHTF3/interface/cli.o (symbol from plugin)
                                                  obj/main/BETAFLIGHTF3/interface/msp.o (symbol from plugin)
                                                  obj/main/BETAFLIGHTF3/io/osd.o (symbol from plugin)
rtcHasTime                                        obj/main/BETAFLIGHTF3/common/time.o (symbol from plugin)
rtcSet                                            obj/main/BETAFLIGHTF3/common/time.o (symbol from plugin)
rtcSetDateTime                                    obj/main/BETAFLIGHTF3/common/time.o (symbol from plugin)
                                                  obj/main/BETAFLIGHTF3/interface/msp.o (symbol from plugin)
rtcTimeGetMillis                                  obj/main/BETAFLIGHTF3/common/time.o (symbol from plugin)
rtcTimeGetSeconds                                 obj/main/BETAFLIGHTF3/common/time.o (symbol from plugin)
rtcTimeMake                                       obj/main/BETAFLIGHTF3/common/time.o (symbol from plugin)
runcamDeviceClose5KeyOSDCableConnection           obj/main/BETAFLIGHTF3/io/rcdevice.o (symbol from plugin)
                                                  obj/main/BETAFLIGHTF3/io/rcdevice_cam.o (symbol from plugin)
runcamDeviceDispFillRegion                        obj/main/BETAFLIGHTF3/io/rcdevice.o (symbol from plugin)
                                                  obj/main/BETAFLIGHTF3/io/rcdevice_osd.o (symbol from plugin)
runcamDeviceDispWriteChar                         obj/main/BETAFLIGHTF3/io/rcdevice.o (symbol from plugin)
                                                  obj/main/BETAFLIGHTF3/io/rcdevice_osd.o (symbol from plugin)
runcamDeviceDispWriteChars                        obj/main/BETAFLIGHTF3/io/rcdevice.o (symbol from plugin)
runcamDeviceDispWriteHorizontalString             obj/main/BETAFLIGHTF3/io/rcdevice.o (symbol from plugin)
                                                  obj/main/BETAFLIGHTF3/io/rcdevice_osd.o (symbol from plugin)
runcamDeviceDispWriteVerticalString               obj/main/BETAFLIGHTF3/io/rcdevice.o (symbol from plugin)
runcamDeviceGetSettingDetail                      obj/main/BETAFLIGHTF3/io/rcdevice.o (symbol from plugin)
                                                  obj/main/BETAFLIGHTF3/io/rcdevice_osd.o (symbol from plugin)
runcamDeviceGetSettings                           obj/main/BETAFLIGHTF3/io/rcdevice.o (symbol from plugin)
runcamDeviceInit                                  obj/main/BETAFLIGHTF3/io/rcdevice.o (symbol from plugin)
                                                  obj/main/BETAFLIGHTF3/io/rcdevice_osd.o (symbol from plugin)
                                                  obj/main/BETAFLIGHTF3/io/rcdevice_cam.o (symbol from plugin)
runcamDeviceOpen5KeyOSDCableConnection            obj/main/BETAFLIGHTF3/io/rcdevice.o (symbol from plugin)
                                                  obj/main/BETAFLIGHTF3/io/rcdevice_cam.o (symbol from plugin)
runcamDeviceSimulate5KeyOSDCableButtonPress       obj/main/BETAFLIGHTF3/io/rcdevice.o (symbol from plugin)
                                                  obj/main/BETAFLIGHTF3/io/rcdevice_cam.o (symbol from plugin)
runcamDeviceSimulate5KeyOSDCableButtonRelease     obj/main/BETAFLIGHTF3/io/rcdevice.o (symbol from plugin)
                                                  obj/main/BETAFLIGHTF3/io/rcdevice_cam.o (symbol from plugin)
runcamDeviceSimulateCameraButton                  obj/main/BETAFLIGHTF3/io/rcdevice.o (symbol from plugin)
                                                  obj/main/BETAFLIGHTF3/io/rcdevice_cam.o (symbol from plugin)
runcamDeviceWriteSetting                          obj/main/BETAFLIGHTF3/io/rcdevice.o (symbol from plugin)
                                                  obj/main/BETAFLIGHTF3/io/rcdevice_osd.o (symbol from plugin)
rxAreFlightChannelsValid                          obj/main/BETAFLIGHTF3/rx/rx.o (symbol from plugin)
                                                  obj/main/BETAFLIGHTF3/blackbox/blackbox.o (symbol from plugin)
rxChannelCount.lto_priv.609                       C:\cygwin64\tmp\ccTUqUH8.ltrans1.ltrans.o
                                                  C:\cygwin64\tmp\ccTUqUH8.ltrans0.ltrans.o
rxChannelRangeConfigs_CopyArray                   C:\cygwin64\tmp\ccTUqUH8.ltrans1.ltrans.o
                                                  obj/main/BETAFLIGHTF3/rx/rx.o (symbol from plugin)
                                                  C:\cygwin64\tmp\ccTUqUH8.ltrans3.ltrans.o
                                                  obj/main/BETAFLIGHTF3/interface/cli.o (symbol from plugin)
rxChannelRangeConfigs_Registry                    C:\cygwin64\tmp\ccTUqUH8.ltrans1.ltrans.o
                                                  obj/main/BETAFLIGHTF3/rx/rx.o (symbol from plugin)
rxChannelRangeConfigs_SystemArray                 C:\cygwin64\tmp\ccTUqUH8.ltrans1.ltrans.o
                                                  obj/main/BETAFLIGHTF3/rx/rx.o (symbol from plugin)
                                                  C:\cygwin64\tmp\ccTUqUH8.ltrans3.ltrans.o
                                                  C:\cygwin64\tmp\ccTUqUH8.ltrans0.ltrans.o
                                                  obj/main/BETAFLIGHTF3/interface/cli.o (symbol from plugin)
rxConfig_Copy                                     C:\cygwin64\tmp\ccTUqUH8.ltrans6.ltrans.o
                                                  obj/main/BETAFLIGHTF3/rx/rx.o (symbol from plugin)
                                                  C:\cygwin64\tmp\ccTUqUH8.ltrans3.ltrans.o
                                                  obj/main/BETAFLIGHTF3/interface/cli.o (symbol from plugin)
rxConfig_Registry                                 C:\cygwin64\tmp\ccTUqUH8.ltrans6.ltrans.o
                                                  obj/main/BETAFLIGHTF3/rx/rx.o (symbol from plugin)
rxConfig_System                                   C:\cygwin64\tmp\ccTUqUH8.ltrans6.ltrans.o
                                                  obj/main/BETAFLIGHTF3/rx/rx.o (symbol from plugin)
                                                  C:\cygwin64\tmp\ccTUqUH8.ltrans4.ltrans.o
                                                  C:\cygwin64\tmp\ccTUqUH8.ltrans3.ltrans.o
                                                  C:\cygwin64\tmp\ccTUqUH8.ltrans2.ltrans.o
                                                  C:\cygwin64\tmp\ccTUqUH8.ltrans1.ltrans.o
                                                  C:\cygwin64\tmp\ccTUqUH8.ltrans0.ltrans.o
                                                  obj/main/BETAFLIGHTF3/telemetry/telemetry.o (symbol from plugin)
                                                  obj/main/BETAFLIGHTF3/blackbox/blackbox.o (symbol from plugin)
                                                  obj/main/BETAFLIGHTF3/rx/spektrum.o (symbol from plugin)
                                                  obj/main/BETAFLIGHTF3/interface/cli.o (symbol from plugin)
                                                  obj/main/BETAFLIGHTF3/flight/servos.o (symbol from plugin)
                                                  obj/main/BETAFLIGHTF3/flight/mixer.o (symbol from plugin)
                                                  obj/main/BETAFLIGHTF3/flight/failsafe.o (symbol from plugin)
                                                  obj/main/BETAFLIGHTF3/fc/rc_controls.o (symbol from plugin)
                                                  obj/main/BETAFLIGHTF3/fc/rc_adjustments.o (symbol from plugin)
                                                  obj/main/BETAFLIGHTF3/fc/fc_rc.o (symbol from plugin)
                                                  obj/main/BETAFLIGHTF3/fc/fc_core.o (symbol from plugin)
                                                  obj/main/BETAFLIGHTF3/fc/fc_init.o (symbol from plugin)
                                                  obj/main/BETAFLIGHTF3/interface/msp.o (symbol from plugin)
                                                  obj/main/BETAFLIGHTF3/fc/fc_tasks.o (symbol from plugin)
rxDataProcessingRequired.lto_priv.604             C:\cygwin64\tmp\ccTUqUH8.ltrans1.ltrans.o
                                                  C:\cygwin64\tmp\ccTUqUH8.ltrans0.ltrans.o
rxFailsafeChannelConfigs_CopyArray                C:\cygwin64\tmp\ccTUqUH8.ltrans1.ltrans.o
                                                  obj/main/BETAFLIGHTF3/rx/rx.o (symbol from plugin)
                                                  C:\cygwin64\tmp\ccTUqUH8.ltrans3.ltrans.o
                                                  obj/main/BETAFLIGHTF3/interface/cli.o (symbol from plugin)
rxFailsafeChannelConfigs_Registry                 C:\cygwin64\tmp\ccTUqUH8.ltrans1.ltrans.o
                                                  obj/main/BETAFLIGHTF3/rx/rx.o (symbol from plugin)
rxFailsafeChannelConfigs_SystemArray              C:\cygwin64\tmp\ccTUqUH8.ltrans1.ltrans.o
                                                  obj/main/BETAFLIGHTF3/rx/rx.o (symbol from plugin)
                                                  C:\cygwin64\tmp\ccTUqUH8.ltrans4.ltrans.o
                                                  C:\cygwin64\tmp\ccTUqUH8.ltrans3.ltrans.o
                                                  C:\cygwin64\tmp\ccTUqUH8.ltrans0.ltrans.o
                                                  obj/main/BETAFLIGHTF3/interface/cli.o (symbol from plugin)
                                                  obj/main/BETAFLIGHTF3/interface/msp.o (symbol from plugin)
rxFlightChannelsValid.lto_priv.613                C:\cygwin64\tmp\ccTUqUH8.ltrans1.ltrans.o
                                                  C:\cygwin64\tmp\ccTUqUH8.ltrans0.ltrans.o
rxGetRefreshRate                                  obj/main/BETAFLIGHTF3/rx/rx.o (symbol from plugin)
                                                  obj/main/BETAFLIGHTF3/fc/fc_rc.o (symbol from plugin)
rxInit                                            C:\cygwin64\tmp\ccTUqUH8.ltrans1.ltrans.o
                                                  obj/main/BETAFLIGHTF3/rx/rx.o (symbol from plugin)
                                                  C:\cygwin64\tmp\ccTUqUH8.ltrans4.ltrans.o
                                                  obj/main/BETAFLIGHTF3/fc/fc_init.o (symbol from plugin)
rxIsInFailsafeMode.lto_priv.612                   C:\cygwin64\tmp\ccTUqUH8.ltrans1.ltrans.o
                                                  C:\cygwin64\tmp\ccTUqUH8.ltrans0.ltrans.o
rxIsInFailsafeModeNotDataDriven.lto_priv.611      C:\cygwin64\tmp\ccTUqUH8.ltrans1.ltrans.o
                                                  C:\cygwin64\tmp\ccTUqUH8.ltrans0.ltrans.o
rxIsReceivingSignal                               obj/main/BETAFLIGHTF3/rx/rx.o (symbol from plugin)
                                                  obj/main/BETAFLIGHTF3/io/ledstrip.o (symbol from plugin)
                                                  obj/main/BETAFLIGHTF3/blackbox/blackbox.o (symbol from plugin)
                                                  obj/main/BETAFLIGHTF3/fc/rc_controls.o (symbol from plugin)
                                                  obj/main/BETAFLIGHTF3/fc/rc_adjustments.o (symbol from plugin)
                                                  obj/main/BETAFLIGHTF3/fc/fc_core.o (symbol from plugin)
rxMspFrameDone.lto_priv.497                       C:\cygwin64\tmp\ccTUqUH8.ltrans1.ltrans.o
                                                  C:\cygwin64\tmp\ccTUqUH8.ltrans4.ltrans.o
rxMspFrameReceive                                 obj/main/BETAFLIGHTF3/rx/msp.o (symbol from plugin)
                                                  obj/main/BETAFLIGHTF3/interface/msp.o (symbol from plugin)
rxMspInit                                         obj/main/BETAFLIGHTF3/rx/msp.o (symbol from plugin)
                                                  obj/main/BETAFLIGHTF3/rx/rx.o (symbol from plugin)
rxNextUpdateAtUs.lto_priv.605                     C:\cygwin64\tmp\ccTUqUH8.ltrans1.ltrans.o
                                                  C:\cygwin64\tmp\ccTUqUH8.ltrans0.ltrans.o
rxPwmInit                                         obj/main/BETAFLIGHTF3/rx/pwm.o (symbol from plugin)
                                                  obj/main/BETAFLIGHTF3/rx/rx.o (symbol from plugin)
rxRuntimeConfig                                   C:\cygwin64\tmp\ccTUqUH8.ltrans1.ltrans.o
                                                  obj/main/BETAFLIGHTF3/rx/rx.o (symbol from plugin)
                                                  C:\cygwin64\tmp\ccTUqUH8.ltrans3.ltrans.o
                                                  C:\cygwin64\tmp\ccTUqUH8.ltrans0.ltrans.o
                                                  obj/main/BETAFLIGHTF3/flight/servos.o (symbol from plugin)
                                                  obj/main/BETAFLIGHTF3/interface/msp.o (symbol from plugin)
rxSignalReceived.lto_priv.340                     C:\cygwin64\tmp\ccTUqUH8.ltrans2.ltrans.o
                                                  C:\cygwin64\tmp\ccTUqUH8.ltrans3.ltrans.o
                                                  C:\cygwin64\tmp\ccTUqUH8.ltrans1.ltrans.o
                                                  C:\cygwin64\tmp\ccTUqUH8.ltrans0.ltrans.o
rxSignalReceivedNotDataDriven.lto_priv.610        C:\cygwin64\tmp\ccTUqUH8.ltrans1.ltrans.o
                                                  C:\cygwin64\tmp\ccTUqUH8.ltrans0.ltrans.o
rxUpdateCheck                                     C:\cygwin64\tmp\ccTUqUH8.ltrans1.ltrans.o
                                                  obj/main/BETAFLIGHTF3/rx/rx.o (symbol from plugin)
                                                  C:\cygwin64\tmp\ccTUqUH8.ltrans3.ltrans.o
                                                  obj/main/BETAFLIGHTF3/fc/fc_tasks.o (symbol from plugin)
saCmsBand                                         C:\cygwin64\tmp\ccTUqUH8.ltrans2.ltrans.o
                                                  obj/main/BETAFLIGHTF3/cms/cms_menu_vtx_smartaudio.o (symbol from plugin)
                                                  C:\cygwin64\tmp\ccTUqUH8.ltrans1.ltrans.o
saCmsChan                                         C:\cygwin64\tmp\ccTUqUH8.ltrans2.ltrans.o
                                                  obj/main/BETAFLIGHTF3/cms/cms_menu_vtx_smartaudio.o (symbol from plugin)
                                                  C:\cygwin64\tmp\ccTUqUH8.ltrans1.ltrans.o
saCmsDeviceFreq                                   obj/main/BETAFLIGHTF3/cms/cms_menu_vtx_smartaudio.o (symbol from plugin)
saCmsDeviceStatus                                 obj/main/BETAFLIGHTF3/cms/cms_menu_vtx_smartaudio.o (symbol from plugin)
saCmsFreqRef                                      C:\cygwin64\tmp\ccTUqUH8.ltrans2.ltrans.o
                                                  obj/main/BETAFLIGHTF3/cms/cms_menu_vtx_smartaudio.o (symbol from plugin)
                                                  C:\cygwin64\tmp\ccTUqUH8.ltrans1.ltrans.o
saCmsFselMode                                     C:\cygwin64\tmp\ccTUqUH8.ltrans2.ltrans.o
                                                  obj/main/BETAFLIGHTF3/cms/cms_menu_vtx_smartaudio.o (symbol from plugin)
                                                  C:\cygwin64\tmp\ccTUqUH8.ltrans1.ltrans.o
saCmsFselModeNew                                  C:\cygwin64\tmp\ccTUqUH8.ltrans2.ltrans.o
                                                  obj/main/BETAFLIGHTF3/cms/cms_menu_vtx_smartaudio.o (symbol from plugin)
                                                  C:\cygwin64\tmp\ccTUqUH8.ltrans1.ltrans.o
saCmsORFreq                                       obj/main/BETAFLIGHTF3/cms/cms_menu_vtx_smartaudio.o (symbol from plugin)
saCmsORFreqNew                                    obj/main/BETAFLIGHTF3/cms/cms_menu_vtx_smartaudio.o (symbol from plugin)
saCmsOpmodel                                      C:\cygwin64\tmp\ccTUqUH8.ltrans2.ltrans.o
                                                  obj/main/BETAFLIGHTF3/cms/cms_menu_vtx_smartaudio.o (symbol from plugin)
                                                  C:\cygwin64\tmp\ccTUqUH8.ltrans1.ltrans.o
saCmsPitFMode                                     obj/main/BETAFLIGHTF3/cms/cms_menu_vtx_smartaudio.o (symbol from plugin)
saCmsPower                                        C:\cygwin64\tmp\ccTUqUH8.ltrans2.ltrans.o
                                                  obj/main/BETAFLIGHTF3/cms/cms_menu_vtx_smartaudio.o (symbol from plugin)
                                                  C:\cygwin64\tmp\ccTUqUH8.ltrans1.ltrans.o
saCmsRFState                                      obj/main/BETAFLIGHTF3/cms/cms_menu_vtx_smartaudio.o (symbol from plugin)
saCmsResetOpmodel                                 obj/main/BETAFLIGHTF3/cms/cms_menu_vtx_smartaudio.o (symbol from plugin)
                                                  obj/main/BETAFLIGHTF3/io/vtx_smartaudio.o (symbol from plugin)
saCmsStatusString                                 obj/main/BETAFLIGHTF3/cms/cms_menu_vtx_smartaudio.o (symbol from plugin)
saCmsUpdate                                       obj/main/BETAFLIGHTF3/cms/cms_menu_vtx_smartaudio.o (symbol from plugin)
                                                  obj/main/BETAFLIGHTF3/io/vtx_smartaudio.o (symbol from plugin)
saCmsUserFreq                                     C:\cygwin64\tmp\ccTUqUH8.ltrans2.ltrans.o
                                                  obj/main/BETAFLIGHTF3/cms/cms_menu_vtx_smartaudio.o (symbol from plugin)
                                                  C:\cygwin64\tmp\ccTUqUH8.ltrans1.ltrans.o
saCmsUserFreqNew                                  obj/main/BETAFLIGHTF3/cms/cms_menu_vtx_smartaudio.o (symbol from plugin)
saDacToPowerIndex                                 obj/main/BETAFLIGHTF3/io/vtx_smartaudio.o (symbol from plugin)
                                                  obj/main/BETAFLIGHTF3/cms/cms_menu_vtx_smartaudio.o (symbol from plugin)
saDeferred                                        obj/main/BETAFLIGHTF3/io/vtx_smartaudio.o (symbol from plugin)
                                                  obj/main/BETAFLIGHTF3/cms/cms_menu_vtx_smartaudio.o (symbol from plugin)
saDevSetBandAndChannel.lto_priv.404               C:\cygwin64\tmp\ccTUqUH8.ltrans2.ltrans.o
saDevice                                          C:\cygwin64\tmp\ccTUqUH8.ltrans2.ltrans.o
                                                  obj/main/BETAFLIGHTF3/io/vtx_smartaudio.o (symbol from plugin)
                                                  C:\cygwin64\tmp\ccTUqUH8.ltrans1.ltrans.o
                                                  obj/main/BETAFLIGHTF3/cms/cms_menu_vtx_smartaudio.o (symbol from plugin)
saDoDevSetFreq.lto_priv.403                       C:\cygwin64\tmp\ccTUqUH8.ltrans2.ltrans.o
                                                  C:\cygwin64\tmp\ccTUqUH8.ltrans1.ltrans.o
saPowerNames                                      C:\cygwin64\tmp\ccTUqUH8.ltrans1.ltrans.o
                                                  obj/main/BETAFLIGHTF3/io/vtx_smartaudio.o (symbol from plugin)
                                                  C:\cygwin64\tmp\ccTUqUH8.ltrans4.ltrans.o
                                                  obj/main/BETAFLIGHTF3/cms/cms_menu_vtx_smartaudio.o (symbol from plugin)
saPowerTable                                      C:\cygwin64\tmp\ccTUqUH8.ltrans2.ltrans.o
                                                  obj/main/BETAFLIGHTF3/io/vtx_smartaudio.o (symbol from plugin)
                                                  C:\cygwin64\tmp\ccTUqUH8.ltrans1.ltrans.o
                                                  obj/main/BETAFLIGHTF3/cms/cms_menu_vtx_smartaudio.o (symbol from plugin)
saSendFrame.constprop.11                          C:\cygwin64\tmp\ccTUqUH8.ltrans6.ltrans.o
                                                  C:\cygwin64\tmp\ccTUqUH8.ltrans2.ltrans.o
saSetBandAndChannel                               obj/main/BETAFLIGHTF3/io/vtx_smartaudio.o (symbol from plugin)
                                                  obj/main/BETAFLIGHTF3/cms/cms_menu_vtx_smartaudio.o (symbol from plugin)
saSetFreq                                         obj/main/BETAFLIGHTF3/io/vtx_smartaudio.o (symbol from plugin)
saSetMode                                         C:\cygwin64\tmp\ccTUqUH8.ltrans2.ltrans.o
                                                  obj/main/BETAFLIGHTF3/io/vtx_smartaudio.o (symbol from plugin)
                                                  C:\cygwin64\tmp\ccTUqUH8.ltrans1.ltrans.o
                                                  obj/main/BETAFLIGHTF3/cms/cms_menu_vtx_smartaudio.o (symbol from plugin)
saSetPitFreq                                      obj/main/BETAFLIGHTF3/io/vtx_smartaudio.o (symbol from plugin)
                                                  obj/main/BETAFLIGHTF3/cms/cms_menu_vtx_smartaudio.o (symbol from plugin)
saSetPowerByIndex                                 obj/main/BETAFLIGHTF3/io/vtx_smartaudio.o (symbol from plugin)
saStat                                            C:\cygwin64\tmp\ccTUqUH8.ltrans6.ltrans.o
                                                  obj/main/BETAFLIGHTF3/io/vtx_smartaudio.o (symbol from plugin)
                                                  C:\cygwin64\tmp\ccTUqUH8.ltrans2.ltrans.o
                                                  C:\cygwin64\tmp\ccTUqUH8.ltrans1.ltrans.o
                                                  obj/main/BETAFLIGHTF3/cms/cms_menu_vtx_smartaudio.o (symbol from plugin)
saUpdateStatusString                              C:\cygwin64\tmp\ccTUqUH8.ltrans1.ltrans.o
                                                  obj/main/BETAFLIGHTF3/cms/cms_menu_vtx_smartaudio.o (symbol from plugin)
                                                  C:\cygwin64\tmp\ccTUqUH8.ltrans2.ltrans.o
                                                  obj/main/BETAFLIGHTF3/io/vtx_smartaudio.o (symbol from plugin)
sa_lastTransmissionMs.lto_priv.303                C:\cygwin64\tmp\ccTUqUH8.ltrans6.ltrans.o
                                                  C:\cygwin64\tmp\ccTUqUH8.ltrans2.ltrans.o
sa_osbuf.lto_priv.304                             C:\cygwin64\tmp\ccTUqUH8.ltrans6.ltrans.o
                                                  C:\cygwin64\tmp\ccTUqUH8.ltrans2.ltrans.o
sa_smartbaud                                      C:\cygwin64\tmp\ccTUqUH8.ltrans2.ltrans.o
                                                  obj/main/BETAFLIGHTF3/io/vtx_smartaudio.o (symbol from plugin)
                                                  C:\cygwin64\tmp\ccTUqUH8.ltrans1.ltrans.o
                                                  obj/main/BETAFLIGHTF3/cms/cms_menu_vtx_smartaudio.o (symbol from plugin)
saveConfigAndNotify                               C:\cygwin64\tmp\ccTUqUH8.ltrans0.ltrans.o
                                                  obj/main/BETAFLIGHTF3/fc/config.o (symbol from plugin)
                                                  C:\cygwin64\tmp\ccTUqUH8.ltrans6.ltrans.o
                                                  C:\cygwin64\tmp\ccTUqUH8.ltrans4.ltrans.o
                                                  C:\cygwin64\tmp\ccTUqUH8.ltrans2.ltrans.o
                                                  C:\cygwin64\tmp\ccTUqUH8.ltrans1.ltrans.o
                                                  obj/main/BETAFLIGHTF3/io/vtx.o (symbol from plugin)
                                                  obj/main/BETAFLIGHTF3/cms/cms_menu_vtx_tramp.o (symbol from plugin)
                                                  obj/main/BETAFLIGHTF3/cms/cms_menu_vtx_smartaudio.o (symbol from plugin)
                                                  obj/main/BETAFLIGHTF3/cms/cms.o (symbol from plugin)
                                                  obj/main/BETAFLIGHTF3/sensors/acceleration.o (symbol from plugin)
                                                  obj/main/BETAFLIGHTF3/io/spektrum_vtx_control.o (symbol from plugin)
                                                  obj/main/BETAFLIGHTF3/rx/spektrum.o (symbol from plugin)
                                                  obj/main/BETAFLIGHTF3/fc/rc_controls.o (symbol from plugin)
                                                  obj/main/BETAFLIGHTF3/fc/fc_core.o (symbol from plugin)
sbufAdvance                                       obj/main/BETAFLIGHTF3/common/streambuf.o (symbol from plugin)
                                                  obj/main/BETAFLIGHTF3/telemetry/msp_shared.o (symbol from plugin)
                                                  obj/main/BETAFLIGHTF3/io/rcdevice.o (symbol from plugin)
sbufBytesRemaining                                obj/main/BETAFLIGHTF3/common/streambuf.o (symbol from plugin)
                                                  obj/main/BETAFLIGHTF3/telemetry/msp_shared.o (symbol from plugin)
                                                  obj/main/BETAFLIGHTF3/telemetry/srxl.o (symbol from plugin)
                                                  obj/main/BETAFLIGHTF3/telemetry/crsf.o (symbol from plugin)
                                                  obj/main/BETAFLIGHTF3/io/rcdevice.o (symbol from plugin)
                                                  obj/main/BETAFLIGHTF3/msp/msp_serial.o (symbol from plugin)
                                                  obj/main/BETAFLIGHTF3/interface/msp.o (symbol from plugin)
sbufConstPtr                                      obj/main/BETAFLIGHTF3/common/streambuf.o (symbol from plugin)
                                                  obj/main/BETAFLIGHTF3/io/rcdevice.o (symbol from plugin)
sbufFill                                          obj/main/BETAFLIGHTF3/common/streambuf.o (symbol from plugin)
sbufInit                                          obj/main/BETAFLIGHTF3/common/streambuf.o (symbol from plugin)
                                                  obj/main/BETAFLIGHTF3/telemetry/msp_shared.o (symbol from plugin)
sbufPtr                                           obj/main/BETAFLIGHTF3/common/streambuf.o (symbol from plugin)
                                                  obj/main/BETAFLIGHTF3/telemetry/srxl.o (symbol from plugin)
                                                  obj/main/BETAFLIGHTF3/telemetry/crsf.o (symbol from plugin)
                                                  obj/main/BETAFLIGHTF3/io/rcdevice.o (symbol from plugin)
                                                  obj/main/BETAFLIGHTF3/msp/msp_serial.o (symbol from plugin)
                                                  obj/main/BETAFLIGHTF3/common/crc.o (symbol from plugin)
sbufReadData                                      obj/main/BETAFLIGHTF3/common/streambuf.o (symbol from plugin)
                                                  obj/main/BETAFLIGHTF3/telemetry/msp_shared.o (symbol from plugin)
sbufReadU16                                       C:\cygwin64\tmp\ccTUqUH8.ltrans5.ltrans.o
                                                  obj/main/BETAFLIGHTF3/common/streambuf.o (symbol from plugin)
                                                  C:\cygwin64\tmp\ccTUqUH8.ltrans4.ltrans.o
                                                  C:\cygwin64\tmp\ccTUqUH8.ltrans0.ltrans.o
                                                  obj/main/BETAFLIGHTF3/io/rcdevice.o (symbol from plugin)
                                                  obj/main/BETAFLIGHTF3/interface/msp.o (symbol from plugin)
sbufReadU32                                       C:\cygwin64\tmp\ccTUqUH8.ltrans5.ltrans.o
                                                  obj/main/BETAFLIGHTF3/common/streambuf.o (symbol from plugin)
                                                  C:\cygwin64\tmp\ccTUqUH8.ltrans4.ltrans.o
                                                  obj/main/BETAFLIGHTF3/io/rcdevice.o (symbol from plugin)
                                                  obj/main/BETAFLIGHTF3/interface/msp.o (symbol from plugin)
sbufReadU8                                        C:\cygwin64\tmp\ccTUqUH8.ltrans5.ltrans.o
                                                  obj/main/BETAFLIGHTF3/common/streambuf.o (symbol from plugin)
                                                  C:\cygwin64\tmp\ccTUqUH8.ltrans4.ltrans.o
                                                  C:\cygwin64\tmp\ccTUqUH8.ltrans0.ltrans.o
                                                  obj/main/BETAFLIGHTF3/telemetry/msp_shared.o (symbol from plugin)
                                                  obj/main/BETAFLIGHTF3/telemetry/crsf.o (symbol from plugin)
                                                  obj/main/BETAFLIGHTF3/io/rcdevice.o (symbol from plugin)
                                                  obj/main/BETAFLIGHTF3/interface/msp.o (symbol from plugin)
sbufSwitchToReader                                obj/main/BETAFLIGHTF3/common/streambuf.o (symbol from plugin)
                                                  obj/main/BETAFLIGHTF3/telemetry/msp_shared.o (symbol from plugin)
                                                  obj/main/BETAFLIGHTF3/telemetry/srxl.o (symbol from plugin)
                                                  obj/main/BETAFLIGHTF3/telemetry/crsf.o (symbol from plugin)
                                                  obj/main/BETAFLIGHTF3/io/rcdevice.o (symbol from plugin)
                                                  obj/main/BETAFLIGHTF3/msp/msp_serial.o (symbol from plugin)
sbufWriteData                                     C:\cygwin64\tmp\ccTUqUH8.ltrans5.ltrans.o
                                                  obj/main/BETAFLIGHTF3/common/streambuf.o (symbol from plugin)
                                                  C:\cygwin64\tmp\ccTUqUH8.ltrans4.ltrans.o
                                                  C:\cygwin64\tmp\ccTUqUH8.ltrans2.ltrans.o
                                                  C:\cygwin64\tmp\ccTUqUH8.ltrans0.ltrans.o
                                                  obj/main/BETAFLIGHTF3/telemetry/msp_shared.o (symbol from plugin)
                                                  obj/main/BETAFLIGHTF3/telemetry/srxl.o (symbol from plugin)
                                                  obj/main/BETAFLIGHTF3/telemetry/crsf.o (symbol from plugin)
                                                  obj/main/BETAFLIGHTF3/io/rcdevice.o (symbol from plugin)
                                                  obj/main/BETAFLIGHTF3/interface/msp.o (symbol from plugin)
sbufWriteString                                   obj/main/BETAFLIGHTF3/common/streambuf.o (symbol from plugin)
                                                  obj/main/BETAFLIGHTF3/telemetry/crsf.o (symbol from plugin)
                                                  obj/main/BETAFLIGHTF3/interface/msp_box.o (symbol from plugin)
sbufWriteStringWithZeroTerminator                 obj/main/BETAFLIGHTF3/common/streambuf.o (symbol from plugin)
                                                  obj/main/BETAFLIGHTF3/telemetry/crsf.o (symbol from plugin)
sbufWriteU16                                      C:\cygwin64\tmp\ccTUqUH8.ltrans5.ltrans.o
                                                  obj/main/BETAFLIGHTF3/common/streambuf.o (symbol from plugin)
                                                  C:\cygwin64\tmp\ccTUqUH8.ltrans4.ltrans.o
                                                  C:\cygwin64\tmp\ccTUqUH8.ltrans2.ltrans.o
                                                  C:\cygwin64\tmp\ccTUqUH8.ltrans0.ltrans.o
                                                  obj/main/BETAFLIGHTF3/telemetry/srxl.o (symbol from plugin)
                                                  obj/main/BETAFLIGHTF3/interface/msp.o (symbol from plugin)
                                                  obj/main/BETAFLIGHTF3/common/crc.o (symbol from plugin)
sbufWriteU16BigEndian                             C:\cygwin64\tmp\ccTUqUH8.ltrans5.ltrans.o
                                                  obj/main/BETAFLIGHTF3/common/streambuf.o (symbol from plugin)
                                                  C:\cygwin64\tmp\ccTUqUH8.ltrans2.ltrans.o
                                                  C:\cygwin64\tmp\ccTUqUH8.ltrans0.ltrans.o
                                                  obj/main/BETAFLIGHTF3/telemetry/srxl.o (symbol from plugin)
                                                  obj/main/BETAFLIGHTF3/telemetry/crsf.o (symbol from plugin)
sbufWriteU32                                      C:\cygwin64\tmp\ccTUqUH8.ltrans5.ltrans.o
                                                  obj/main/BETAFLIGHTF3/common/streambuf.o (symbol from plugin)
                                                  C:\cygwin64\tmp\ccTUqUH8.ltrans4.ltrans.o
                                                  C:\cygwin64\tmp\ccTUqUH8.ltrans0.ltrans.o
                                                  obj/main/BETAFLIGHTF3/interface/msp.o (symbol from plugin)
sbufWriteU32BigEndian                             obj/main/BETAFLIGHTF3/common/streambuf.o (symbol from plugin)
                                                  obj/main/BETAFLIGHTF3/telemetry/crsf.o (symbol from plugin)
sbufWriteU8                                       obj/main/BETAFLIGHTF3/common/streambuf.o (symbol from plugin)
                                                  obj/main/BETAFLIGHTF3/telemetry/msp_shared.o (symbol from plugin)
                                                  obj/main/BETAFLIGHTF3/telemetry/srxl.o (symbol from plugin)
                                                  obj/main/BETAFLIGHTF3/telemetry/crsf.o (symbol from plugin)
                                                  obj/main/BETAFLIGHTF3/io/rcdevice.o (symbol from plugin)
                                                  obj/main/BETAFLIGHTF3/interface/msp_box.o (symbol from plugin)
                                                  obj/main/BETAFLIGHTF3/interface/msp.o (symbol from plugin)
                                                  obj/main/BETAFLIGHTF3/common/crc.o (symbol from plugin)
sbusChannelsDecode                                obj/main/BETAFLIGHTF3/rx/sbus_channels.o (symbol from plugin)
                                                  obj/main/BETAFLIGHTF3/rx/fport.o (symbol from plugin)
                                                  obj/main/BETAFLIGHTF3/rx/sbus.o (symbol from plugin)
sbusChannelsInit                                  obj/main/BETAFLIGHTF3/rx/sbus_channels.o (symbol from plugin)
                                                  obj/main/BETAFLIGHTF3/rx/fport.o (symbol from plugin)
                                                  obj/main/BETAFLIGHTF3/rx/sbus.o (symbol from plugin)
sbusInit                                          obj/main/BETAFLIGHTF3/rx/sbus.o (symbol from plugin)
                                                  obj/main/BETAFLIGHTF3/rx/rx.o (symbol from plugin)
scaleLedValue                                     obj/main/BETAFLIGHTF3/drivers/light_ws2811strip.o (symbol from plugin)
scaleRange                                        obj/main/BETAFLIGHTF3/common/maths.o (symbol from plugin)
                                                  obj/main/BETAFLIGHTF3/io/ledstrip.o (symbol from plugin)
                                                  obj/main/BETAFLIGHTF3/rx/fport.o (symbol from plugin)
                                                  obj/main/BETAFLIGHTF3/rx/rx.o (symbol from plugin)
                                                  obj/main/BETAFLIGHTF3/flight/servos.o (symbol from plugin)
                                                  obj/main/BETAFLIGHTF3/flight/mixer.o (symbol from plugin)
                                                  obj/main/BETAFLIGHTF3/io/osd.o (symbol from plugin)
scheduler                                         C:\cygwin64\tmp\ccTUqUH8.ltrans4.ltrans.o
                                                  obj/main/BETAFLIGHTF3/scheduler/scheduler.o (symbol from plugin)
                                                  C:\cygwin64\tmp\ccTUqUH8.ltrans5.ltrans.o
                                                  obj/main/BETAFLIGHTF3/main.o (symbol from plugin)
schedulerInit                                     obj/main/BETAFLIGHTF3/scheduler/scheduler.o (symbol from plugin)
                                                  obj/main/BETAFLIGHTF3/fc/fc_tasks.o (symbol from plugin)
schedulerResetTaskStatistics                      obj/main/BETAFLIGHTF3/scheduler/scheduler.o (symbol from plugin)
                                                  obj/main/BETAFLIGHTF3/sensors/gyro.o (symbol from plugin)
schedulerSetCalulateTaskStatistics                obj/main/BETAFLIGHTF3/scheduler/scheduler.o (symbol from plugin)
                                                  obj/main/BETAFLIGHTF3/interface/cli.o (symbol from plugin)
screenBuffer.lto_priv.690                         C:\cygwin64\tmp\ccTUqUH8.ltrans2.ltrans.o
                                                  C:\cygwin64\tmp\ccTUqUH8.ltrans5.ltrans.o
screenSize.lto_priv.282                           C:\cygwin64\tmp\ccTUqUH8.ltrans2.ltrans.o
                                                  C:\cygwin64\tmp\ccTUqUH8.ltrans6.ltrans.o
screenSize.lto_priv.518                           C:\cygwin64\tmp\ccTUqUH8.ltrans2.ltrans.o
                                                  C:\cygwin64\tmp\ccTUqUH8.ltrans4.ltrans.o
sdcard.lto_priv.300                               C:\cygwin64\tmp\ccTUqUH8.ltrans6.ltrans.o
                                                  C:\cygwin64\tmp\ccTUqUH8.ltrans5.ltrans.o
                                                  C:\cygwin64\tmp\ccTUqUH8.ltrans4.ltrans.o
                                                  C:\cygwin64\tmp\ccTUqUH8.ltrans3.ltrans.o
                                                  C:\cygwin64\tmp\ccTUqUH8.ltrans2.ltrans.o
                                                  C:\cygwin64\tmp\ccTUqUH8.ltrans1.ltrans.o
                                                  C:\cygwin64\tmp\ccTUqUH8.ltrans0.ltrans.o
sdcardConfig_Copy                                 obj/main/BETAFLIGHTF3/pg/sdcard.o (symbol from plugin)
sdcardConfig_Registry                             C:\cygwin64\tmp\ccTUqUH8.ltrans6.ltrans.o
                                                  obj/main/BETAFLIGHTF3/pg/sdcard.o (symbol from plugin)
sdcardConfig_System                               C:\cygwin64\tmp\ccTUqUH8.ltrans6.ltrans.o
                                                  obj/main/BETAFLIGHTF3/pg/sdcard.o (symbol from plugin)
                                                  C:\cygwin64\tmp\ccTUqUH8.ltrans4.ltrans.o
                                                  obj/main/BETAFLIGHTF3/fc/fc_init.o (symbol from plugin)
sdcardInsertionDetectDeinit                       obj/main/BETAFLIGHTF3/drivers/sdcard.o (symbol from plugin)
sdcardInsertionDetectInit                         obj/main/BETAFLIGHTF3/drivers/sdcard.o (symbol from plugin)
                                                  obj/main/BETAFLIGHTF3/fc/fc_init.o (symbol from plugin)
sdcard_beginWriteBlocks                           obj/main/BETAFLIGHTF3/drivers/sdcard.o (symbol from plugin)
                                                  obj/main/BETAFLIGHTF3/io/asyncfatfs/asyncfatfs.o (symbol from plugin)
sdcard_getMetadata                                obj/main/BETAFLIGHTF3/drivers/sdcard.o (symbol from plugin)
                                                  obj/main/BETAFLIGHTF3/cms/cms_menu_blackbox.o (symbol from plugin)
                                                  obj/main/BETAFLIGHTF3/interface/cli.o (symbol from plugin)
                                                  obj/main/BETAFLIGHTF3/interface/msp.o (symbol from plugin)
                                                  obj/main/BETAFLIGHTF3/io/osd.o (symbol from plugin)
sdcard_init                                       obj/main/BETAFLIGHTF3/drivers/sdcard.o (symbol from plugin)
                                                  obj/main/BETAFLIGHTF3/fc/fc_init.o (symbol from plugin)
sdcard_init.constprop.162                         C:\cygwin64\tmp\ccTUqUH8.ltrans6.ltrans.o
                                                  C:\cygwin64\tmp\ccTUqUH8.ltrans4.ltrans.o
sdcard_isFunctional                               obj/main/BETAFLIGHTF3/drivers/sdcard.o (symbol from plugin)
                                                  obj/main/BETAFLIGHTF3/cms/cms_menu_blackbox.o (symbol from plugin)
                                                  obj/main/BETAFLIGHTF3/interface/msp.o (symbol from plugin)
                                                  obj/main/BETAFLIGHTF3/io/osd.o (symbol from plugin)
sdcard_isInitialized                              obj/main/BETAFLIGHTF3/drivers/sdcard.o (symbol from plugin)
                                                  obj/main/BETAFLIGHTF3/interface/cli.o (symbol from plugin)
                                                  obj/main/BETAFLIGHTF3/interface/msp.o (symbol from plugin)
sdcard_isInserted                                 C:\cygwin64\tmp\ccTUqUH8.ltrans2.ltrans.o
                                                  obj/main/BETAFLIGHTF3/drivers/sdcard.o (symbol from plugin)
                                                  C:\cygwin64\tmp\ccTUqUH8.ltrans5.ltrans.o
                                                  C:\cygwin64\tmp\ccTUqUH8.ltrans3.ltrans.o
                                                  C:\cygwin64\tmp\ccTUqUH8.ltrans1.ltrans.o
                                                  C:\cygwin64\tmp\ccTUqUH8.ltrans0.ltrans.o
                                                  obj/main/BETAFLIGHTF3/cms/cms_menu_blackbox.o (symbol from plugin)
                                                  obj/main/BETAFLIGHTF3/interface/cli.o (symbol from plugin)
                                                  obj/main/BETAFLIGHTF3/interface/msp.o (symbol from plugin)
                                                  obj/main/BETAFLIGHTF3/io/osd.o (symbol from plugin)
sdcard_poll                                       obj/main/BETAFLIGHTF3/drivers/sdcard.o (symbol from plugin)
                                                  obj/main/BETAFLIGHTF3/io/asyncfatfs/asyncfatfs.o (symbol from plugin)
sdcard_poll.part.5                                C:\cygwin64\tmp\ccTUqUH8.ltrans2.ltrans.o
                                                  C:\cygwin64\tmp\ccTUqUH8.ltrans3.ltrans.o
sdcard_readBlock                                  obj/main/BETAFLIGHTF3/drivers/sdcard.o (symbol from plugin)
                                                  obj/main/BETAFLIGHTF3/io/asyncfatfs/asyncfatfs.o (symbol from plugin)
sdcard_writeBlock                                 obj/main/BETAFLIGHTF3/drivers/sdcard.o (symbol from plugin)
                                                  obj/main/BETAFLIGHTF3/io/asyncfatfs/asyncfatfs.o (symbol from plugin)
sectionTimes                                      obj/main/BETAFLIGHTF3/build/debug.o (symbol from plugin)
selected_esc                                      obj/main/BETAFLIGHTF3/io/serial_4way.o (symbol from plugin)
                                                  obj/main/BETAFLIGHTF3/io/serial_4way_stk500v2.o (symbol from plugin)
                                                  obj/main/BETAFLIGHTF3/io/serial_4way_avrootloader.o (symbol from plugin)
sendLength                                        obj/main/BETAFLIGHTF3/vcp/hw_config.o (symbol from plugin)
sendMspErrorResponse                              obj/main/BETAFLIGHTF3/telemetry/msp_shared.o (symbol from plugin)
sendMspReply                                      C:\cygwin64\tmp\ccTUqUH8.ltrans2.ltrans.o
                                                  obj/main/BETAFLIGHTF3/telemetry/msp_shared.o (symbol from plugin)
                                                  C:\cygwin64\tmp\ccTUqUH8.ltrans0.ltrans.o
                                                  obj/main/BETAFLIGHTF3/telemetry/smartport.o (symbol from plugin)
                                                  obj/main/BETAFLIGHTF3/telemetry/crsf.o (symbol from plugin)
sensors                                           obj/main/BETAFLIGHTF3/fc/runtime_config.o (symbol from plugin)
                                                  obj/main/BETAFLIGHTF3/telemetry/smartport.o (symbol from plugin)
                                                  obj/main/BETAFLIGHTF3/telemetry/frsky_hub.o (symbol from plugin)
                                                  obj/main/BETAFLIGHTF3/telemetry/crsf.o (symbol from plugin)
                                                  obj/main/BETAFLIGHTF3/blackbox/blackbox.o (symbol from plugin)
                                                  obj/main/BETAFLIGHTF3/flight/pid.o (symbol from plugin)
                                                  obj/main/BETAFLIGHTF3/flight/imu.o (symbol from plugin)
                                                  obj/main/BETAFLIGHTF3/fc/fc_core.o (symbol from plugin)
                                                  obj/main/BETAFLIGHTF3/interface/msp_box.o (symbol from plugin)
                                                  obj/main/BETAFLIGHTF3/interface/msp.o (symbol from plugin)
                                                  obj/main/BETAFLIGHTF3/fc/fc_tasks.o (symbol from plugin)
                                                  obj/main/BETAFLIGHTF3/io/osd.o (symbol from plugin)
sensorsAutodetect                                 obj/main/BETAFLIGHTF3/sensors/initialisation.o (symbol from plugin)
                                                  obj/main/BETAFLIGHTF3/fc/fc_init.o (symbol from plugin)
sensorsClear                                      obj/main/BETAFLIGHTF3/fc/runtime_config.o (symbol from plugin)
sensorsMask                                       obj/main/BETAFLIGHTF3/fc/runtime_config.o (symbol from plugin)
sensorsSet                                        obj/main/BETAFLIGHTF3/fc/runtime_config.o (symbol from plugin)
                                                  obj/main/BETAFLIGHTF3/sensors/gyro.o (symbol from plugin)
                                                  obj/main/BETAFLIGHTF3/sensors/acceleration.o (symbol from plugin)
serialBeginWrite                                  C:\cygwin64\tmp\ccTUqUH8.ltrans5.ltrans.o
                                                  obj/main/BETAFLIGHTF3/drivers/serial.o (symbol from plugin)
                                                  C:\cygwin64\tmp\ccTUqUH8.ltrans4.ltrans.o
                                                  C:\cygwin64\tmp\ccTUqUH8.ltrans1.ltrans.o
                                                  obj/main/BETAFLIGHTF3/io/serial_4way.o (symbol from plugin)
                                                  obj/main/BETAFLIGHTF3/msp/msp_serial.o (symbol from plugin)
serialConfig_Copy                                 C:\cygwin64\tmp\ccTUqUH8.ltrans6.ltrans.o
                                                  obj/main/BETAFLIGHTF3/io/serial.o (symbol from plugin)
                                                  C:\cygwin64\tmp\ccTUqUH8.ltrans3.ltrans.o
                                                  obj/main/BETAFLIGHTF3/interface/cli.o (symbol from plugin)
serialConfig_Registry                             C:\cygwin64\tmp\ccTUqUH8.ltrans6.ltrans.o
                                                  obj/main/BETAFLIGHTF3/io/serial.o (symbol from plugin)
serialConfig_System                               C:\cygwin64\tmp\ccTUqUH8.ltrans6.ltrans.o
                                                  obj/main/BETAFLIGHTF3/io/serial.o (symbol from plugin)
                                                  C:\cygwin64\tmp\ccTUqUH8.ltrans4.ltrans.o
                                                  C:\cygwin64\tmp\ccTUqUH8.ltrans3.ltrans.o
                                                  C:\cygwin64\tmp\ccTUqUH8.ltrans0.ltrans.o
                                                  obj/main/BETAFLIGHTF3/interface/cli.o (symbol from plugin)
                                                  obj/main/BETAFLIGHTF3/fc/fc_init.o (symbol from plugin)
                                                  obj/main/BETAFLIGHTF3/msp/msp_serial.o (symbol from plugin)
                                                  obj/main/BETAFLIGHTF3/interface/msp.o (symbol from plugin)
                                                  obj/main/BETAFLIGHTF3/fc/fc_tasks.o (symbol from plugin)
                                                  obj/main/BETAFLIGHTF3/fc/config.o (symbol from plugin)
serialEndWrite                                    C:\cygwin64\tmp\ccTUqUH8.ltrans5.ltrans.o
                                                  obj/main/BETAFLIGHTF3/drivers/serial.o (symbol from plugin)
                                                  C:\cygwin64\tmp\ccTUqUH8.ltrans4.ltrans.o
                                                  C:\cygwin64\tmp\ccTUqUH8.ltrans1.ltrans.o
                                                  obj/main/BETAFLIGHTF3/io/serial_4way.o (symbol from plugin)
                                                  obj/main/BETAFLIGHTF3/msp/msp_serial.o (symbol from plugin)
serialFindPortConfiguration                       obj/main/BETAFLIGHTF3/io/serial.o (symbol from plugin)
                                                  obj/main/BETAFLIGHTF3/interface/cli.o (symbol from plugin)
                                                  obj/main/BETAFLIGHTF3/interface/msp.o (symbol from plugin)
serialGetAvailablePortCount                       obj/main/BETAFLIGHTF3/io/serial.o (symbol from plugin)
serialGetBaudRate                                 obj/main/BETAFLIGHTF3/drivers/serial.o (symbol from plugin)
serialInit                                        obj/main/BETAFLIGHTF3/io/serial.o (symbol from plugin)
                                                  obj/main/BETAFLIGHTF3/fc/fc_init.o (symbol from plugin)
serialInit.constprop.124                          C:\cygwin64\tmp\ccTUqUH8.ltrans6.ltrans.o
                                                  C:\cygwin64\tmp\ccTUqUH8.ltrans4.ltrans.o
serialIsPortAvailable                             obj/main/BETAFLIGHTF3/io/serial.o (symbol from plugin)
                                                  obj/main/BETAFLIGHTF3/interface/cli.o (symbol from plugin)
                                                  obj/main/BETAFLIGHTF3/interface/msp.o (symbol from plugin)
serialPassthrough                                 obj/main/BETAFLIGHTF3/io/serial.o (symbol from plugin)
                                                  obj/main/BETAFLIGHTF3/interface/cli.o (symbol from plugin)
serialPassthrough.constprop.77                    C:\cygwin64\tmp\ccTUqUH8.ltrans6.ltrans.o
                                                  C:\cygwin64\tmp\ccTUqUH8.ltrans3.ltrans.o
serialPinConfig_Copy                              obj/main/BETAFLIGHTF3/drivers/serial_pinconfig.o (symbol from plugin)
serialPinConfig_Registry                          C:\cygwin64\tmp\ccTUqUH8.ltrans6.ltrans.o
                                                  obj/main/BETAFLIGHTF3/drivers/serial_pinconfig.o (symbol from plugin)
serialPinConfig_System                            C:\cygwin64\tmp\ccTUqUH8.ltrans6.ltrans.o
                                                  obj/main/BETAFLIGHTF3/drivers/serial_pinconfig.o (symbol from plugin)
                                                  C:\cygwin64\tmp\ccTUqUH8.ltrans4.ltrans.o
                                                  obj/main/BETAFLIGHTF3/rx/spektrum.o (symbol from plugin)
                                                  obj/main/BETAFLIGHTF3/drivers/serial_softserial.o (symbol from plugin)
                                                  obj/main/BETAFLIGHTF3/fc/fc_init.o (symbol from plugin)
                                                  obj/main/BETAFLIGHTF3/io/serial.o (symbol from plugin)
serialPort.lto_priv.315                           C:\cygwin64\tmp\ccTUqUH8.ltrans2.ltrans.o
                                                  C:\cygwin64\tmp\ccTUqUH8.ltrans1.ltrans.o
                                                  C:\cygwin64\tmp\ccTUqUH8.ltrans0.ltrans.o
serialPort.lto_priv.316                           C:\cygwin64\tmp\ccTUqUH8.ltrans2.ltrans.o
                                                  C:\cygwin64\tmp\ccTUqUH8.ltrans1.ltrans.o
serialPortIdentifiers                             C:\cygwin64\tmp\ccTUqUH8.ltrans6.ltrans.o
                                                  obj/main/BETAFLIGHTF3/io/serial.o (symbol from plugin)
serialPortUsageList.lto_priv.417                  C:\cygwin64\tmp\ccTUqUH8.ltrans6.ltrans.o
                                                  C:\cygwin64\tmp\ccTUqUH8.ltrans4.ltrans.o
                                                  C:\cygwin64\tmp\ccTUqUH8.ltrans3.ltrans.o
                                                  C:\cygwin64\tmp\ccTUqUH8.ltrans0.ltrans.o
serialPrint                                       obj/main/BETAFLIGHTF3/drivers/serial.o (symbol from plugin)
serialRead                                        C:\cygwin64\tmp\ccTUqUH8.ltrans5.ltrans.o
                                                  obj/main/BETAFLIGHTF3/drivers/serial.o (symbol from plugin)
                                                  C:\cygwin64\tmp\ccTUqUH8.ltrans3.ltrans.o
                                                  C:\cygwin64\tmp\ccTUqUH8.ltrans2.ltrans.o
                                                  C:\cygwin64\tmp\ccTUqUH8.ltrans0.ltrans.o
                                                  obj/main/BETAFLIGHTF3/io/vtx_tramp.o (symbol from plugin)
                                                  obj/main/BETAFLIGHTF3/io/vtx_smartaudio.o (symbol from plugin)
                                                  obj/main/BETAFLIGHTF3/telemetry/smartport.o (symbol from plugin)
                                                  obj/main/BETAFLIGHTF3/telemetry/hott.o (symbol from plugin)
                                                  obj/main/BETAFLIGHTF3/io/rcdevice.o (symbol from plugin)
                                                  obj/main/BETAFLIGHTF3/drivers/serial_escserial.o (symbol from plugin)
                                                  obj/main/BETAFLIGHTF3/io/serial_4way.o (symbol from plugin)
                                                  obj/main/BETAFLIGHTF3/interface/cli.o (symbol from plugin)
                                                  obj/main/BETAFLIGHTF3/msp/msp_serial.o (symbol from plugin)
                                                  obj/main/BETAFLIGHTF3/io/serial.o (symbol from plugin)
serialRemovePort                                  obj/main/BETAFLIGHTF3/io/serial.o (symbol from plugin)
serialRxBytesWaiting                              C:\cygwin64\tmp\ccTUqUH8.ltrans5.ltrans.o
                                                  obj/main/BETAFLIGHTF3/drivers/serial.o (symbol from plugin)
                                                  C:\cygwin64\tmp\ccTUqUH8.ltrans3.ltrans.o
                                                  C:\cygwin64\tmp\ccTUqUH8.ltrans2.ltrans.o
                                                  C:\cygwin64\tmp\ccTUqUH8.ltrans0.ltrans.o
                                                  obj/main/BETAFLIGHTF3/io/vtx_tramp.o (symbol from plugin)
                                                  obj/main/BETAFLIGHTF3/io/vtx_smartaudio.o (symbol from plugin)
                                                  obj/main/BETAFLIGHTF3/telemetry/smartport.o (symbol from plugin)
                                                  obj/main/BETAFLIGHTF3/telemetry/jetiexbus.o (symbol from plugin)
                                                  obj/main/BETAFLIGHTF3/telemetry/hott.o (symbol from plugin)
                                                  obj/main/BETAFLIGHTF3/io/rcdevice.o (symbol from plugin)
                                                  obj/main/BETAFLIGHTF3/drivers/serial_escserial.o (symbol from plugin)
                                                  obj/main/BETAFLIGHTF3/io/serial_4way.o (symbol from plugin)
                                                  obj/main/BETAFLIGHTF3/interface/cli.o (symbol from plugin)
                                                  obj/main/BETAFLIGHTF3/msp/msp_serial.o (symbol from plugin)
                                                  obj/main/BETAFLIGHTF3/io/serial.o (symbol from plugin)
serialRxInit                                      obj/main/BETAFLIGHTF3/rx/rx.o (symbol from plugin)
serialSetBaudRate                                 obj/main/BETAFLIGHTF3/drivers/serial.o (symbol from plugin)
serialSetMode                                     C:\cygwin64\tmp\ccTUqUH8.ltrans5.ltrans.o
                                                  obj/main/BETAFLIGHTF3/drivers/serial.o (symbol from plugin)
                                                  C:\cygwin64\tmp\ccTUqUH8.ltrans3.ltrans.o
                                                  C:\cygwin64\tmp\ccTUqUH8.ltrans2.ltrans.o
                                                  C:\cygwin64\tmp\ccTUqUH8.ltrans0.ltrans.o
                                                  obj/main/BETAFLIGHTF3/telemetry/jetiexbus.o (symbol from plugin)
                                                  obj/main/BETAFLIGHTF3/telemetry/hott.o (symbol from plugin)
                                                  obj/main/BETAFLIGHTF3/rx/jetiexbus.o (symbol from plugin)
                                                  obj/main/BETAFLIGHTF3/interface/cli.o (symbol from plugin)
serialTimerRxConfigBL.constprop.83                C:\cygwin64\tmp\ccTUqUH8.ltrans6.ltrans.o
                                                  C:\cygwin64\tmp\ccTUqUH8.ltrans2.ltrans.o
serialTimerTxConfigBL.constprop.82                C:\cygwin64\tmp\ccTUqUH8.ltrans6.ltrans.o
                                                  C:\cygwin64\tmp\ccTUqUH8.ltrans2.ltrans.o
serialTxBytesFree                                 C:\cygwin64\tmp\ccTUqUH8.ltrans5.ltrans.o
                                                  obj/main/BETAFLIGHTF3/drivers/serial.o (symbol from plugin)
                                                  C:\cygwin64\tmp\ccTUqUH8.ltrans2.ltrans.o
                                                  C:\cygwin64\tmp\ccTUqUH8.ltrans1.ltrans.o
                                                  obj/main/BETAFLIGHTF3/blackbox/blackbox_io.o (symbol from plugin)
                                                  obj/main/BETAFLIGHTF3/io/serial_4way.o (symbol from plugin)
                                                  obj/main/BETAFLIGHTF3/msp/msp_serial.o (symbol from plugin)
serialUART                                        C:\cygwin64\tmp\ccTUqUH8.ltrans5.ltrans.o
                                                  obj/main/BETAFLIGHTF3/drivers/serial_uart_stm32f30x.o (symbol from plugin)
                                                  C:\cygwin64\tmp\ccTUqUH8.ltrans4.ltrans.o
                                                  obj/main/BETAFLIGHTF3/drivers/serial_uart_init.o (symbol from plugin)
serialUARTInitIO                                  obj/main/BETAFLIGHTF3/drivers/serial_uart_stm32f30x.o (symbol from plugin)
serialWrite                                       C:\cygwin64\tmp\ccTUqUH8.ltrans5.ltrans.o
                                                  obj/main/BETAFLIGHTF3/drivers/serial.o (symbol from plugin)
                                                  C:\cygwin64\tmp\ccTUqUH8.ltrans6.ltrans.o
                                                  C:\cygwin64\tmp\ccTUqUH8.ltrans3.ltrans.o
                                                  C:\cygwin64\tmp\ccTUqUH8.ltrans2.ltrans.o
                                                  C:\cygwin64\tmp\ccTUqUH8.ltrans1.ltrans.o
                                                  C:\cygwin64\tmp\ccTUqUH8.ltrans0.ltrans.o
                                                  obj/main/BETAFLIGHTF3/io/vtx_smartaudio.o (symbol from plugin)
                                                  obj/main/BETAFLIGHTF3/telemetry/ltm.o (symbol from plugin)
                                                  obj/main/BETAFLIGHTF3/telemetry/smartport.o (symbol from plugin)
                                                  obj/main/BETAFLIGHTF3/telemetry/jetiexbus.o (symbol from plugin)
                                                  obj/main/BETAFLIGHTF3/telemetry/hott.o (symbol from plugin)
                                                  obj/main/BETAFLIGHTF3/telemetry/frsky_hub.o (symbol from plugin)
                                                  obj/main/BETAFLIGHTF3/drivers/serial_escserial.o (symbol from plugin)
                                                  obj/main/BETAFLIGHTF3/blackbox/blackbox_io.o (symbol from plugin)
                                                  obj/main/BETAFLIGHTF3/io/serial_4way.o (symbol from plugin)
                                                  obj/main/BETAFLIGHTF3/io/serial.o (symbol from plugin)
                                                  obj/main/BETAFLIGHTF3/common/printf.o (symbol from plugin)
serialWriteBuf                                    C:\cygwin64\tmp\ccTUqUH8.ltrans5.ltrans.o
                                                  obj/main/BETAFLIGHTF3/drivers/serial.o (symbol from plugin)
                                                  C:\cygwin64\tmp\ccTUqUH8.ltrans4.ltrans.o
                                                  C:\cygwin64\tmp\ccTUqUH8.ltrans2.ltrans.o
                                                  C:\cygwin64\tmp\ccTUqUH8.ltrans0.ltrans.o
                                                  obj/main/BETAFLIGHTF3/io/vtx_tramp.o (symbol from plugin)
                                                  obj/main/BETAFLIGHTF3/io/rcdevice.o (symbol from plugin)
                                                  obj/main/BETAFLIGHTF3/rx/spektrum.o (symbol from plugin)
                                                  obj/main/BETAFLIGHTF3/rx/crsf.o (symbol from plugin)
                                                  obj/main/BETAFLIGHTF3/msp/msp_serial.o (symbol from plugin)
serialWriteBuf.part.0                             C:\cygwin64\tmp\ccTUqUH8.ltrans5.ltrans.o
                                                  C:\cygwin64\tmp\ccTUqUH8.ltrans2.ltrans.o
serialWriteBufShim                                C:\cygwin64\tmp\ccTUqUH8.ltrans5.ltrans.o
                                                  obj/main/BETAFLIGHTF3/drivers/serial.o (symbol from plugin)
                                                  C:\cygwin64\tmp\ccTUqUH8.ltrans0.ltrans.o
                                                  obj/main/BETAFLIGHTF3/interface/cli.o (symbol from plugin)
serializeBoxNameFn                                obj/main/BETAFLIGHTF3/interface/msp_box.o (symbol from plugin)
                                                  obj/main/BETAFLIGHTF3/interface/msp.o (symbol from plugin)
serializeBoxPermanentIdFn                         obj/main/BETAFLIGHTF3/interface/msp_box.o (symbol from plugin)
                                                  obj/main/BETAFLIGHTF3/interface/msp.o (symbol from plugin)
serializeBoxReply                                 obj/main/BETAFLIGHTF3/interface/msp_box.o (symbol from plugin)
                                                  obj/main/BETAFLIGHTF3/interface/msp.o (symbol from plugin)
servo                                             C:\cygwin64\tmp\ccTUqUH8.ltrans1.ltrans.o
                                                  obj/main/BETAFLIGHTF3/flight/servos.o (symbol from plugin)
                                                  C:\cygwin64\tmp\ccTUqUH8.ltrans3.ltrans.o
                                                  C:\cygwin64\tmp\ccTUqUH8.ltrans0.ltrans.o
                                                  obj/main/BETAFLIGHTF3/blackbox/blackbox.o (symbol from plugin)
                                                  obj/main/BETAFLIGHTF3/interface/msp.o (symbol from plugin)
servoConfig_Copy                                  obj/main/BETAFLIGHTF3/flight/servos.o (symbol from plugin)
servoConfig_Registry                              C:\cygwin64\tmp\ccTUqUH8.ltrans6.ltrans.o
                                                  obj/main/BETAFLIGHTF3/flight/servos.o (symbol from plugin)
servoConfig_System                                C:\cygwin64\tmp\ccTUqUH8.ltrans6.ltrans.o
                                                  obj/main/BETAFLIGHTF3/flight/servos.o (symbol from plugin)
                                                  C:\cygwin64\tmp\ccTUqUH8.ltrans3.ltrans.o
                                                  obj/main/BETAFLIGHTF3/flight/servos_tricopter.o (symbol from plugin)
                                                  obj/main/BETAFLIGHTF3/fc/fc_core.o (symbol from plugin)
                                                  obj/main/BETAFLIGHTF3/fc/fc_init.o (symbol from plugin)
servoConfigureOutput                              C:\cygwin64\tmp\ccTUqUH8.ltrans3.ltrans.o
                                                  obj/main/BETAFLIGHTF3/flight/servos.o (symbol from plugin)
                                                  C:\cygwin64\tmp\ccTUqUH8.ltrans4.ltrans.o
                                                  obj/main/BETAFLIGHTF3/fc/fc_init.o (symbol from plugin)
servoDevInit                                      obj/main/BETAFLIGHTF3/drivers/pwm_output.o (symbol from plugin)
                                                  obj/main/BETAFLIGHTF3/fc/fc_init.o (symbol from plugin)
servoDevInit.constprop.143                        C:\cygwin64\tmp\ccTUqUH8.ltrans6.ltrans.o
                                                  C:\cygwin64\tmp\ccTUqUH8.ltrans4.ltrans.o
servoDirection                                    obj/main/BETAFLIGHTF3/flight/servos.o (symbol from plugin)
servoMixer                                        obj/main/BETAFLIGHTF3/flight/servos.o (symbol from plugin)
                                                  obj/main/BETAFLIGHTF3/flight/servos_tricopter.o (symbol from plugin)
servoMixerAirplane.lto_priv.667                   C:\cygwin64\tmp\ccTUqUH8.ltrans3.ltrans.o
servoMixerFlyingWing.lto_priv.666                 C:\cygwin64\tmp\ccTUqUH8.ltrans3.ltrans.o
servoMixerGimbal.lto_priv.665                     C:\cygwin64\tmp\ccTUqUH8.ltrans3.ltrans.o
servoMixerLoadMix                                 obj/main/BETAFLIGHTF3/flight/servos.o (symbol from plugin)
                                                  obj/main/BETAFLIGHTF3/interface/cli.o (symbol from plugin)
servoMixerTri.lto_priv.664                        C:\cygwin64\tmp\ccTUqUH8.ltrans3.ltrans.o
servoMixers                                       C:\cygwin64\tmp\ccTUqUH8.ltrans3.ltrans.o
                                                  obj/main/BETAFLIGHTF3/flight/servos.o (symbol from plugin)
                                                  C:\cygwin64\tmp\ccTUqUH8.ltrans0.ltrans.o
                                                  obj/main/BETAFLIGHTF3/fc/config.o (symbol from plugin)
servoParams_CopyArray                             obj/main/BETAFLIGHTF3/flight/servos.o (symbol from plugin)
                                                  obj/main/BETAFLIGHTF3/interface/cli.o (symbol from plugin)
servoParams_Registry                              C:\cygwin64\tmp\ccTUqUH8.ltrans3.ltrans.o
                                                  obj/main/BETAFLIGHTF3/flight/servos.o (symbol from plugin)
servoParams_SystemArray                           C:\cygwin64\tmp\ccTUqUH8.ltrans3.ltrans.o
                                                  obj/main/BETAFLIGHTF3/flight/servos.o (symbol from plugin)
                                                  C:\cygwin64\tmp\ccTUqUH8.ltrans4.ltrans.o
                                                  C:\cygwin64\tmp\ccTUqUH8.ltrans0.ltrans.o
                                                  obj/main/BETAFLIGHTF3/interface/cli.o (symbol from plugin)
                                                  obj/main/BETAFLIGHTF3/interface/msp.o (symbol from plugin)
servos.lto_priv.425                               C:\cygwin64\tmp\ccTUqUH8.ltrans6.ltrans.o
                                                  C:\cygwin64\tmp\ccTUqUH8.ltrans3.ltrans.o
servosFilterInit                                  C:\cygwin64\tmp\ccTUqUH8.ltrans3.ltrans.o
                                                  obj/main/BETAFLIGHTF3/flight/servos.o (symbol from plugin)
                                                  C:\cygwin64\tmp\ccTUqUH8.ltrans4.ltrans.o
                                                  obj/main/BETAFLIGHTF3/fc/fc_init.o (symbol from plugin)
servosInit                                        C:\cygwin64\tmp\ccTUqUH8.ltrans3.ltrans.o
                                                  obj/main/BETAFLIGHTF3/flight/servos.o (symbol from plugin)
                                                  C:\cygwin64\tmp\ccTUqUH8.ltrans4.ltrans.o
                                                  obj/main/BETAFLIGHTF3/fc/fc_init.o (symbol from plugin)
servosTricopterInit                               obj/main/BETAFLIGHTF3/flight/servos_tricopter.o (symbol from plugin)
                                                  obj/main/BETAFLIGHTF3/flight/servos.o (symbol from plugin)
servosTricopterIsEnabledServoUnarmed              obj/main/BETAFLIGHTF3/flight/servos_tricopter.o (symbol from plugin)
                                                  obj/main/BETAFLIGHTF3/flight/servos.o (symbol from plugin)
servosTricopterMixer                              obj/main/BETAFLIGHTF3/flight/servos_tricopter.o (symbol from plugin)
                                                  obj/main/BETAFLIGHTF3/flight/servos.o (symbol from plugin)
setAccelerationTrims                              obj/main/BETAFLIGHTF3/sensors/acceleration.o (symbol from plugin)
                                                  obj/main/BETAFLIGHTF3/fc/config.o (symbol from plugin)
setArmingDisabled                                 C:\cygwin64\tmp\ccTUqUH8.ltrans0.ltrans.o
                                                  obj/main/BETAFLIGHTF3/fc/runtime_config.o (symbol from plugin)
                                                  C:\cygwin64\tmp\ccTUqUH8.ltrans5.ltrans.o
                                                  C:\cygwin64\tmp\ccTUqUH8.ltrans4.ltrans.o
                                                  C:\cygwin64\tmp\ccTUqUH8.ltrans1.ltrans.o
                                                  obj/main/BETAFLIGHTF3/cms/cms.o (symbol from plugin)
                                                  obj/main/BETAFLIGHTF3/interface/cli.o (symbol from plugin)
                                                  obj/main/BETAFLIGHTF3/flight/failsafe.o (symbol from plugin)
                                                  obj/main/BETAFLIGHTF3/fc/fc_core.o (symbol from plugin)
                                                  obj/main/BETAFLIGHTF3/fc/fc_init.o (symbol from plugin)
                                                  obj/main/BETAFLIGHTF3/interface/msp.o (symbol from plugin)
                                                  obj/main/BETAFLIGHTF3/io/osd.o (symbol from plugin)
setBeeperOffMask                                  obj/main/BETAFLIGHTF3/fc/config.o (symbol from plugin)
                                                  obj/main/BETAFLIGHTF3/interface/cli.o (symbol from plugin)
                                                  obj/main/BETAFLIGHTF3/interface/msp.o (symbol from plugin)
setControlRateProfile                             obj/main/BETAFLIGHTF3/fc/controlrate_profile.o (symbol from plugin)
                                                  obj/main/BETAFLIGHTF3/fc/config.o (symbol from plugin)
setEscHi                                          obj/main/BETAFLIGHTF3/io/serial_4way.o (symbol from plugin)
                                                  obj/main/BETAFLIGHTF3/io/serial_4way_stk500v2.o (symbol from plugin)
                                                  obj/main/BETAFLIGHTF3/io/serial_4way_avrootloader.o (symbol from plugin)
setEscInput                                       obj/main/BETAFLIGHTF3/io/serial_4way.o (symbol from plugin)
                                                  obj/main/BETAFLIGHTF3/io/serial_4way_stk500v2.o (symbol from plugin)
                                                  obj/main/BETAFLIGHTF3/io/serial_4way_avrootloader.o (symbol from plugin)
setEscLo                                          obj/main/BETAFLIGHTF3/io/serial_4way.o (symbol from plugin)
                                                  obj/main/BETAFLIGHTF3/io/serial_4way_stk500v2.o (symbol from plugin)
                                                  obj/main/BETAFLIGHTF3/io/serial_4way_avrootloader.o (symbol from plugin)
setEscOutput                                      obj/main/BETAFLIGHTF3/io/serial_4way.o (symbol from plugin)
                                                  obj/main/BETAFLIGHTF3/io/serial_4way_stk500v2.o (symbol from plugin)
                                                  obj/main/BETAFLIGHTF3/io/serial_4way_avrootloader.o (symbol from plugin)
setLedHsv                                         obj/main/BETAFLIGHTF3/drivers/light_ws2811strip.o (symbol from plugin)
                                                  obj/main/BETAFLIGHTF3/io/ledstrip.o (symbol from plugin)
setLedValue                                       obj/main/BETAFLIGHTF3/drivers/light_ws2811strip.o (symbol from plugin)
setModeColor                                      C:\cygwin64\tmp\ccTUqUH8.ltrans2.ltrans.o
                                                  obj/main/BETAFLIGHTF3/io/ledstrip.o (symbol from plugin)
                                                  C:\cygwin64\tmp\ccTUqUH8.ltrans4.ltrans.o
                                                  C:\cygwin64\tmp\ccTUqUH8.ltrans3.ltrans.o
                                                  obj/main/BETAFLIGHTF3/interface/cli.o (symbol from plugin)
                                                  obj/main/BETAFLIGHTF3/interface/msp.o (symbol from plugin)
setPidUpdateCountDown                             obj/main/BETAFLIGHTF3/fc/fc_core.o (symbol from plugin)
setPreferredBeeperOffMask                         obj/main/BETAFLIGHTF3/fc/config.o (symbol from plugin)
                                                  obj/main/BETAFLIGHTF3/interface/cli.o (symbol from plugin)
setPrintfSerialPort                               obj/main/BETAFLIGHTF3/common/printf.o (symbol from plugin)
                                                  obj/main/BETAFLIGHTF3/interface/cli.o (symbol from plugin)
setRssiFiltered                                   obj/main/BETAFLIGHTF3/rx/rx.o (symbol from plugin)
                                                  obj/main/BETAFLIGHTF3/rx/fport.o (symbol from plugin)
setRssiMsp                                        obj/main/BETAFLIGHTF3/rx/rx.o (symbol from plugin)
                                                  obj/main/BETAFLIGHTF3/interface/msp.o (symbol from plugin)
setRssiUnfiltered                                 obj/main/BETAFLIGHTF3/rx/rx.o (symbol from plugin)
                                                  obj/main/BETAFLIGHTF3/rx/fport.o (symbol from plugin)
setStripColor                                     obj/main/BETAFLIGHTF3/drivers/light_ws2811strip.o (symbol from plugin)
                                                  obj/main/BETAFLIGHTF3/io/ledstrip.o (symbol from plugin)
setStripColors                                    obj/main/BETAFLIGHTF3/drivers/light_ws2811strip.o (symbol from plugin)
setTaskEnabled                                    obj/main/BETAFLIGHTF3/scheduler/scheduler.o (symbol from plugin)
                                                  obj/main/BETAFLIGHTF3/fc/fc_tasks.o (symbol from plugin)
setTaskEnabled.part.0                             C:\cygwin64\tmp\ccTUqUH8.ltrans4.ltrans.o
                                                  C:\cygwin64\tmp\ccTUqUH8.ltrans0.ltrans.o
setTxSignalEsc.lto_priv.330                       C:\cygwin64\tmp\ccTUqUH8.ltrans1.ltrans.o
                                                  C:\cygwin64\tmp\ccTUqUH8.ltrans2.ltrans.o
setlocale                                         d:/gcc-arm-none-eabi-7-2017-q4-major-win32/bin/../lib/gcc/arm-none-eabi/7.2.1/../../../../arm-none-eabi/lib/thumb/v7e-m/fpv4-sp/hard\libc_nano.a(lib_a-locale.o)
settingsBuildCheck                                obj/main/BETAFLIGHTF3/interface/settings.o (symbol from plugin)
shadowBuffer.lto_priv.691                         C:\cygwin64\tmp\ccTUqUH8.ltrans2.ltrans.o
                                                  C:\cygwin64\tmp\ccTUqUH8.ltrans5.ltrans.o
shortGitRevision                                  C:\cygwin64\tmp\ccTUqUH8.ltrans1.ltrans.o
                                                  obj/main/BETAFLIGHTF3/build/version.o (symbol from plugin)
                                                  obj/main/BETAFLIGHTF3/cms/cms_menu_builtin.o (symbol from plugin)
                                                  obj/main/BETAFLIGHTF3/blackbox/blackbox.o (symbol from plugin)
                                                  obj/main/BETAFLIGHTF3/interface/cli.o (symbol from plugin)
                                                  obj/main/BETAFLIGHTF3/interface/msp.o (symbol from plugin)
sinTable_f32                                      obj/main/BETAFLIGHTF3/./lib/main/DSP_Lib/Source/CommonTables/arm_common_tables.o (symbol from plugin)
sinTable_q15                                      obj/main/BETAFLIGHTF3/./lib/main/DSP_Lib/Source/CommonTables/arm_common_tables.o (symbol from plugin)
sinTable_q31                                      obj/main/BETAFLIGHTF3/./lib/main/DSP_Lib/Source/CommonTables/arm_common_tables.o (symbol from plugin)
sin_approx                                        obj/main/BETAFLIGHTF3/common/maths.o (symbol from plugin)
                                                  obj/main/BETAFLIGHTF3/flight/imu.o (symbol from plugin)
                                                  obj/main/BETAFLIGHTF3/fc/fc_rc.o (symbol from plugin)
                                                  obj/main/BETAFLIGHTF3/common/filter.o (symbol from plugin)
sin_approx.part.0                                 C:\cygwin64\tmp\ccTUqUH8.ltrans5.ltrans.o
                                                  C:\cygwin64\tmp\ccTUqUH8.ltrans4.ltrans.o
skipRxSamples.lto_priv.606                        C:\cygwin64\tmp\ccTUqUH8.ltrans1.ltrans.o
                                                  C:\cygwin64\tmp\ccTUqUH8.ltrans0.ltrans.o
slewFilterApply                                   obj/main/BETAFLIGHTF3/common/filter.o (symbol from plugin)
slewFilterInit                                    obj/main/BETAFLIGHTF3/common/filter.o (symbol from plugin)
smartAudioCommand_e                               obj/main/BETAFLIGHTF3/io/vtx_smartaudio.o (symbol from plugin)
smartAudioSerialPort.lto_priv.302                 C:\cygwin64\tmp\ccTUqUH8.ltrans6.ltrans.o
                                                  C:\cygwin64\tmp\ccTUqUH8.ltrans4.ltrans.o
                                                  C:\cygwin64\tmp\ccTUqUH8.ltrans2.ltrans.o
smartPortDataReceive                              obj/main/BETAFLIGHTF3/telemetry/smartport.o (symbol from plugin)
smartPortPortSharing.lto_priv.583                 C:\cygwin64\tmp\ccTUqUH8.ltrans2.ltrans.o
                                                  C:\cygwin64\tmp\ccTUqUH8.ltrans0.ltrans.o
smartPortSendByte                                 C:\cygwin64\tmp\ccTUqUH8.ltrans2.ltrans.o
                                                  obj/main/BETAFLIGHTF3/telemetry/smartport.o (symbol from plugin)
                                                  C:\cygwin64\tmp\ccTUqUH8.ltrans1.ltrans.o
                                                  obj/main/BETAFLIGHTF3/rx/fport.o (symbol from plugin)
smartPortSerialPort.lto_priv.573                  C:\cygwin64\tmp\ccTUqUH8.ltrans2.ltrans.o
                                                  C:\cygwin64\tmp\ccTUqUH8.ltrans0.ltrans.o
smartPortWriteFrame.lto_priv.347                  C:\cygwin64\tmp\ccTUqUH8.ltrans2.ltrans.o
                                                  C:\cygwin64\tmp\ccTUqUH8.ltrans1.ltrans.o
smartPortWriteFrameSerial                         obj/main/BETAFLIGHTF3/telemetry/smartport.o (symbol from plugin)
                                                  obj/main/BETAFLIGHTF3/rx/fport.o (symbol from plugin)
softSerialReadByte                                obj/main/BETAFLIGHTF3/drivers/serial_softserial.o (symbol from plugin)
softSerialRxBytesWaiting                          obj/main/BETAFLIGHTF3/drivers/serial_softserial.o (symbol from plugin)
softSerialSetBaudRate                             obj/main/BETAFLIGHTF3/drivers/serial_softserial.o (symbol from plugin)
softSerialSetMode                                 obj/main/BETAFLIGHTF3/drivers/serial_softserial.o (symbol from plugin)
softSerialTxBytesFree                             obj/main/BETAFLIGHTF3/drivers/serial_softserial.o (symbol from plugin)
softSerialWriteByte                               obj/main/BETAFLIGHTF3/drivers/serial_softserial.o (symbol from plugin)
specialColors                                     obj/main/BETAFLIGHTF3/telemetry/ltm.o (symbol from plugin)
                                                  obj/main/BETAFLIGHTF3/io/ledstrip.o (symbol from plugin)
                                                  obj/main/BETAFLIGHTF3/interface/settings.o (symbol from plugin)
                                                  obj/main/BETAFLIGHTF3/interface/cli.o (symbol from plugin)
                                                  obj/main/BETAFLIGHTF3/fc/fc_init.o (symbol from plugin)
                                                  obj/main/BETAFLIGHTF3/interface/msp.o (symbol from plugin)
                                                  obj/main/BETAFLIGHTF3/fc/fc_tasks.o (symbol from plugin)
                                                  obj/main/BETAFLIGHTF3/fc/config.o (symbol from plugin)
spek2commonBand                                   obj/main/BETAFLIGHTF3/io/spektrum_vtx_control.o (symbol from plugin)
spekChannelData                                   obj/main/BETAFLIGHTF3/rx/spektrum.o (symbol from plugin)
                                                  obj/main/BETAFLIGHTF3/io/spektrum_rssi.o (symbol from plugin)
spekShouldBind                                    obj/main/BETAFLIGHTF3/rx/spektrum.o (symbol from plugin)
spektrumBind                                      obj/main/BETAFLIGHTF3/rx/spektrum.o (symbol from plugin)
                                                  obj/main/BETAFLIGHTF3/fc/fc_init.o (symbol from plugin)
spektrumBind.constprop.121                        C:\cygwin64\tmp\ccTUqUH8.ltrans6.ltrans.o
                                                  C:\cygwin64\tmp\ccTUqUH8.ltrans4.ltrans.o
spektrumHandleRSSI                                obj/main/BETAFLIGHTF3/io/spektrum_rssi.o (symbol from plugin)
                                                  obj/main/BETAFLIGHTF3/rx/spektrum.o (symbol from plugin)
spektrumHandleVtxControl                          obj/main/BETAFLIGHTF3/io/spektrum_vtx_control.o (symbol from plugin)
                                                  obj/main/BETAFLIGHTF3/rx/spektrum.o (symbol from plugin)
spektrumInit                                      obj/main/BETAFLIGHTF3/rx/spektrum.o (symbol from plugin)
                                                  obj/main/BETAFLIGHTF3/rx/rx.o (symbol from plugin)
spektrumTmTextGenPutChar                          obj/main/BETAFLIGHTF3/telemetry/srxl.o (symbol from plugin)
                                                  obj/main/BETAFLIGHTF3/io/displayport_srxl.o (symbol from plugin)
spektrumVtxControl                                obj/main/BETAFLIGHTF3/io/spektrum_vtx_control.o (symbol from plugin)
                                                  obj/main/BETAFLIGHTF3/io/vtx_control.o (symbol from plugin)
spiBusReadRegister                                obj/main/BETAFLIGHTF3/drivers/bus_spi.o (symbol from plugin)
                                                  obj/main/BETAFLIGHTF3/drivers/accgyro/accgyro_spi_mpu6000.o (symbol from plugin)
spiBusReadRegisterBuffer                          obj/main/BETAFLIGHTF3/drivers/bus_spi.o (symbol from plugin)
                                                  obj/main/BETAFLIGHTF3/drivers/bus.o (symbol from plugin)
spiBusSetInstance                                 obj/main/BETAFLIGHTF3/drivers/bus_spi.o (symbol from plugin)
                                                  obj/main/BETAFLIGHTF3/drivers/accgyro/accgyro_mpu.o (symbol from plugin)
spiBusTransfer                                    obj/main/BETAFLIGHTF3/drivers/bus_spi.o (symbol from plugin)
                                                  obj/main/BETAFLIGHTF3/drivers/accgyro/accgyro_mpu.o (symbol from plugin)
spiBusWriteRegister                               obj/main/BETAFLIGHTF3/drivers/bus_spi.o (symbol from plugin)
                                                  obj/main/BETAFLIGHTF3/drivers/bus.o (symbol from plugin)
                                                  obj/main/BETAFLIGHTF3/drivers/accgyro/accgyro_spi_mpu6000.o (symbol from plugin)
spiDefaultConfig                                  obj/main/BETAFLIGHTF3/pg/bus_spi.o (symbol from plugin)
spiDevice                                         C:\cygwin64\tmp\ccTUqUH8.ltrans6.ltrans.o
                                                  obj/main/BETAFLIGHTF3/drivers/bus_spi.o (symbol from plugin)
                                                  obj/main/BETAFLIGHTF3/drivers/bus_spi_stdperiph.o (symbol from plugin)
                                                  C:\cygwin64\tmp\ccTUqUH8.ltrans5.ltrans.o
                                                  C:\cygwin64\tmp\ccTUqUH8.ltrans4.ltrans.o
                                                  obj/main/BETAFLIGHTF3/drivers/bus_spi_pinconfig.o (symbol from plugin)
spiDeviceByInstance                               obj/main/BETAFLIGHTF3/drivers/bus_spi.o (symbol from plugin)
                                                  obj/main/BETAFLIGHTF3/pg/sdcard.o (symbol from plugin)
spiGetErrorCounter                                obj/main/BETAFLIGHTF3/drivers/bus_spi.o (symbol from plugin)
spiHardware                                       obj/main/BETAFLIGHTF3/drivers/bus_spi_pinconfig.o (symbol from plugin)
spiInit                                           obj/main/BETAFLIGHTF3/drivers/bus_spi.o (symbol from plugin)
                                                  obj/main/BETAFLIGHTF3/fc/fc_init.o (symbol from plugin)
spiInitDevice                                     C:\cygwin64\tmp\ccTUqUH8.ltrans5.ltrans.o
                                                  obj/main/BETAFLIGHTF3/drivers/bus_spi_stdperiph.o (symbol from plugin)
                                                  C:\cygwin64\tmp\ccTUqUH8.ltrans4.ltrans.o
                                                  obj/main/BETAFLIGHTF3/drivers/bus_spi.o (symbol from plugin)
spiInstanceByDevice                               obj/main/BETAFLIGHTF3/drivers/bus_spi.o (symbol from plugin)
                                                  obj/main/BETAFLIGHTF3/drivers/sdcard.o (symbol from plugin)
spiIsBusBusy                                      C:\cygwin64\tmp\ccTUqUH8.ltrans5.ltrans.o
                                                  obj/main/BETAFLIGHTF3/drivers/bus_spi_stdperiph.o (symbol from plugin)
                                                  C:\cygwin64\tmp\ccTUqUH8.ltrans6.ltrans.o
                                                  C:\cygwin64\tmp\ccTUqUH8.ltrans2.ltrans.o
                                                  obj/main/BETAFLIGHTF3/drivers/sdcard.o (symbol from plugin)
spiPinConfig_Copy                                 obj/main/BETAFLIGHTF3/pg/bus_spi.o (symbol from plugin)
spiPinConfig_Registry                             C:\cygwin64\tmp\ccTUqUH8.ltrans4.ltrans.o
                                                  obj/main/BETAFLIGHTF3/pg/bus_spi.o (symbol from plugin)
spiPinConfig_System                               obj/main/BETAFLIGHTF3/pg/bus_spi.o (symbol from plugin)
                                                  obj/main/BETAFLIGHTF3/fc/fc_init.o (symbol from plugin)
spiPinConfigure                                   obj/main/BETAFLIGHTF3/drivers/bus_spi_pinconfig.o (symbol from plugin)
                                                  obj/main/BETAFLIGHTF3/fc/fc_init.o (symbol from plugin)
spiPreInit                                        obj/main/BETAFLIGHTF3/fc/fc_init.o (symbol from plugin)
spiPreInitCs                                      C:\cygwin64\tmp\ccTUqUH8.ltrans5.ltrans.o
                                                  obj/main/BETAFLIGHTF3/drivers/bus_spi_config.o (symbol from plugin)
                                                  C:\cygwin64\tmp\ccTUqUH8.ltrans4.ltrans.o
                                                  obj/main/BETAFLIGHTF3/fc/fc_init.o (symbol from plugin)
spiPreInitCsOutPU                                 obj/main/BETAFLIGHTF3/drivers/bus_spi_config.o (symbol from plugin)
                                                  obj/main/BETAFLIGHTF3/fc/fc_init.o (symbol from plugin)
spiResetErrorCounter                              obj/main/BETAFLIGHTF3/drivers/bus_spi.o (symbol from plugin)
spiSetDivisor                                     C:\cygwin64\tmp\ccTUqUH8.ltrans5.ltrans.o
                                                  obj/main/BETAFLIGHTF3/drivers/bus_spi_stdperiph.o (symbol from plugin)
                                                  C:\cygwin64\tmp\ccTUqUH8.ltrans6.ltrans.o
                                                  C:\cygwin64\tmp\ccTUqUH8.ltrans4.ltrans.o
                                                  C:\cygwin64\tmp\ccTUqUH8.ltrans2.ltrans.o
                                                  C:\cygwin64\tmp\ccTUqUH8.ltrans1.ltrans.o
                                                  obj/main/BETAFLIGHTF3/drivers/sdcard.o (symbol from plugin)
                                                  obj/main/BETAFLIGHTF3/drivers/max7456.o (symbol from plugin)
                                                  obj/main/BETAFLIGHTF3/drivers/accgyro/accgyro_spi_mpu6000.o (symbol from plugin)
spiTimeoutUserCallback                            C:\cygwin64\tmp\ccTUqUH8.ltrans5.ltrans.o
                                                  obj/main/BETAFLIGHTF3/drivers/bus_spi.o (symbol from plugin)
                                                  C:\cygwin64\tmp\ccTUqUH8.ltrans1.ltrans.o
                                                  obj/main/BETAFLIGHTF3/drivers/bus_spi_stdperiph.o (symbol from plugin)
spiTransfer                                       C:\cygwin64\tmp\ccTUqUH8.ltrans5.ltrans.o
                                                  obj/main/BETAFLIGHTF3/drivers/bus_spi_stdperiph.o (symbol from plugin)
                                                  C:\cygwin64\tmp\ccTUqUH8.ltrans6.ltrans.o
                                                  C:\cygwin64\tmp\ccTUqUH8.ltrans2.ltrans.o
                                                  C:\cygwin64\tmp\ccTUqUH8.ltrans1.ltrans.o
                                                  obj/main/BETAFLIGHTF3/drivers/sdcard.o (symbol from plugin)
                                                  obj/main/BETAFLIGHTF3/drivers/bus_spi.o (symbol from plugin)
                                                  obj/main/BETAFLIGHTF3/drivers/max7456.o (symbol from plugin)
spiTransferByte                                   C:\cygwin64\tmp\ccTUqUH8.ltrans5.ltrans.o
                                                  obj/main/BETAFLIGHTF3/drivers/bus_spi_stdperiph.o (symbol from plugin)
                                                  C:\cygwin64\tmp\ccTUqUH8.ltrans6.ltrans.o
                                                  C:\cygwin64\tmp\ccTUqUH8.ltrans4.ltrans.o
                                                  C:\cygwin64\tmp\ccTUqUH8.ltrans2.ltrans.o
                                                  C:\cygwin64\tmp\ccTUqUH8.ltrans1.ltrans.o
                                                  obj/main/BETAFLIGHTF3/drivers/sdcard.o (symbol from plugin)
                                                  obj/main/BETAFLIGHTF3/drivers/bus_spi.o (symbol from plugin)
                                                  obj/main/BETAFLIGHTF3/drivers/max7456.o (symbol from plugin)
srxlClearScreen.lto_priv.505                      C:\cygwin64\tmp\ccTUqUH8.ltrans2.ltrans.o
                                                  C:\cygwin64\tmp\ccTUqUH8.ltrans4.ltrans.o
srxlDrawScreen.lto_priv.506                       C:\cygwin64\tmp\ccTUqUH8.ltrans2.ltrans.o
                                                  C:\cygwin64\tmp\ccTUqUH8.ltrans4.ltrans.o
srxlEnabled                                       obj/main/BETAFLIGHTF3/rx/spektrum.o (symbol from plugin)
                                                  obj/main/BETAFLIGHTF3/io/spektrum_rssi.o (symbol from plugin)
srxlFrameFlightPackCurrent                        C:\cygwin64\tmp\ccTUqUH8.ltrans2.ltrans.o
                                                  obj/main/BETAFLIGHTF3/telemetry/srxl.o (symbol from plugin)
                                                  C:\cygwin64\tmp\ccTUqUH8.ltrans0.ltrans.o
srxlFrameQos                                      C:\cygwin64\tmp\ccTUqUH8.ltrans2.ltrans.o
                                                  obj/main/BETAFLIGHTF3/telemetry/srxl.o (symbol from plugin)
                                                  C:\cygwin64\tmp\ccTUqUH8.ltrans0.ltrans.o
srxlFrameRpm                                      C:\cygwin64\tmp\ccTUqUH8.ltrans2.ltrans.o
                                                  obj/main/BETAFLIGHTF3/telemetry/srxl.o (symbol from plugin)
                                                  C:\cygwin64\tmp\ccTUqUH8.ltrans0.ltrans.o
srxlFrameText                                     C:\cygwin64\tmp\ccTUqUH8.ltrans2.ltrans.o
                                                  obj/main/BETAFLIGHTF3/telemetry/srxl.o (symbol from plugin)
                                                  C:\cygwin64\tmp\ccTUqUH8.ltrans0.ltrans.o
srxlGrab.lto_priv.503                             C:\cygwin64\tmp\ccTUqUH8.ltrans2.ltrans.o
                                                  C:\cygwin64\tmp\ccTUqUH8.ltrans4.ltrans.o
srxlHeartbeat.lto_priv.511                        C:\cygwin64\tmp\ccTUqUH8.ltrans2.ltrans.o
                                                  C:\cygwin64\tmp\ccTUqUH8.ltrans4.ltrans.o
srxlIsTransferInProgress.lto_priv.510             C:\cygwin64\tmp\ccTUqUH8.ltrans2.ltrans.o
                                                  C:\cygwin64\tmp\ccTUqUH8.ltrans4.ltrans.o
srxlRelease.lto_priv.504                          C:\cygwin64\tmp\ccTUqUH8.ltrans2.ltrans.o
                                                  C:\cygwin64\tmp\ccTUqUH8.ltrans4.ltrans.o
srxlResync.lto_priv.512                           C:\cygwin64\tmp\ccTUqUH8.ltrans2.ltrans.o
                                                  C:\cygwin64\tmp\ccTUqUH8.ltrans4.ltrans.o
srxlRxIsActive                                    obj/main/BETAFLIGHTF3/rx/spektrum.o (symbol from plugin)
                                                  obj/main/BETAFLIGHTF3/telemetry/srxl.o (symbol from plugin)
srxlRxSendTelemetryDataDispatch                   obj/main/BETAFLIGHTF3/rx/spektrum.o (symbol from plugin)
srxlRxWriteTelemetryData                          obj/main/BETAFLIGHTF3/rx/spektrum.o (symbol from plugin)
                                                  obj/main/BETAFLIGHTF3/telemetry/srxl.o (symbol from plugin)
srxlScheduleFuncs                                 obj/main/BETAFLIGHTF3/telemetry/srxl.o (symbol from plugin)
srxlScreenSize.lto_priv.507                       C:\cygwin64\tmp\ccTUqUH8.ltrans2.ltrans.o
                                                  C:\cygwin64\tmp\ccTUqUH8.ltrans4.ltrans.o
srxlTelemetryEnabled.lto_priv.564                 C:\cygwin64\tmp\ccTUqUH8.ltrans2.ltrans.o
                                                  C:\cygwin64\tmp\ccTUqUH8.ltrans0.ltrans.o
srxlTxBytesFree.lto_priv.513                      C:\cygwin64\tmp\ccTUqUH8.ltrans2.ltrans.o
                                                  C:\cygwin64\tmp\ccTUqUH8.ltrans4.ltrans.o
srxlWriteChar.lto_priv.509                        C:\cygwin64\tmp\ccTUqUH8.ltrans2.ltrans.o
                                                  C:\cygwin64\tmp\ccTUqUH8.ltrans4.ltrans.o
srxlWriteString.lto_priv.508                      C:\cygwin64\tmp\ccTUqUH8.ltrans2.ltrans.o
                                                  C:\cygwin64\tmp\ccTUqUH8.ltrans4.ltrans.o
stackHighMem                                      obj/main/BETAFLIGHTF3/drivers/stack_check.o (symbol from plugin)
                                                  obj/main/BETAFLIGHTF3/interface/cli.o (symbol from plugin)
stackTotalSize                                    obj/main/BETAFLIGHTF3/drivers/stack_check.o (symbol from plugin)
                                                  obj/main/BETAFLIGHTF3/interface/cli.o (symbol from plugin)
stage_rfft_f32                                    obj/main/BETAFLIGHTF3/./lib/main/DSP_Lib/Source/TransformFunctions/arm_rfft_fast_f32.o (symbol from plugin)
                                                  obj/main/BETAFLIGHTF3/sensors/gyroanalyse.o (symbol from plugin)
standardBoardAlignment.lto_priv.481               C:\cygwin64\tmp\ccTUqUH8.ltrans1.ltrans.o
                                                  C:\cygwin64\tmp\ccTUqUH8.ltrans4.ltrans.o
startEscDataRead                                  obj/main/BETAFLIGHTF3/sensors/esc_sensor.o (symbol from plugin)
                                                  obj/main/BETAFLIGHTF3/interface/cli.o (symbol from plugin)
started.lto_priv.682                              C:\cygwin64\tmp\ccTUqUH8.ltrans4.ltrans.o
                                                  C:\cygwin64\tmp\ccTUqUH8.ltrans5.ltrans.o
stateFlags                                        C:\cygwin64\tmp\ccTUqUH8.ltrans1.ltrans.o
                                                  obj/main/BETAFLIGHTF3/fc/runtime_config.o (symbol from plugin)
                                                  C:\cygwin64\tmp\ccTUqUH8.ltrans5.ltrans.o
                                                  C:\cygwin64\tmp\ccTUqUH8.ltrans4.ltrans.o
                                                  C:\cygwin64\tmp\ccTUqUH8.ltrans3.ltrans.o
                                                  C:\cygwin64\tmp\ccTUqUH8.ltrans0.ltrans.o
                                                  obj/main/BETAFLIGHTF3/telemetry/ltm.o (symbol from plugin)
                                                  obj/main/BETAFLIGHTF3/telemetry/crsf.o (symbol from plugin)
                                                  obj/main/BETAFLIGHTF3/blackbox/blackbox.o (symbol from plugin)
                                                  obj/main/BETAFLIGHTF3/flight/servos.o (symbol from plugin)
                                                  obj/main/BETAFLIGHTF3/flight/imu.o (symbol from plugin)
                                                  obj/main/BETAFLIGHTF3/fc/rc_controls.o (symbol from plugin)
                                                  obj/main/BETAFLIGHTF3/fc/fc_core.o (symbol from plugin)
                                                  obj/main/BETAFLIGHTF3/fc/fc_init.o (symbol from plugin)
                                                  obj/main/BETAFLIGHTF3/interface/msp.o (symbol from plugin)
                                                  obj/main/BETAFLIGHTF3/io/osd.o (symbol from plugin)
statusLedConfig_Copy                              obj/main/BETAFLIGHTF3/drivers/light_led.o (symbol from plugin)
statusLedConfig_Registry                          C:\cygwin64\tmp\ccTUqUH8.ltrans6.ltrans.o
                                                  obj/main/BETAFLIGHTF3/drivers/light_led.o (symbol from plugin)
statusLedConfig_System                            C:\cygwin64\tmp\ccTUqUH8.ltrans6.ltrans.o
                                                  obj/main/BETAFLIGHTF3/drivers/light_led.o (symbol from plugin)
                                                  obj/main/BETAFLIGHTF3/fc/fc_init.o (symbol from plugin)
stdout_putf.lto_priv.685                          C:\cygwin64\tmp\ccTUqUH8.ltrans4.ltrans.o
                                                  C:\cygwin64\tmp\ccTUqUH8.ltrans5.ltrans.o
stdout_putp.lto_priv.684                          C:\cygwin64\tmp\ccTUqUH8.ltrans4.ltrans.o
                                                  C:\cygwin64\tmp\ccTUqUH8.ltrans5.ltrans.o
stopMotors                                        C:\cygwin64\tmp\ccTUqUH8.ltrans3.ltrans.o
                                                  obj/main/BETAFLIGHTF3/flight/mixer.o (symbol from plugin)
                                                  C:\cygwin64\tmp\ccTUqUH8.ltrans1.ltrans.o
                                                  C:\cygwin64\tmp\ccTUqUH8.ltrans0.ltrans.o
                                                  obj/main/BETAFLIGHTF3/cms/cms.o (symbol from plugin)
                                                  obj/main/BETAFLIGHTF3/fc/fc_hardfaults.o (symbol from plugin)
stopPwmAllMotors                                  C:\cygwin64\tmp\ccTUqUH8.ltrans3.ltrans.o
                                                  obj/main/BETAFLIGHTF3/flight/mixer.o (symbol from plugin)
                                                  C:\cygwin64\tmp\ccTUqUH8.ltrans1.ltrans.o
                                                  C:\cygwin64\tmp\ccTUqUH8.ltrans0.ltrans.o
                                                  obj/main/BETAFLIGHTF3/cms/cms.o (symbol from plugin)
                                                  obj/main/BETAFLIGHTF3/interface/cli.o (symbol from plugin)
                                                  obj/main/BETAFLIGHTF3/interface/msp.o (symbol from plugin)
strcasecmp                                        C:\cygwin64\tmp\ccTUqUH8.ltrans5.ltrans.o
                                                  C:\cygwin64\tmp\ccTUqUH8.ltrans3.ltrans.o
strcat                                            d:/gcc-arm-none-eabi-7-2017-q4-major-win32/bin/../lib/gcc/arm-none-eabi/7.2.1/../../../../arm-none-eabi/lib/thumb/v7e-m/fpv4-sp/hard\libc_nano.a(lib_a-strcat.o)
                                                  C:\cygwin64\tmp\ccTUqUH8.ltrans5.ltrans.o
                                                  C:\cygwin64\tmp\ccTUqUH8.ltrans1.ltrans.o
strchr                                            d:/gcc-arm-none-eabi-7-2017-q4-major-win32/bin/../lib/gcc/arm-none-eabi/7.2.1/../../../../arm-none-eabi/lib/thumb/v7e-m/fpv4-sp/hard\libc_nano.a(lib_a-strchr.o)
                                                  C:\cygwin64\tmp\ccTUqUH8.ltrans3.ltrans.o
                                                  C:\cygwin64\tmp\ccTUqUH8.ltrans2.ltrans.o
                                                  C:\cygwin64\tmp\ccTUqUH8.ltrans1.ltrans.o
                                                  C:\cygwin64\tmp\ccTUqUH8.ltrans0.ltrans.o
strcmp                                            d:/gcc-arm-none-eabi-7-2017-q4-major-win32/bin/../lib/gcc/arm-none-eabi/7.2.1/../../../../arm-none-eabi/lib/thumb/v7e-m/fpv4-sp/hard\libc_nano.a(lib_a-strcmp.o)
                                                  C:\cygwin64\tmp\ccTUqUH8.ltrans2.ltrans.o
                                                  d:/gcc-arm-none-eabi-7-2017-q4-major-win32/bin/../lib/gcc/arm-none-eabi/7.2.1/../../../../arm-none-eabi/lib/thumb/v7e-m/fpv4-sp/hard\libc_nano.a(lib_a-locale.o)
strcpy                                            d:/gcc-arm-none-eabi-7-2017-q4-major-win32/bin/../lib/gcc/arm-none-eabi/7.2.1/../../../../arm-none-eabi/lib/thumb/v7e-m/fpv4-sp/hard\libc_nano.a(lib_a-strcpy.o)
                                                  C:\cygwin64\tmp\ccTUqUH8.ltrans5.ltrans.o
                                                  C:\cygwin64\tmp\ccTUqUH8.ltrans1.ltrans.o
strlen                                            d:/gcc-arm-none-eabi-7-2017-q4-major-win32/bin/../lib/gcc/arm-none-eabi/7.2.1/../../../../arm-none-eabi/lib/thumb/v7e-m/fpv4-sp/hard\libc_nano.a(lib_a-strlen.o)
                                                  C:\cygwin64\tmp\ccTUqUH8.ltrans6.ltrans.o
                                                  C:\cygwin64\tmp\ccTUqUH8.ltrans5.ltrans.o
                                                  C:\cygwin64\tmp\ccTUqUH8.ltrans4.ltrans.o
                                                  C:\cygwin64\tmp\ccTUqUH8.ltrans3.ltrans.o
                                                  C:\cygwin64\tmp\ccTUqUH8.ltrans2.ltrans.o
                                                  C:\cygwin64\tmp\ccTUqUH8.ltrans1.ltrans.o
                                                  C:\cygwin64\tmp\ccTUqUH8.ltrans0.ltrans.o
strncasecmp                                       C:\cygwin64\tmp\ccTUqUH8.ltrans5.ltrans.o
                                                  C:\cygwin64\tmp\ccTUqUH8.ltrans4.ltrans.o
                                                  C:\cygwin64\tmp\ccTUqUH8.ltrans3.ltrans.o
                                                  C:\cygwin64\tmp\ccTUqUH8.ltrans0.ltrans.o
strncmp                                           d:/gcc-arm-none-eabi-7-2017-q4-major-win32/bin/../lib/gcc/arm-none-eabi/7.2.1/../../../../arm-none-eabi/lib/thumb/v7e-m/fpv4-sp/hard\libc_nano.a(lib_a-strncmp.o)
                                                  C:\cygwin64\tmp\ccTUqUH8.ltrans3.ltrans.o
                                                  C:\cygwin64\tmp\ccTUqUH8.ltrans2.ltrans.o
                                                  C:\cygwin64\tmp\ccTUqUH8.ltrans1.ltrans.o
strncpy                                           d:/gcc-arm-none-eabi-7-2017-q4-major-win32/bin/../lib/gcc/arm-none-eabi/7.2.1/../../../../arm-none-eabi/lib/thumb/v7e-m/fpv4-sp/hard\libc_nano.a(lib_a-strncpy.o)
                                                  C:\cygwin64\tmp\ccTUqUH8.ltrans5.ltrans.o
                                                  C:\cygwin64\tmp\ccTUqUH8.ltrans3.ltrans.o
                                                  C:\cygwin64\tmp\ccTUqUH8.ltrans1.ltrans.o
strstr                                            d:/gcc-arm-none-eabi-7-2017-q4-major-win32/bin/../lib/gcc/arm-none-eabi/7.2.1/../../../../arm-none-eabi/lib/thumb/v7e-m/fpv4-sp/hard\libc_nano.a(lib_a-strstr.o)
                                                  C:\cygwin64\tmp\ccTUqUH8.ltrans3.ltrans.o
strtok                                            d:/gcc-arm-none-eabi-7-2017-q4-major-win32/bin/../lib/gcc/arm-none-eabi/7.2.1/../../../../arm-none-eabi/lib/thumb/v7e-m/fpv4-sp/hard\libc_nano.a(lib_a-strtok.o)
                                                  obj/main/BETAFLIGHTF3/io/rcdevice.o (symbol from plugin)
strtok_r                                          d:/gcc-arm-none-eabi-7-2017-q4-major-win32/bin/../lib/gcc/arm-none-eabi/7.2.1/../../../../arm-none-eabi/lib/thumb/v7e-m/fpv4-sp/hard\libc_nano.a(lib_a-strtok_r.o)
                                                  C:\cygwin64\tmp\ccTUqUH8.ltrans3.ltrans.o
                                                  obj/main/BETAFLIGHTF3/interface/cli.o (symbol from plugin)
strtol                                            d:/gcc-arm-none-eabi-7-2017-q4-major-win32/bin/../lib/gcc/arm-none-eabi/7.2.1/../../../../arm-none-eabi/lib/thumb/v7e-m/fpv4-sp/hard\libc_nano.a(lib_a-strtol.o)
                                                  d:/gcc-arm-none-eabi-7-2017-q4-major-win32/bin/../lib/gcc/arm-none-eabi/7.2.1/../../../../arm-none-eabi/lib/thumb/v7e-m/fpv4-sp/hard\libc_nano.a(lib_a-atoi.o)
strtol_l                                          d:/gcc-arm-none-eabi-7-2017-q4-major-win32/bin/../lib/gcc/arm-none-eabi/7.2.1/../../../../arm-none-eabi/lib/thumb/v7e-m/fpv4-sp/hard\libc_nano.a(lib_a-strtol.o)
sum.10943.lto_priv.591                            C:\cygwin64\tmp\ccTUqUH8.ltrans1.ltrans.o
                                                  C:\cygwin64\tmp\ccTUqUH8.ltrans0.ltrans.o
sumdInit                                          obj/main/BETAFLIGHTF3/rx/sumd.o (symbol from plugin)
                                                  obj/main/BETAFLIGHTF3/rx/rx.o (symbol from plugin)
sumhInit                                          obj/main/BETAFLIGHTF3/rx/sumh.o (symbol from plugin)
                                                  obj/main/BETAFLIGHTF3/rx/rx.o (symbol from plugin)
supportedCurrentMeterCount                        obj/main/BETAFLIGHTF3/sensors/current.o (symbol from plugin)
                                                  obj/main/BETAFLIGHTF3/interface/msp.o (symbol from plugin)
supportedVoltageMeterCount                        obj/main/BETAFLIGHTF3/sensors/voltage.o (symbol from plugin)
                                                  obj/main/BETAFLIGHTF3/interface/msp.o (symbol from plugin)
suspendRxSignal                                   C:\cygwin64\tmp\ccTUqUH8.ltrans1.ltrans.o
                                                  obj/main/BETAFLIGHTF3/rx/rx.o (symbol from plugin)
                                                  C:\cygwin64\tmp\ccTUqUH8.ltrans0.ltrans.o
                                                  obj/main/BETAFLIGHTF3/fc/config.o (symbol from plugin)
suspendRxSignalUntil.lto_priv.607                 C:\cygwin64\tmp\ccTUqUH8.ltrans1.ltrans.o
                                                  C:\cygwin64\tmp\ccTUqUH8.ltrans0.ltrans.o
switchStates                                      obj/main/BETAFLIGHTF3/io/rcdevice_cam.o (symbol from plugin)
                                                  obj/main/BETAFLIGHTF3/cms/cms.o (symbol from plugin)
                                                  obj/main/BETAFLIGHTF3/fc/fc_init.o (symbol from plugin)
                                                  obj/main/BETAFLIGHTF3/fc/fc_tasks.o (symbol from plugin)
sysTickPending.lto_priv.342                       C:\cygwin64\tmp\ccTUqUH8.ltrans6.ltrans.o
                                                  C:\cygwin64\tmp\ccTUqUH8.ltrans5.ltrans.o
                                                  C:\cygwin64\tmp\ccTUqUH8.ltrans4.ltrans.o
                                                  C:\cygwin64\tmp\ccTUqUH8.ltrans3.ltrans.o
                                                  C:\cygwin64\tmp\ccTUqUH8.ltrans1.ltrans.o
                                                  C:\cygwin64\tmp\ccTUqUH8.ltrans0.ltrans.o
sysTickUptime.lto_priv.301                        C:\cygwin64\tmp\ccTUqUH8.ltrans6.ltrans.o
                                                  C:\cygwin64\tmp\ccTUqUH8.ltrans5.ltrans.o
                                                  C:\cygwin64\tmp\ccTUqUH8.ltrans4.ltrans.o
                                                  C:\cygwin64\tmp\ccTUqUH8.ltrans3.ltrans.o
                                                  C:\cygwin64\tmp\ccTUqUH8.ltrans2.ltrans.o
                                                  C:\cygwin64\tmp\ccTUqUH8.ltrans1.ltrans.o
                                                  C:\cygwin64\tmp\ccTUqUH8.ltrans0.ltrans.o
systemBeep                                        C:\cygwin64\tmp\ccTUqUH8.ltrans0.ltrans.o
                                                  obj/main/BETAFLIGHTF3/drivers/sound_beeper.o (symbol from plugin)
                                                  C:\cygwin64\tmp\ccTUqUH8.ltrans4.ltrans.o
                                                  obj/main/BETAFLIGHTF3/flight/pid.o (symbol from plugin)
                                                  obj/main/BETAFLIGHTF3/fc/fc_core.o (symbol from plugin)
                                                  obj/main/BETAFLIGHTF3/fc/fc_init.o (symbol from plugin)
                                                  obj/main/BETAFLIGHTF3/io/beeper.o (symbol from plugin)
                                                  obj/main/BETAFLIGHTF3/drivers/system.o (symbol from plugin)
systemBeepToggle                                  obj/main/BETAFLIGHTF3/drivers/sound_beeper.o (symbol from plugin)
systemConfig_Copy                                 C:\cygwin64\tmp\ccTUqUH8.ltrans6.ltrans.o
                                                  obj/main/BETAFLIGHTF3/fc/config.o (symbol from plugin)
                                                  C:\cygwin64\tmp\ccTUqUH8.ltrans3.ltrans.o
                                                  obj/main/BETAFLIGHTF3/interface/cli.o (symbol from plugin)
systemConfig_Registry                             C:\cygwin64\tmp\ccTUqUH8.ltrans6.ltrans.o
                                                  obj/main/BETAFLIGHTF3/fc/config.o (symbol from plugin)
systemConfig_System                               C:\cygwin64\tmp\ccTUqUH8.ltrans6.ltrans.o
                                                  obj/main/BETAFLIGHTF3/fc/config.o (symbol from plugin)
                                                  C:\cygwin64\tmp\ccTUqUH8.ltrans5.ltrans.o
                                                  C:\cygwin64\tmp\ccTUqUH8.ltrans4.ltrans.o
                                                  C:\cygwin64\tmp\ccTUqUH8.ltrans3.ltrans.o
                                                  C:\cygwin64\tmp\ccTUqUH8.ltrans1.ltrans.o
                                                  C:\cygwin64\tmp\ccTUqUH8.ltrans0.ltrans.o
                                                  obj/main/BETAFLIGHTF3/telemetry/crsf.o (symbol from plugin)
                                                  obj/main/BETAFLIGHTF3/io/displayport_max7456.o (symbol from plugin)
                                                  obj/main/BETAFLIGHTF3/cms/cms_menu_misc.o (symbol from plugin)
                                                  obj/main/BETAFLIGHTF3/blackbox/blackbox.o (symbol from plugin)
                                                  obj/main/BETAFLIGHTF3/interface/cli.o (symbol from plugin)
                                                  obj/main/BETAFLIGHTF3/fc/fc_core.o (symbol from plugin)
                                                  obj/main/BETAFLIGHTF3/fc/controlrate_profile.o (symbol from plugin)
                                                  obj/main/BETAFLIGHTF3/fc/fc_init.o (symbol from plugin)
                                                  obj/main/BETAFLIGHTF3/interface/msp.o (symbol from plugin)
systemInit                                        obj/main/BETAFLIGHTF3/drivers/system_stm32f30x.o (symbol from plugin)
                                                  obj/main/BETAFLIGHTF3/fc/fc_init.o (symbol from plugin)
systemReset                                       obj/main/BETAFLIGHTF3/drivers/system_stm32f30x.o (symbol from plugin)
                                                  obj/main/BETAFLIGHTF3/cms/cms.o (symbol from plugin)
                                                  obj/main/BETAFLIGHTF3/interface/cli.o (symbol from plugin)
                                                  obj/main/BETAFLIGHTF3/interface/msp.o (symbol from plugin)
systemResetToBootloader                           obj/main/BETAFLIGHTF3/drivers/system_stm32f30x.o (symbol from plugin)
                                                  obj/main/BETAFLIGHTF3/interface/cli.o (symbol from plugin)
                                                  obj/main/BETAFLIGHTF3/msp/msp_serial.o (symbol from plugin)
                                                  obj/main/BETAFLIGHTF3/drivers/system.o (symbol from plugin)
systemState                                       C:\cygwin64\tmp\ccTUqUH8.ltrans4.ltrans.o
                                                  obj/main/BETAFLIGHTF3/fc/fc_init.o (symbol from plugin)
                                                  C:\cygwin64\tmp\ccTUqUH8.ltrans0.ltrans.o
                                                  obj/main/BETAFLIGHTF3/fc/fc_hardfaults.o (symbol from plugin)
targetName                                        C:\cygwin64\tmp\ccTUqUH8.ltrans1.ltrans.o
                                                  obj/main/BETAFLIGHTF3/build/version.o (symbol from plugin)
                                                  obj/main/BETAFLIGHTF3/blackbox/blackbox.o (symbol from plugin)
                                                  obj/main/BETAFLIGHTF3/interface/cli.o (symbol from plugin)
targetPidLooptime                                 C:\cygwin64\tmp\ccTUqUH8.ltrans1.ltrans.o
                                                  obj/main/BETAFLIGHTF3/flight/pid.o (symbol from plugin)
                                                  C:\cygwin64\tmp\ccTUqUH8.ltrans4.ltrans.o
                                                  C:\cygwin64\tmp\ccTUqUH8.ltrans3.ltrans.o
                                                  obj/main/BETAFLIGHTF3/blackbox/blackbox_io.o (symbol from plugin)
                                                  obj/main/BETAFLIGHTF3/flight/servos.o (symbol from plugin)
                                                  obj/main/BETAFLIGHTF3/fc/fc_rc.o (symbol from plugin)
                                                  obj/main/BETAFLIGHTF3/fc/fc_core.o (symbol from plugin)
taskBatteryAlerts                                 C:\cygwin64\tmp\ccTUqUH8.ltrans0.ltrans.o
                                                  obj/main/BETAFLIGHTF3/fc/fc_tasks.o (symbol from plugin)
                                                  C:\cygwin64\tmp\ccTUqUH8.ltrans3.ltrans.o
taskCameraControl                                 C:\cygwin64\tmp\ccTUqUH8.ltrans0.ltrans.o
                                                  obj/main/BETAFLIGHTF3/fc/fc_tasks.o (symbol from plugin)
                                                  C:\cygwin64\tmp\ccTUqUH8.ltrans3.ltrans.o
taskHandleSerial.lto_priv.445                     C:\cygwin64\tmp\ccTUqUH8.ltrans0.ltrans.o
                                                  C:\cygwin64\tmp\ccTUqUH8.ltrans3.ltrans.o
taskMainPidLoop                                   obj/main/BETAFLIGHTF3/fc/fc_core.o (symbol from plugin)
                                                  obj/main/BETAFLIGHTF3/fc/fc_tasks.o (symbol from plugin)
taskQueueArray.lto_priv.559                       C:\cygwin64\tmp\ccTUqUH8.ltrans4.ltrans.o
                                                  C:\cygwin64\tmp\ccTUqUH8.ltrans0.ltrans.o
taskQueuePos.lto_priv.560                         C:\cygwin64\tmp\ccTUqUH8.ltrans4.ltrans.o
                                                  C:\cygwin64\tmp\ccTUqUH8.ltrans0.ltrans.o
taskQueueSize.lto_priv.561                        C:\cygwin64\tmp\ccTUqUH8.ltrans4.ltrans.o
                                                  C:\cygwin64\tmp\ccTUqUH8.ltrans0.ltrans.o
taskSerialCheck                                   obj/main/BETAFLIGHTF3/fc/fc_tasks.o (symbol from plugin)
taskSystem                                        C:\cygwin64\tmp\ccTUqUH8.ltrans4.ltrans.o
                                                  obj/main/BETAFLIGHTF3/scheduler/scheduler.o (symbol from plugin)
                                                  C:\cygwin64\tmp\ccTUqUH8.ltrans3.ltrans.o
                                                  obj/main/BETAFLIGHTF3/fc/fc_tasks.o (symbol from plugin)
taskTelemetry.lto_priv.446                        C:\cygwin64\tmp\ccTUqUH8.ltrans0.ltrans.o
                                                  C:\cygwin64\tmp\ccTUqUH8.ltrans3.ltrans.o
taskUpdateAccelerometer.lto_priv.443              C:\cygwin64\tmp\ccTUqUH8.ltrans0.ltrans.o
                                                  C:\cygwin64\tmp\ccTUqUH8.ltrans3.ltrans.o
taskUpdateRxMain.lto_priv.444                     C:\cygwin64\tmp\ccTUqUH8.ltrans0.ltrans.o
                                                  C:\cygwin64\tmp\ccTUqUH8.ltrans3.ltrans.o
telemetryBuf.lto_priv.565                         C:\cygwin64\tmp\ccTUqUH8.ltrans2.ltrans.o
                                                  C:\cygwin64\tmp\ccTUqUH8.ltrans0.ltrans.o
telemetryBuf.lto_priv.566                         C:\cygwin64\tmp\ccTUqUH8.ltrans1.ltrans.o
                                                  C:\cygwin64\tmp\ccTUqUH8.ltrans0.ltrans.o
telemetryBufLen.lto_priv.567                      C:\cygwin64\tmp\ccTUqUH8.ltrans2.ltrans.o
                                                  C:\cygwin64\tmp\ccTUqUH8.ltrans0.ltrans.o
telemetryBufLen.lto_priv.568                      C:\cygwin64\tmp\ccTUqUH8.ltrans1.ltrans.o
                                                  C:\cygwin64\tmp\ccTUqUH8.ltrans0.ltrans.o
telemetryCheckRxPortShared                        C:\cygwin64\tmp\ccTUqUH8.ltrans2.ltrans.o
                                                  obj/main/BETAFLIGHTF3/telemetry/telemetry.o (symbol from plugin)
                                                  C:\cygwin64\tmp\ccTUqUH8.ltrans6.ltrans.o
                                                  C:\cygwin64\tmp\ccTUqUH8.ltrans1.ltrans.o
                                                  C:\cygwin64\tmp\ccTUqUH8.ltrans0.ltrans.o
                                                  obj/main/BETAFLIGHTF3/telemetry/ltm.o (symbol from plugin)
                                                  obj/main/BETAFLIGHTF3/telemetry/frsky_hub.o (symbol from plugin)
                                                  obj/main/BETAFLIGHTF3/rx/xbus.o (symbol from plugin)
                                                  obj/main/BETAFLIGHTF3/rx/sumh.o (symbol from plugin)
                                                  obj/main/BETAFLIGHTF3/rx/sumd.o (symbol from plugin)
                                                  obj/main/BETAFLIGHTF3/rx/spektrum.o (symbol from plugin)
                                                  obj/main/BETAFLIGHTF3/rx/sbus.o (symbol from plugin)
                                                  obj/main/BETAFLIGHTF3/io/serial.o (symbol from plugin)
telemetryCheckRxPortShared.part.1                 C:\cygwin64\tmp\ccTUqUH8.ltrans2.ltrans.o
                                                  C:\cygwin64\tmp\ccTUqUH8.ltrans6.ltrans.o
telemetryCheckState                               C:\cygwin64\tmp\ccTUqUH8.ltrans2.ltrans.o
                                                  obj/main/BETAFLIGHTF3/telemetry/telemetry.o (symbol from plugin)
                                                  C:\cygwin64\tmp\ccTUqUH8.ltrans0.ltrans.o
                                                  obj/main/BETAFLIGHTF3/fc/fc_core.o (symbol from plugin)
                                                  obj/main/BETAFLIGHTF3/fc/fc_tasks.o (symbol from plugin)
telemetryConfig_Copy                              obj/main/BETAFLIGHTF3/telemetry/telemetry.o (symbol from plugin)
telemetryConfig_Registry                          C:\cygwin64\tmp\ccTUqUH8.ltrans2.ltrans.o
                                                  obj/main/BETAFLIGHTF3/telemetry/telemetry.o (symbol from plugin)
telemetryConfig_System                            C:\cygwin64\tmp\ccTUqUH8.ltrans2.ltrans.o
                                                  obj/main/BETAFLIGHTF3/telemetry/telemetry.o (symbol from plugin)
                                                  C:\cygwin64\tmp\ccTUqUH8.ltrans4.ltrans.o
                                                  C:\cygwin64\tmp\ccTUqUH8.ltrans0.ltrans.o
                                                  obj/main/BETAFLIGHTF3/telemetry/ltm.o (symbol from plugin)
                                                  obj/main/BETAFLIGHTF3/telemetry/smartport.o (symbol from plugin)
                                                  obj/main/BETAFLIGHTF3/telemetry/hott.o (symbol from plugin)
                                                  obj/main/BETAFLIGHTF3/telemetry/frsky_hub.o (symbol from plugin)
                                                  obj/main/BETAFLIGHTF3/fc/fc_core.o (symbol from plugin)
                                                  obj/main/BETAFLIGHTF3/interface/msp_box.o (symbol from plugin)
telemetryDetermineEnabledState                    C:\cygwin64\tmp\ccTUqUH8.ltrans2.ltrans.o
                                                  obj/main/BETAFLIGHTF3/telemetry/telemetry.o (symbol from plugin)
                                                  C:\cygwin64\tmp\ccTUqUH8.ltrans0.ltrans.o
                                                  obj/main/BETAFLIGHTF3/telemetry/ltm.o (symbol from plugin)
                                                  obj/main/BETAFLIGHTF3/telemetry/smartport.o (symbol from plugin)
                                                  obj/main/BETAFLIGHTF3/telemetry/hott.o (symbol from plugin)
                                                  obj/main/BETAFLIGHTF3/telemetry/frsky_hub.o (symbol from plugin)
telemetryInit                                     C:\cygwin64\tmp\ccTUqUH8.ltrans2.ltrans.o
                                                  obj/main/BETAFLIGHTF3/telemetry/telemetry.o (symbol from plugin)
                                                  C:\cygwin64\tmp\ccTUqUH8.ltrans4.ltrans.o
                                                  obj/main/BETAFLIGHTF3/fc/fc_init.o (symbol from plugin)
telemetryProcess                                  obj/main/BETAFLIGHTF3/telemetry/telemetry.o (symbol from plugin)
                                                  obj/main/BETAFLIGHTF3/fc/fc_tasks.o (symbol from plugin)
telemetrySharedPort                               C:\cygwin64\tmp\ccTUqUH8.ltrans2.ltrans.o
                                                  obj/main/BETAFLIGHTF3/telemetry/telemetry.o (symbol from plugin)
                                                  C:\cygwin64\tmp\ccTUqUH8.ltrans1.ltrans.o
                                                  C:\cygwin64\tmp\ccTUqUH8.ltrans0.ltrans.o
                                                  obj/main/BETAFLIGHTF3/telemetry/ltm.o (symbol from plugin)
                                                  obj/main/BETAFLIGHTF3/telemetry/frsky_hub.o (symbol from plugin)
                                                  obj/main/BETAFLIGHTF3/rx/xbus.o (symbol from plugin)
                                                  obj/main/BETAFLIGHTF3/rx/sumh.o (symbol from plugin)
                                                  obj/main/BETAFLIGHTF3/rx/sumd.o (symbol from plugin)
                                                  obj/main/BETAFLIGHTF3/rx/spektrum.o (symbol from plugin)
                                                  obj/main/BETAFLIGHTF3/rx/sbus.o (symbol from plugin)
telemetryState.lto_priv.313                       C:\cygwin64\tmp\ccTUqUH8.ltrans2.ltrans.o
                                                  C:\cygwin64\tmp\ccTUqUH8.ltrans0.ltrans.o
telemetryState.lto_priv.314                       C:\cygwin64\tmp\ccTUqUH8.ltrans2.ltrans.o
                                                  C:\cygwin64\tmp\ccTUqUH8.ltrans1.ltrans.o
                                                  C:\cygwin64\tmp\ccTUqUH8.ltrans0.ltrans.o
tfp_format                                        C:\cygwin64\tmp\ccTUqUH8.ltrans5.ltrans.o
                                                  obj/main/BETAFLIGHTF3/common/printf.o (symbol from plugin)
                                                  C:\cygwin64\tmp\ccTUqUH8.ltrans3.ltrans.o
                                                  C:\cygwin64\tmp\ccTUqUH8.ltrans1.ltrans.o
                                                  obj/main/BETAFLIGHTF3/blackbox/blackbox_encoding.o (symbol from plugin)
                                                  obj/main/BETAFLIGHTF3/interface/cli.o (symbol from plugin)
tfp_printf                                        C:\cygwin64\tmp\ccTUqUH8.ltrans5.ltrans.o
                                                  obj/main/BETAFLIGHTF3/common/printf.o (symbol from plugin)
                                                  C:\cygwin64\tmp\ccTUqUH8.ltrans3.ltrans.o
                                                  obj/main/BETAFLIGHTF3/interface/cli.o (symbol from plugin)
tfp_sprintf                                       C:\cygwin64\tmp\ccTUqUH8.ltrans5.ltrans.o
                                                  obj/main/BETAFLIGHTF3/common/printf.o (symbol from plugin)
                                                  C:\cygwin64\tmp\ccTUqUH8.ltrans6.ltrans.o
                                                  C:\cygwin64\tmp\ccTUqUH8.ltrans4.ltrans.o
                                                  C:\cygwin64\tmp\ccTUqUH8.ltrans2.ltrans.o
                                                  C:\cygwin64\tmp\ccTUqUH8.ltrans1.ltrans.o
                                                  C:\cygwin64\tmp\ccTUqUH8.ltrans0.ltrans.o
                                                  obj/main/BETAFLIGHTF3/telemetry/crsf.o (symbol from plugin)
                                                  obj/main/BETAFLIGHTF3/io/ledstrip.o (symbol from plugin)
                                                  obj/main/BETAFLIGHTF3/cms/cms_menu_vtx_tramp.o (symbol from plugin)
                                                  obj/main/BETAFLIGHTF3/cms/cms_menu_vtx_smartaudio.o (symbol from plugin)
                                                  obj/main/BETAFLIGHTF3/cms/cms_menu_blackbox.o (symbol from plugin)
                                                  obj/main/BETAFLIGHTF3/common/time.o (symbol from plugin)
                                                  obj/main/BETAFLIGHTF3/io/osd.o (symbol from plugin)
throttleAngleScale.lto_priv.625                   C:\cygwin64\tmp\ccTUqUH8.ltrans3.ltrans.o
                                                  C:\cygwin64\tmp\ccTUqUH8.ltrans0.ltrans.o
throttleCorrectionConfig_Copy                     obj/main/BETAFLIGHTF3/fc/fc_core.o (symbol from plugin)
throttleCorrectionConfig_Registry                 C:\cygwin64\tmp\ccTUqUH8.ltrans3.ltrans.o
                                                  obj/main/BETAFLIGHTF3/fc/fc_core.o (symbol from plugin)
throttleCorrectionConfig_System                   C:\cygwin64\tmp\ccTUqUH8.ltrans3.ltrans.o
                                                  obj/main/BETAFLIGHTF3/fc/fc_core.o (symbol from plugin)
                                                  C:\cygwin64\tmp\ccTUqUH8.ltrans0.ltrans.o
                                                  obj/main/BETAFLIGHTF3/fc/config.o (symbol from plugin)
throttlePIDAttenuation.lto_priv.584               C:\cygwin64\tmp\ccTUqUH8.ltrans3.ltrans.o
                                                  C:\cygwin64\tmp\ccTUqUH8.ltrans0.ltrans.o
timeConfig_Copy                                   obj/main/BETAFLIGHTF3/common/time.o (symbol from plugin)
timeConfig_Registry                               C:\cygwin64\tmp\ccTUqUH8.ltrans1.ltrans.o
                                                  obj/main/BETAFLIGHTF3/common/time.o (symbol from plugin)
timeConfig_System                                 C:\cygwin64\tmp\ccTUqUH8.ltrans1.ltrans.o
                                                  obj/main/BETAFLIGHTF3/common/time.o (symbol from plugin)
                                                  C:\cygwin64\tmp\ccTUqUH8.ltrans5.ltrans.o
                                                  C:\cygwin64\tmp\ccTUqUH8.ltrans3.ltrans.o
timer.lto_priv.695                                C:\cygwin64\tmp\ccTUqUH8.ltrans1.ltrans.o
                                                  C:\cygwin64\tmp\ccTUqUH8.ltrans5.ltrans.o
timerAlarm                                        obj/main/BETAFLIGHTF3/cms/cms_menu_osd.o (symbol from plugin)
timerCCR                                          obj/main/BETAFLIGHTF3/drivers/timer.o (symbol from plugin)
                                                  obj/main/BETAFLIGHTF3/drivers/light_ws2811strip_stdperiph.o (symbol from plugin)
timerChCCHandlerInit                              obj/main/BETAFLIGHTF3/drivers/timer.o (symbol from plugin)
                                                  obj/main/BETAFLIGHTF3/drivers/serial_escserial.o (symbol from plugin)
                                                  obj/main/BETAFLIGHTF3/drivers/serial_softserial.o (symbol from plugin)
                                                  obj/main/BETAFLIGHTF3/drivers/rx/rx_pwm.o (symbol from plugin)
timerChCCR                                        obj/main/BETAFLIGHTF3/drivers/timer.o (symbol from plugin)
                                                  obj/main/BETAFLIGHTF3/drivers/pwm_output.o (symbol from plugin)
timerChCCRHi                                      obj/main/BETAFLIGHTF3/drivers/timer.o (symbol from plugin)
timerChCCRLo                                      obj/main/BETAFLIGHTF3/drivers/timer.o (symbol from plugin)
timerChClearCCFlag                                obj/main/BETAFLIGHTF3/drivers/timer.o (symbol from plugin)
                                                  obj/main/BETAFLIGHTF3/drivers/serial_escserial.o (symbol from plugin)
timerChConfigCallbacks                            C:\cygwin64\tmp\ccTUqUH8.ltrans0.ltrans.o
                                                  obj/main/BETAFLIGHTF3/drivers/timer.o (symbol from plugin)
                                                  C:\cygwin64\tmp\ccTUqUH8.ltrans6.ltrans.o
                                                  C:\cygwin64\tmp\ccTUqUH8.ltrans4.ltrans.o
                                                  C:\cygwin64\tmp\ccTUqUH8.ltrans2.ltrans.o
                                                  obj/main/BETAFLIGHTF3/drivers/serial_escserial.o (symbol from plugin)
                                                  obj/main/BETAFLIGHTF3/drivers/serial_softserial.o (symbol from plugin)
                                                  obj/main/BETAFLIGHTF3/drivers/rx/rx_pwm.o (symbol from plugin)
timerChConfigCallbacks.constprop.180              C:\cygwin64\tmp\ccTUqUH8.ltrans6.ltrans.o
                                                  C:\cygwin64\tmp\ccTUqUH8.ltrans4.ltrans.o
                                                  C:\cygwin64\tmp\ccTUqUH8.ltrans2.ltrans.o
timerChConfigCallbacksDual                        obj/main/BETAFLIGHTF3/drivers/timer.o (symbol from plugin)
timerChConfigGPIO                                 obj/main/BETAFLIGHTF3/drivers/timer.o (symbol from plugin)
timerChConfigIC                                   obj/main/BETAFLIGHTF3/drivers/timer.o (symbol from plugin)
                                                  obj/main/BETAFLIGHTF3/drivers/serial_escserial.o (symbol from plugin)
                                                  obj/main/BETAFLIGHTF3/drivers/serial_softserial.o (symbol from plugin)
timerChConfigIC.constprop.178                     C:\cygwin64\tmp\ccTUqUH8.ltrans6.ltrans.o
                                                  C:\cygwin64\tmp\ccTUqUH8.ltrans4.ltrans.o
                                                  C:\cygwin64\tmp\ccTUqUH8.ltrans2.ltrans.o
                                                  C:\cygwin64\tmp\ccTUqUH8.ltrans1.ltrans.o
timerChConfigICDual                               obj/main/BETAFLIGHTF3/drivers/timer.o (symbol from plugin)
timerChConfigOC                                   obj/main/BETAFLIGHTF3/drivers/timer.o (symbol from plugin)
timerChICPolarity                                 obj/main/BETAFLIGHTF3/drivers/timer.o (symbol from plugin)
timerChITConfig                                   obj/main/BETAFLIGHTF3/drivers/timer.o (symbol from plugin)
                                                  obj/main/BETAFLIGHTF3/drivers/serial_escserial.o (symbol from plugin)
timerChITConfigDualLo                             obj/main/BETAFLIGHTF3/drivers/timer.o (symbol from plugin)
timerChInit                                       obj/main/BETAFLIGHTF3/drivers/timer.o (symbol from plugin)
timerChOvrHandlerInit                             obj/main/BETAFLIGHTF3/drivers/timer.o (symbol from plugin)
                                                  obj/main/BETAFLIGHTF3/drivers/serial_softserial.o (symbol from plugin)
                                                  obj/main/BETAFLIGHTF3/drivers/rx/rx_pwm.o (symbol from plugin)
timerChannelInfo                                  obj/main/BETAFLIGHTF3/drivers/timer.o (symbol from plugin)
timerClock                                        obj/main/BETAFLIGHTF3/drivers/timer_stm32f30x.o (symbol from plugin)
                                                  obj/main/BETAFLIGHTF3/drivers/serial_softserial.o (symbol from plugin)
                                                  obj/main/BETAFLIGHTF3/drivers/rx/rx_pwm.o (symbol from plugin)
                                                  obj/main/BETAFLIGHTF3/drivers/pwm_output.o (symbol from plugin)
                                                  obj/main/BETAFLIGHTF3/drivers/timer.o (symbol from plugin)
                                                  obj/main/BETAFLIGHTF3/drivers/pwm_output_dshot.o (symbol from plugin)
timerConfig                                       C:\cygwin64\tmp\ccTUqUH8.ltrans6.ltrans.o
                                                  obj/main/BETAFLIGHTF3/drivers/timer.o (symbol from plugin)
                                                  C:\cygwin64\tmp\ccTUqUH8.ltrans4.ltrans.o
                                                  C:\cygwin64\tmp\ccTUqUH8.ltrans0.ltrans.o
timerConfigure                                    C:\cygwin64\tmp\ccTUqUH8.ltrans0.ltrans.o
                                                  obj/main/BETAFLIGHTF3/drivers/timer.o (symbol from plugin)
                                                  C:\cygwin64\tmp\ccTUqUH8.ltrans6.ltrans.o
                                                  C:\cygwin64\tmp\ccTUqUH8.ltrans4.ltrans.o
                                                  C:\cygwin64\tmp\ccTUqUH8.ltrans2.ltrans.o
                                                  obj/main/BETAFLIGHTF3/drivers/serial_escserial.o (symbol from plugin)
                                                  obj/main/BETAFLIGHTF3/drivers/serial_softserial.o (symbol from plugin)
                                                  obj/main/BETAFLIGHTF3/drivers/rx/rx_pwm.o (symbol from plugin)
timerDefinitions                                  obj/main/BETAFLIGHTF3/drivers/timer_stm32f30x.o (symbol from plugin)
                                                  obj/main/BETAFLIGHTF3/drivers/timer.o (symbol from plugin)
timerDmaSource                                    obj/main/BETAFLIGHTF3/drivers/timer.o (symbol from plugin)
                                                  obj/main/BETAFLIGHTF3/drivers/light_ws2811strip_stdperiph.o (symbol from plugin)
timerForceOverflow                                obj/main/BETAFLIGHTF3/drivers/timer.o (symbol from plugin)
                                                  obj/main/BETAFLIGHTF3/drivers/pwm_output.o (symbol from plugin)
timerGetByTag                                     obj/main/BETAFLIGHTF3/drivers/timer.o (symbol from plugin)
                                                  obj/main/BETAFLIGHTF3/drivers/serial_escserial.o (symbol from plugin)
                                                  obj/main/BETAFLIGHTF3/drivers/serial_softserial.o (symbol from plugin)
                                                  obj/main/BETAFLIGHTF3/drivers/rx/rx_pwm.o (symbol from plugin)
                                                  obj/main/BETAFLIGHTF3/drivers/pwm_output.o (symbol from plugin)
                                                  obj/main/BETAFLIGHTF3/drivers/camera_control.o (symbol from plugin)
                                                  obj/main/BETAFLIGHTF3/drivers/light_ws2811strip_stdperiph.o (symbol from plugin)
timerGetByTag.constprop.220                       C:\cygwin64\tmp\ccTUqUH8.ltrans6.ltrans.o
                                                  C:\cygwin64\tmp\ccTUqUH8.ltrans5.ltrans.o
                                                  C:\cygwin64\tmp\ccTUqUH8.ltrans4.ltrans.o
                                                  C:\cygwin64\tmp\ccTUqUH8.ltrans2.ltrans.o
timerGetPeriodByPrescaler                         obj/main/BETAFLIGHTF3/drivers/timer.o (symbol from plugin)
                                                  obj/main/BETAFLIGHTF3/drivers/light_ws2811strip_stdperiph.o (symbol from plugin)
timerGetPrescalerByDesiredHertz                   obj/main/BETAFLIGHTF3/drivers/timer.o (symbol from plugin)
timerGetPrescalerByDesiredMhz                     obj/main/BETAFLIGHTF3/drivers/timer.o (symbol from plugin)
                                                  obj/main/BETAFLIGHTF3/drivers/light_ws2811strip_stdperiph.o (symbol from plugin)
timerGetTIMNumber                                 obj/main/BETAFLIGHTF3/drivers/timer.o (symbol from plugin)
                                                  obj/main/BETAFLIGHTF3/drivers/pwm_output_dshot.o (symbol from plugin)
timerHardware                                     C:\cygwin64\tmp\ccTUqUH8.ltrans6.ltrans.o
                                                  obj/main/BETAFLIGHTF3/target.o (symbol from plugin)
                                                  C:\cygwin64\tmp\ccTUqUH8.ltrans4.ltrans.o
                                                  C:\cygwin64\tmp\ccTUqUH8.ltrans3.ltrans.o
                                                  C:\cygwin64\tmp\ccTUqUH8.ltrans2.ltrans.o
                                                  C:\cygwin64\tmp\ccTUqUH8.ltrans0.ltrans.o
                                                  obj/main/BETAFLIGHTF3/io/ledstrip.o (symbol from plugin)
                                                  obj/main/BETAFLIGHTF3/drivers/serial_escserial.o (symbol from plugin)
                                                  obj/main/BETAFLIGHTF3/flight/servos.o (symbol from plugin)
                                                  obj/main/BETAFLIGHTF3/flight/mixer.o (symbol from plugin)
                                                  obj/main/BETAFLIGHTF3/pg/rx_pwm.o (symbol from plugin)
                                                  obj/main/BETAFLIGHTF3/drivers/timer.o (symbol from plugin)
timerInfo                                         obj/main/BETAFLIGHTF3/drivers/timer.o (symbol from plugin)
timerInit                                         C:\cygwin64\tmp\ccTUqUH8.ltrans0.ltrans.o
                                                  obj/main/BETAFLIGHTF3/drivers/timer.o (symbol from plugin)
                                                  C:\cygwin64\tmp\ccTUqUH8.ltrans4.ltrans.o
                                                  obj/main/BETAFLIGHTF3/fc/fc_init.o (symbol from plugin)
timerInputIrq                                     obj/main/BETAFLIGHTF3/drivers/timer.o (symbol from plugin)
timerLookupChannelIndex                           obj/main/BETAFLIGHTF3/drivers/timer.o (symbol from plugin)
                                                  obj/main/BETAFLIGHTF3/drivers/pwm_output_dshot.o (symbol from plugin)
timerNVICConfigure                                obj/main/BETAFLIGHTF3/drivers/timer.o (symbol from plugin)
timerNumbers                                      obj/main/BETAFLIGHTF3/drivers/timer.o (symbol from plugin)
timerOCInit                                       C:\cygwin64\tmp\ccTUqUH8.ltrans0.ltrans.o
                                                  obj/main/BETAFLIGHTF3/drivers/timer.o (symbol from plugin)
                                                  C:\cygwin64\tmp\ccTUqUH8.ltrans6.ltrans.o
                                                  C:\cygwin64\tmp\ccTUqUH8.ltrans5.ltrans.o
                                                  obj/main/BETAFLIGHTF3/drivers/pwm_output.o (symbol from plugin)
                                                  obj/main/BETAFLIGHTF3/drivers/pwm_output_dshot.o (symbol from plugin)
                                                  obj/main/BETAFLIGHTF3/drivers/light_ws2811strip_stdperiph.o (symbol from plugin)
timerOCPreloadConfig                              obj/main/BETAFLIGHTF3/drivers/timer.o (symbol from plugin)
                                                  obj/main/BETAFLIGHTF3/drivers/pwm_output.o (symbol from plugin)
                                                  obj/main/BETAFLIGHTF3/drivers/pwm_output_dshot.o (symbol from plugin)
                                                  obj/main/BETAFLIGHTF3/drivers/light_ws2811strip_stdperiph.o (symbol from plugin)
timerOCPreloadConfig.constprop.226                C:\cygwin64\tmp\ccTUqUH8.ltrans6.ltrans.o
                                                  C:\cygwin64\tmp\ccTUqUH8.ltrans5.ltrans.o
timerPrecision                                    obj/main/BETAFLIGHTF3/cms/cms_menu_osd.o (symbol from plugin)
timerRCC                                          C:\cygwin64\tmp\ccTUqUH8.ltrans0.ltrans.o
                                                  obj/main/BETAFLIGHTF3/drivers/timer.o (symbol from plugin)
                                                  C:\cygwin64\tmp\ccTUqUH8.ltrans6.ltrans.o
                                                  C:\cygwin64\tmp\ccTUqUH8.ltrans5.ltrans.o
                                                  obj/main/BETAFLIGHTF3/drivers/pwm_output_dshot.o (symbol from plugin)
                                                  obj/main/BETAFLIGHTF3/drivers/light_ws2811strip_stdperiph.o (symbol from plugin)
timerSource                                       obj/main/BETAFLIGHTF3/cms/cms_menu_osd.o (symbol from plugin)
timerStart                                        obj/main/BETAFLIGHTF3/drivers/timer.o (symbol from plugin)
                                                  obj/main/BETAFLIGHTF3/fc/fc_init.o (symbol from plugin)
tolower                                           C:\cygwin64\tmp\ccTUqUH8.ltrans5.ltrans.o
toupper                                           C:\cygwin64\tmp\ccTUqUH8.ltrans5.ltrans.o
                                                  C:\cygwin64\tmp\ccTUqUH8.ltrans3.ltrans.o
                                                  C:\cygwin64\tmp\ccTUqUH8.ltrans2.ltrans.o
trampBand                                         C:\cygwin64\tmp\ccTUqUH8.ltrans2.ltrans.o
                                                  obj/main/BETAFLIGHTF3/io/vtx_tramp.o (symbol from plugin)
                                                  C:\cygwin64\tmp\ccTUqUH8.ltrans1.ltrans.o
                                                  obj/main/BETAFLIGHTF3/cms/cms_menu_vtx_tramp.o (symbol from plugin)
trampChannel                                      C:\cygwin64\tmp\ccTUqUH8.ltrans2.ltrans.o
                                                  obj/main/BETAFLIGHTF3/io/vtx_tramp.o (symbol from plugin)
                                                  C:\cygwin64\tmp\ccTUqUH8.ltrans1.ltrans.o
                                                  obj/main/BETAFLIGHTF3/cms/cms_menu_vtx_tramp.o (symbol from plugin)
trampCmdU16                                       C:\cygwin64\tmp\ccTUqUH8.ltrans2.ltrans.o
                                                  obj/main/BETAFLIGHTF3/io/vtx_tramp.o (symbol from plugin)
                                                  C:\cygwin64\tmp\ccTUqUH8.ltrans1.ltrans.o
trampCmsBand                                      obj/main/BETAFLIGHTF3/cms/cms_menu_vtx_tramp.o (symbol from plugin)
trampCmsChan                                      obj/main/BETAFLIGHTF3/cms/cms_menu_vtx_tramp.o (symbol from plugin)
trampCmsFreqRef                                   obj/main/BETAFLIGHTF3/cms/cms_menu_vtx_tramp.o (symbol from plugin)
trampCmsPitMode                                   obj/main/BETAFLIGHTF3/cms/cms_menu_vtx_tramp.o (symbol from plugin)
trampCmsStatusString                              C:\cygwin64\tmp\ccTUqUH8.ltrans2.ltrans.o
                                                  obj/main/BETAFLIGHTF3/cms/cms_menu_vtx_tramp.o (symbol from plugin)
                                                  C:\cygwin64\tmp\ccTUqUH8.ltrans1.ltrans.o
trampCmsUpdateStatusString                        obj/main/BETAFLIGHTF3/cms/cms_menu_vtx_tramp.o (symbol from plugin)
                                                  obj/main/BETAFLIGHTF3/io/vtx_tramp.o (symbol from plugin)
trampCommitChanges                                C:\cygwin64\tmp\ccTUqUH8.ltrans2.ltrans.o
                                                  obj/main/BETAFLIGHTF3/io/vtx_tramp.o (symbol from plugin)
                                                  C:\cygwin64\tmp\ccTUqUH8.ltrans1.ltrans.o
                                                  obj/main/BETAFLIGHTF3/cms/cms_menu_vtx_tramp.o (symbol from plugin)
trampConfFreq                                     obj/main/BETAFLIGHTF3/io/vtx_tramp.o (symbol from plugin)
trampConfPower                                    C:\cygwin64\tmp\ccTUqUH8.ltrans2.ltrans.o
                                                  obj/main/BETAFLIGHTF3/io/vtx_tramp.o (symbol from plugin)
                                                  C:\cygwin64\tmp\ccTUqUH8.ltrans1.ltrans.o
trampConfiguredPower                              C:\cygwin64\tmp\ccTUqUH8.ltrans2.ltrans.o
                                                  obj/main/BETAFLIGHTF3/io/vtx_tramp.o (symbol from plugin)
                                                  C:\cygwin64\tmp\ccTUqUH8.ltrans1.ltrans.o
                                                  obj/main/BETAFLIGHTF3/cms/cms_menu_vtx_tramp.o (symbol from plugin)
trampCurFreq                                      obj/main/BETAFLIGHTF3/io/vtx_tramp.o (symbol from plugin)
                                                  obj/main/BETAFLIGHTF3/cms/cms_menu_vtx_tramp.o (symbol from plugin)
trampFreqRetries                                  obj/main/BETAFLIGHTF3/io/vtx_tramp.o (symbol from plugin)
trampHandleResponse                               obj/main/BETAFLIGHTF3/io/vtx_tramp.o (symbol from plugin)
trampPitMode                                      C:\cygwin64\tmp\ccTUqUH8.ltrans2.ltrans.o
                                                  obj/main/BETAFLIGHTF3/io/vtx_tramp.o (symbol from plugin)
                                                  C:\cygwin64\tmp\ccTUqUH8.ltrans1.ltrans.o
                                                  obj/main/BETAFLIGHTF3/cms/cms_menu_vtx_tramp.o (symbol from plugin)
trampPower                                        C:\cygwin64\tmp\ccTUqUH8.ltrans2.ltrans.o
                                                  obj/main/BETAFLIGHTF3/io/vtx_tramp.o (symbol from plugin)
                                                  C:\cygwin64\tmp\ccTUqUH8.ltrans1.ltrans.o
                                                  obj/main/BETAFLIGHTF3/cms/cms_menu_vtx_tramp.o (symbol from plugin)
trampPowerNames                                   C:\cygwin64\tmp\ccTUqUH8.ltrans1.ltrans.o
                                                  obj/main/BETAFLIGHTF3/io/vtx_tramp.o (symbol from plugin)
                                                  C:\cygwin64\tmp\ccTUqUH8.ltrans4.ltrans.o
                                                  obj/main/BETAFLIGHTF3/cms/cms_menu_vtx_tramp.o (symbol from plugin)
trampPowerRetries                                 C:\cygwin64\tmp\ccTUqUH8.ltrans2.ltrans.o
                                                  obj/main/BETAFLIGHTF3/io/vtx_tramp.o (symbol from plugin)
                                                  C:\cygwin64\tmp\ccTUqUH8.ltrans1.ltrans.o
trampPowerTable                                   C:\cygwin64\tmp\ccTUqUH8.ltrans2.ltrans.o
                                                  obj/main/BETAFLIGHTF3/io/vtx_tramp.o (symbol from plugin)
                                                  C:\cygwin64\tmp\ccTUqUH8.ltrans1.ltrans.o
                                                  obj/main/BETAFLIGHTF3/cms/cms_menu_vtx_tramp.o (symbol from plugin)
trampQuery                                        obj/main/BETAFLIGHTF3/io/vtx_tramp.o (symbol from plugin)
trampQueryR                                       obj/main/BETAFLIGHTF3/io/vtx_tramp.o (symbol from plugin)
trampQueryS                                       obj/main/BETAFLIGHTF3/io/vtx_tramp.o (symbol from plugin)
trampQueryV                                       obj/main/BETAFLIGHTF3/io/vtx_tramp.o (symbol from plugin)
trampRFFreqMax                                    obj/main/BETAFLIGHTF3/io/vtx_tramp.o (symbol from plugin)
trampRFFreqMin                                    obj/main/BETAFLIGHTF3/io/vtx_tramp.o (symbol from plugin)
trampRFPowerMax                                   obj/main/BETAFLIGHTF3/io/vtx_tramp.o (symbol from plugin)
trampSendFreq                                     obj/main/BETAFLIGHTF3/io/vtx_tramp.o (symbol from plugin)
trampSendRFPower                                  obj/main/BETAFLIGHTF3/io/vtx_tramp.o (symbol from plugin)
trampSerialPort.lto_priv.474                      C:\cygwin64\tmp\ccTUqUH8.ltrans2.ltrans.o
                                                  C:\cygwin64\tmp\ccTUqUH8.ltrans4.ltrans.o
trampSetBandAndChannel                            C:\cygwin64\tmp\ccTUqUH8.ltrans2.ltrans.o
                                                  obj/main/BETAFLIGHTF3/io/vtx_tramp.o (symbol from plugin)
                                                  C:\cygwin64\tmp\ccTUqUH8.ltrans1.ltrans.o
                                                  obj/main/BETAFLIGHTF3/cms/cms_menu_vtx_tramp.o (symbol from plugin)
trampSetByFreqFlag                                obj/main/BETAFLIGHTF3/io/vtx_tramp.o (symbol from plugin)
trampSetFreq                                      obj/main/BETAFLIGHTF3/io/vtx_tramp.o (symbol from plugin)
trampSetPitMode                                   obj/main/BETAFLIGHTF3/io/vtx_tramp.o (symbol from plugin)
                                                  obj/main/BETAFLIGHTF3/cms/cms_menu_vtx_tramp.o (symbol from plugin)
trampSetRFPower                                   obj/main/BETAFLIGHTF3/io/vtx_tramp.o (symbol from plugin)
                                                  obj/main/BETAFLIGHTF3/cms/cms_menu_vtx_tramp.o (symbol from plugin)
trampStatus                                       obj/main/BETAFLIGHTF3/io/vtx_tramp.o (symbol from plugin)
trampTemperature                                  C:\cygwin64\tmp\ccTUqUH8.ltrans2.ltrans.o
                                                  obj/main/BETAFLIGHTF3/io/vtx_tramp.o (symbol from plugin)
                                                  C:\cygwin64\tmp\ccTUqUH8.ltrans1.ltrans.o
                                                  obj/main/BETAFLIGHTF3/cms/cms_menu_vtx_tramp.o (symbol from plugin)
tricopterMixerConfig_Copy                         obj/main/BETAFLIGHTF3/flight/mixer_tricopter.o (symbol from plugin)
tricopterMixerConfig_Registry                     C:\cygwin64\tmp\ccTUqUH8.ltrans5.ltrans.o
                                                  obj/main/BETAFLIGHTF3/flight/mixer_tricopter.o (symbol from plugin)
tricopterMixerConfig_System                       obj/main/BETAFLIGHTF3/flight/mixer_tricopter.o (symbol from plugin)
tryArm                                            C:\cygwin64\tmp\ccTUqUH8.ltrans4.ltrans.o
                                                  obj/main/BETAFLIGHTF3/fc/fc_core.o (symbol from plugin)
                                                  C:\cygwin64\tmp\ccTUqUH8.ltrans0.ltrans.o
                                                  obj/main/BETAFLIGHTF3/fc/rc_controls.o (symbol from plugin)
twiddleCoef_1024                                  obj/main/BETAFLIGHTF3/./lib/main/DSP_Lib/Source/CommonTables/arm_common_tables.o (symbol from plugin)
                                                  obj/main/BETAFLIGHTF3/./lib/main/DSP_Lib/Source/TransformFunctions/arm_rfft_fast_init_f32.o (symbol from plugin)
twiddleCoef_1024_q15                              obj/main/BETAFLIGHTF3/./lib/main/DSP_Lib/Source/CommonTables/arm_common_tables.o (symbol from plugin)
twiddleCoef_1024_q31                              obj/main/BETAFLIGHTF3/./lib/main/DSP_Lib/Source/CommonTables/arm_common_tables.o (symbol from plugin)
twiddleCoef_128                                   obj/main/BETAFLIGHTF3/./lib/main/DSP_Lib/Source/CommonTables/arm_common_tables.o (symbol from plugin)
                                                  obj/main/BETAFLIGHTF3/./lib/main/DSP_Lib/Source/TransformFunctions/arm_rfft_fast_init_f32.o (symbol from plugin)
twiddleCoef_128_q15                               obj/main/BETAFLIGHTF3/./lib/main/DSP_Lib/Source/CommonTables/arm_common_tables.o (symbol from plugin)
twiddleCoef_128_q31                               obj/main/BETAFLIGHTF3/./lib/main/DSP_Lib/Source/CommonTables/arm_common_tables.o (symbol from plugin)
twiddleCoef_16                                    obj/main/BETAFLIGHTF3/./lib/main/DSP_Lib/Source/CommonTables/arm_common_tables.o (symbol from plugin)
                                                  obj/main/BETAFLIGHTF3/./lib/main/DSP_Lib/Source/TransformFunctions/arm_rfft_fast_init_f32.o (symbol from plugin)
twiddleCoef_16_q15                                obj/main/BETAFLIGHTF3/./lib/main/DSP_Lib/Source/CommonTables/arm_common_tables.o (symbol from plugin)
twiddleCoef_16_q31                                obj/main/BETAFLIGHTF3/./lib/main/DSP_Lib/Source/CommonTables/arm_common_tables.o (symbol from plugin)
twiddleCoef_2048                                  obj/main/BETAFLIGHTF3/./lib/main/DSP_Lib/Source/CommonTables/arm_common_tables.o (symbol from plugin)
                                                  obj/main/BETAFLIGHTF3/./lib/main/DSP_Lib/Source/TransformFunctions/arm_rfft_fast_init_f32.o (symbol from plugin)
twiddleCoef_2048_q15                              obj/main/BETAFLIGHTF3/./lib/main/DSP_Lib/Source/CommonTables/arm_common_tables.o (symbol from plugin)
twiddleCoef_2048_q31                              obj/main/BETAFLIGHTF3/./lib/main/DSP_Lib/Source/CommonTables/arm_common_tables.o (symbol from plugin)
twiddleCoef_256                                   obj/main/BETAFLIGHTF3/./lib/main/DSP_Lib/Source/CommonTables/arm_common_tables.o (symbol from plugin)
                                                  obj/main/BETAFLIGHTF3/./lib/main/DSP_Lib/Source/TransformFunctions/arm_rfft_fast_init_f32.o (symbol from plugin)
twiddleCoef_256_q15                               obj/main/BETAFLIGHTF3/./lib/main/DSP_Lib/Source/CommonTables/arm_common_tables.o (symbol from plugin)
twiddleCoef_256_q31                               obj/main/BETAFLIGHTF3/./lib/main/DSP_Lib/Source/CommonTables/arm_common_tables.o (symbol from plugin)
twiddleCoef_32                                    obj/main/BETAFLIGHTF3/./lib/main/DSP_Lib/Source/CommonTables/arm_common_tables.o (symbol from plugin)
                                                  obj/main/BETAFLIGHTF3/./lib/main/DSP_Lib/Source/TransformFunctions/arm_rfft_fast_init_f32.o (symbol from plugin)
twiddleCoef_32_q15                                obj/main/BETAFLIGHTF3/./lib/main/DSP_Lib/Source/CommonTables/arm_common_tables.o (symbol from plugin)
twiddleCoef_32_q31                                obj/main/BETAFLIGHTF3/./lib/main/DSP_Lib/Source/CommonTables/arm_common_tables.o (symbol from plugin)
twiddleCoef_4096                                  obj/main/BETAFLIGHTF3/./lib/main/DSP_Lib/Source/CommonTables/arm_common_tables.o (symbol from plugin)
twiddleCoef_4096_q15                              obj/main/BETAFLIGHTF3/./lib/main/DSP_Lib/Source/CommonTables/arm_common_tables.o (symbol from plugin)
twiddleCoef_4096_q31                              obj/main/BETAFLIGHTF3/./lib/main/DSP_Lib/Source/CommonTables/arm_common_tables.o (symbol from plugin)
twiddleCoef_512                                   obj/main/BETAFLIGHTF3/./lib/main/DSP_Lib/Source/CommonTables/arm_common_tables.o (symbol from plugin)
                                                  obj/main/BETAFLIGHTF3/./lib/main/DSP_Lib/Source/TransformFunctions/arm_rfft_fast_init_f32.o (symbol from plugin)
twiddleCoef_512_q15                               obj/main/BETAFLIGHTF3/./lib/main/DSP_Lib/Source/CommonTables/arm_common_tables.o (symbol from plugin)
twiddleCoef_512_q31                               obj/main/BETAFLIGHTF3/./lib/main/DSP_Lib/Source/CommonTables/arm_common_tables.o (symbol from plugin)
twiddleCoef_64                                    obj/main/BETAFLIGHTF3/./lib/main/DSP_Lib/Source/CommonTables/arm_common_tables.o (symbol from plugin)
                                                  obj/main/BETAFLIGHTF3/./lib/main/DSP_Lib/Source/TransformFunctions/arm_rfft_fast_init_f32.o (symbol from plugin)
twiddleCoef_64_q15                                obj/main/BETAFLIGHTF3/./lib/main/DSP_Lib/Source/CommonTables/arm_common_tables.o (symbol from plugin)
twiddleCoef_64_q31                                obj/main/BETAFLIGHTF3/./lib/main/DSP_Lib/Source/CommonTables/arm_common_tables.o (symbol from plugin)
twiddleCoef_rfft_1024                             obj/main/BETAFLIGHTF3/./lib/main/DSP_Lib/Source/CommonTables/arm_common_tables.o (symbol from plugin)
                                                  obj/main/BETAFLIGHTF3/./lib/main/DSP_Lib/Source/TransformFunctions/arm_rfft_fast_init_f32.o (symbol from plugin)
twiddleCoef_rfft_128                              obj/main/BETAFLIGHTF3/./lib/main/DSP_Lib/Source/CommonTables/arm_common_tables.o (symbol from plugin)
                                                  obj/main/BETAFLIGHTF3/./lib/main/DSP_Lib/Source/TransformFunctions/arm_rfft_fast_init_f32.o (symbol from plugin)
twiddleCoef_rfft_2048                             obj/main/BETAFLIGHTF3/./lib/main/DSP_Lib/Source/CommonTables/arm_common_tables.o (symbol from plugin)
                                                  obj/main/BETAFLIGHTF3/./lib/main/DSP_Lib/Source/TransformFunctions/arm_rfft_fast_init_f32.o (symbol from plugin)
twiddleCoef_rfft_256                              obj/main/BETAFLIGHTF3/./lib/main/DSP_Lib/Source/CommonTables/arm_common_tables.o (symbol from plugin)
                                                  obj/main/BETAFLIGHTF3/./lib/main/DSP_Lib/Source/TransformFunctions/arm_rfft_fast_init_f32.o (symbol from plugin)
twiddleCoef_rfft_32                               obj/main/BETAFLIGHTF3/./lib/main/DSP_Lib/Source/CommonTables/arm_common_tables.o (symbol from plugin)
                                                  obj/main/BETAFLIGHTF3/./lib/main/DSP_Lib/Source/TransformFunctions/arm_rfft_fast_init_f32.o (symbol from plugin)
twiddleCoef_rfft_4096                             obj/main/BETAFLIGHTF3/./lib/main/DSP_Lib/Source/CommonTables/arm_common_tables.o (symbol from plugin)
                                                  obj/main/BETAFLIGHTF3/./lib/main/DSP_Lib/Source/TransformFunctions/arm_rfft_fast_init_f32.o (symbol from plugin)
twiddleCoef_rfft_512                              obj/main/BETAFLIGHTF3/./lib/main/DSP_Lib/Source/CommonTables/arm_common_tables.o (symbol from plugin)
                                                  obj/main/BETAFLIGHTF3/./lib/main/DSP_Lib/Source/TransformFunctions/arm_rfft_fast_init_f32.o (symbol from plugin)
twiddleCoef_rfft_64                               obj/main/BETAFLIGHTF3/./lib/main/DSP_Lib/Source/CommonTables/arm_common_tables.o (symbol from plugin)
                                                  obj/main/BETAFLIGHTF3/./lib/main/DSP_Lib/Source/TransformFunctions/arm_rfft_fast_init_f32.o (symbol from plugin)
txBytesFree.lto_priv.288                          C:\cygwin64\tmp\ccTUqUH8.ltrans2.ltrans.o
                                                  C:\cygwin64\tmp\ccTUqUH8.ltrans6.ltrans.o
txBytesFree.lto_priv.524                          C:\cygwin64\tmp\ccTUqUH8.ltrans2.ltrans.o
                                                  C:\cygwin64\tmp\ccTUqUH8.ltrans4.ltrans.o
uartDevice                                        obj/main/BETAFLIGHTF3/drivers/serial_uart_pinconfig.o (symbol from plugin)
uartDevmap                                        C:\cygwin64\tmp\ccTUqUH8.ltrans4.ltrans.o
                                                  obj/main/BETAFLIGHTF3/drivers/serial_uart_pinconfig.o (symbol from plugin)
                                                  C:\cygwin64\tmp\ccTUqUH8.ltrans5.ltrans.o
                                                  C:\cygwin64\tmp\ccTUqUH8.ltrans0.ltrans.o
                                                  obj/main/BETAFLIGHTF3/drivers/serial_uart.o (symbol from plugin)
                                                  obj/main/BETAFLIGHTF3/drivers/serial_uart_stm32f30x.o (symbol from plugin)
uartHardware                                      obj/main/BETAFLIGHTF3/drivers/serial_uart_stm32f30x.o (symbol from plugin)
                                                  obj/main/BETAFLIGHTF3/drivers/serial_uart_pinconfig.o (symbol from plugin)
uartIrqHandler                                    obj/main/BETAFLIGHTF3/drivers/serial_uart_stm32f30x.o (symbol from plugin)
                                                  obj/main/BETAFLIGHTF3/drivers/serial_uart.o (symbol from plugin)
uartOpen                                          obj/main/BETAFLIGHTF3/drivers/serial_uart_init.o (symbol from plugin)
                                                  obj/main/BETAFLIGHTF3/io/serial.o (symbol from plugin)
uartPinConfigure                                  obj/main/BETAFLIGHTF3/drivers/serial_uart_pinconfig.o (symbol from plugin)
                                                  obj/main/BETAFLIGHTF3/fc/fc_init.o (symbol from plugin)
uartRead.lto_priv.700                             C:\cygwin64\tmp\ccTUqUH8.ltrans0.ltrans.o
                                                  C:\cygwin64\tmp\ccTUqUH8.ltrans5.ltrans.o
uartReconfigure                                   obj/main/BETAFLIGHTF3/drivers/serial_uart_init.o (symbol from plugin)
                                                  obj/main/BETAFLIGHTF3/drivers/serial_uart.o (symbol from plugin)
uartSetMode.lto_priv.702                          C:\cygwin64\tmp\ccTUqUH8.ltrans0.ltrans.o
                                                  C:\cygwin64\tmp\ccTUqUH8.ltrans5.ltrans.o
uartTotalRxBytesWaiting.lto_priv.698              C:\cygwin64\tmp\ccTUqUH8.ltrans0.ltrans.o
                                                  C:\cygwin64\tmp\ccTUqUH8.ltrans5.ltrans.o
uartTotalTxBytesFree.lto_priv.699                 C:\cygwin64\tmp\ccTUqUH8.ltrans0.ltrans.o
                                                  C:\cygwin64\tmp\ccTUqUH8.ltrans5.ltrans.o
uartTryStartTxDMA                                 obj/main/BETAFLIGHTF3/drivers/serial_uart.o (symbol from plugin)
                                                  obj/main/BETAFLIGHTF3/drivers/serial_uart_stm32f30x.o (symbol from plugin)
uartVTable                                        obj/main/BETAFLIGHTF3/drivers/serial_uart.o (symbol from plugin)
                                                  obj/main/BETAFLIGHTF3/drivers/serial_uart_stm32f30x.o (symbol from plugin)
uartWrite.lto_priv.697                            C:\cygwin64\tmp\ccTUqUH8.ltrans0.ltrans.o
                                                  C:\cygwin64\tmp\ccTUqUH8.ltrans5.ltrans.o
ui2a                                              obj/main/BETAFLIGHTF3/common/typeconversion.o (symbol from plugin)
                                                  obj/main/BETAFLIGHTF3/common/printf.o (symbol from plugin)
uli2a                                             obj/main/BETAFLIGHTF3/common/typeconversion.o (symbol from plugin)
                                                  obj/main/BETAFLIGHTF3/common/printf.o (symbol from plugin)
unsetArmingDisabled                               obj/main/BETAFLIGHTF3/fc/runtime_config.o (symbol from plugin)
                                                  obj/main/BETAFLIGHTF3/cms/cms.o (symbol from plugin)
                                                  obj/main/BETAFLIGHTF3/flight/failsafe.o (symbol from plugin)
                                                  obj/main/BETAFLIGHTF3/fc/fc_core.o (symbol from plugin)
                                                  obj/main/BETAFLIGHTF3/interface/msp.o (symbol from plugin)
                                                  obj/main/BETAFLIGHTF3/io/osd.o (symbol from plugin)
updateActivatedModes                              obj/main/BETAFLIGHTF3/fc/rc_modes.o (symbol from plugin)
                                                  obj/main/BETAFLIGHTF3/fc/fc_core.o (symbol from plugin)
updateAdjustmentStates                            obj/main/BETAFLIGHTF3/fc/rc_adjustments.o (symbol from plugin)
                                                  obj/main/BETAFLIGHTF3/fc/fc_core.o (symbol from plugin)
updateArmingStatus                                obj/main/BETAFLIGHTF3/fc/fc_core.o (symbol from plugin)
                                                  obj/main/BETAFLIGHTF3/fc/fc_tasks.o (symbol from plugin)
updateArmingStatus.part.0                         C:\cygwin64\tmp\ccTUqUH8.ltrans3.ltrans.o
                                                  C:\cygwin64\tmp\ccTUqUH8.ltrans4.ltrans.o
                                                  C:\cygwin64\tmp\ccTUqUH8.ltrans0.ltrans.o
updateRSSI                                        obj/main/BETAFLIGHTF3/rx/rx.o (symbol from plugin)
                                                  obj/main/BETAFLIGHTF3/fc/fc_core.o (symbol from plugin)
updateRcCommands                                  obj/main/BETAFLIGHTF3/fc/fc_rc.o (symbol from plugin)
                                                  obj/main/BETAFLIGHTF3/fc/fc_tasks.o (symbol from plugin)
usTicks.lto_priv.343                              C:\cygwin64\tmp\ccTUqUH8.ltrans6.ltrans.o
                                                  C:\cygwin64\tmp\ccTUqUH8.ltrans5.ltrans.o
                                                  C:\cygwin64\tmp\ccTUqUH8.ltrans4.ltrans.o
                                                  C:\cygwin64\tmp\ccTUqUH8.ltrans3.ltrans.o
                                                  C:\cygwin64\tmp\ccTUqUH8.ltrans1.ltrans.o
                                                  C:\cygwin64\tmp\ccTUqUH8.ltrans0.ltrans.o
usbCableDetectDeinit                              obj/main/BETAFLIGHTF3/drivers/usb_io.o (symbol from plugin)
usbCableDetectInit                                obj/main/BETAFLIGHTF3/drivers/usb_io.o (symbol from plugin)
usbCableIsInserted                                obj/main/BETAFLIGHTF3/drivers/usb_io.o (symbol from plugin)
usbGenerateDisconnectPulse                        obj/main/BETAFLIGHTF3/drivers/usb_io.o (symbol from plugin)
                                                  obj/main/BETAFLIGHTF3/vcp/hw_config.o (symbol from plugin)
usbIsConfigured                                   obj/main/BETAFLIGHTF3/vcp/hw_config.o (symbol from plugin)
                                                  obj/main/BETAFLIGHTF3/drivers/serial_usb_vcp.o (symbol from plugin)
usbIsConnected                                    obj/main/BETAFLIGHTF3/vcp/hw_config.o (symbol from plugin)
                                                  obj/main/BETAFLIGHTF3/drivers/serial_usb_vcp.o (symbol from plugin)
usbTxBytesFree.lto_priv.527                       C:\cygwin64\tmp\ccTUqUH8.ltrans6.ltrans.o
                                                  C:\cygwin64\tmp\ccTUqUH8.ltrans4.ltrans.o
usbVcpAvailable.lto_priv.526                      C:\cygwin64\tmp\ccTUqUH8.ltrans6.ltrans.o
                                                  C:\cygwin64\tmp\ccTUqUH8.ltrans4.ltrans.o
usbVcpBeginWrite.lto_priv.533                     C:\cygwin64\tmp\ccTUqUH8.ltrans6.ltrans.o
                                                  C:\cygwin64\tmp\ccTUqUH8.ltrans4.ltrans.o
usbVcpEndWrite.lto_priv.534                       C:\cygwin64\tmp\ccTUqUH8.ltrans6.ltrans.o
                                                  C:\cygwin64\tmp\ccTUqUH8.ltrans4.ltrans.o
usbVcpGetBaudRate                                 obj/main/BETAFLIGHTF3/drivers/serial_usb_vcp.o (symbol from plugin)
usbVcpOpen                                        obj/main/BETAFLIGHTF3/drivers/serial_usb_vcp.o (symbol from plugin)
                                                  obj/main/BETAFLIGHTF3/io/serial.o (symbol from plugin)
usbVcpRead.lto_priv.528                           C:\cygwin64\tmp\ccTUqUH8.ltrans6.ltrans.o
                                                  C:\cygwin64\tmp\ccTUqUH8.ltrans4.ltrans.o
usbVcpSetBaudRate.lto_priv.529                    C:\cygwin64\tmp\ccTUqUH8.ltrans6.ltrans.o
                                                  C:\cygwin64\tmp\ccTUqUH8.ltrans4.ltrans.o
usbVcpSetMode.lto_priv.531                        C:\cygwin64\tmp\ccTUqUH8.ltrans6.ltrans.o
                                                  C:\cygwin64\tmp\ccTUqUH8.ltrans4.ltrans.o
usbVcpWrite.lto_priv.525                          C:\cygwin64\tmp\ccTUqUH8.ltrans6.ltrans.o
                                                  C:\cygwin64\tmp\ccTUqUH8.ltrans4.ltrans.o
usbVcpWriteBuf.lto_priv.532                       C:\cygwin64\tmp\ccTUqUH8.ltrans6.ltrans.o
                                                  C:\cygwin64\tmp\ccTUqUH8.ltrans4.ltrans.o
useAdjustmentConfig                               obj/main/BETAFLIGHTF3/fc/rc_adjustments.o (symbol from plugin)
                                                  obj/main/BETAFLIGHTF3/fc/config.o (symbol from plugin)
useRcControlsConfig                               obj/main/BETAFLIGHTF3/fc/rc_controls.o (symbol from plugin)
                                                  obj/main/BETAFLIGHTF3/interface/msp.o (symbol from plugin)
                                                  obj/main/BETAFLIGHTF3/fc/config.o (symbol from plugin)
useServo.lto_priv.480                             C:\cygwin64\tmp\ccTUqUH8.ltrans3.ltrans.o
                                                  C:\cygwin64\tmp\ccTUqUH8.ltrans4.ltrans.o
usedTimers                                        obj/main/BETAFLIGHTF3/drivers/timer.o (symbol from plugin)
validateAndFixGyroConfig                          C:\cygwin64\tmp\ccTUqUH8.ltrans0.ltrans.o
                                                  obj/main/BETAFLIGHTF3/fc/config.o (symbol from plugin)
                                                  C:\cygwin64\tmp\ccTUqUH8.ltrans4.ltrans.o
                                                  obj/main/BETAFLIGHTF3/fc/fc_init.o (symbol from plugin)
                                                  obj/main/BETAFLIGHTF3/interface/msp.o (symbol from plugin)
valueTable                                        obj/main/BETAFLIGHTF3/interface/settings.o (symbol from plugin)
                                                  obj/main/BETAFLIGHTF3/interface/cli.o (symbol from plugin)
valueTableEntryCount                              obj/main/BETAFLIGHTF3/interface/settings.o (symbol from plugin)
                                                  obj/main/BETAFLIGHTF3/interface/cli.o (symbol from plugin)
vcdProfile_Copy                                   obj/main/BETAFLIGHTF3/pg/vcd.o (symbol from plugin)
vcdProfile_Registry                               C:\cygwin64\tmp\ccTUqUH8.ltrans6.ltrans.o
                                                  obj/main/BETAFLIGHTF3/pg/vcd.o (symbol from plugin)
vcdProfile_System                                 C:\cygwin64\tmp\ccTUqUH8.ltrans6.ltrans.o
                                                  obj/main/BETAFLIGHTF3/pg/vcd.o (symbol from plugin)
                                                  C:\cygwin64\tmp\ccTUqUH8.ltrans4.ltrans.o
                                                  obj/main/BETAFLIGHTF3/fc/fc_init.o (symbol from plugin)
                                                  obj/main/BETAFLIGHTF3/interface/msp.o (symbol from plugin)
videoSignalCfg.lto_priv.323                       C:\cygwin64\tmp\ccTUqUH8.ltrans6.ltrans.o
                                                  C:\cygwin64\tmp\ccTUqUH8.ltrans5.ltrans.o
                                                  C:\cygwin64\tmp\ccTUqUH8.ltrans2.ltrans.o
videoSignalReg.lto_priv.692                       C:\cygwin64\tmp\ccTUqUH8.ltrans2.ltrans.o
                                                  C:\cygwin64\tmp\ccTUqUH8.ltrans5.ltrans.o
voltageMeter.lto_priv.337                         C:\cygwin64\tmp\ccTUqUH8.ltrans2.ltrans.o
                                                  C:\cygwin64\tmp\ccTUqUH8.ltrans5.ltrans.o
                                                  C:\cygwin64\tmp\ccTUqUH8.ltrans4.ltrans.o
                                                  C:\cygwin64\tmp\ccTUqUH8.ltrans3.ltrans.o
                                                  C:\cygwin64\tmp\ccTUqUH8.ltrans1.ltrans.o
                                                  C:\cygwin64\tmp\ccTUqUH8.ltrans0.ltrans.o
voltageMeterADCInit                               obj/main/BETAFLIGHTF3/sensors/voltage.o (symbol from plugin)
                                                  obj/main/BETAFLIGHTF3/sensors/battery.o (symbol from plugin)
voltageMeterADCRead                               obj/main/BETAFLIGHTF3/sensors/voltage.o (symbol from plugin)
                                                  obj/main/BETAFLIGHTF3/sensors/battery.o (symbol from plugin)
voltageMeterADCRefresh                            obj/main/BETAFLIGHTF3/sensors/voltage.o (symbol from plugin)
                                                  obj/main/BETAFLIGHTF3/sensors/battery.o (symbol from plugin)
voltageMeterADCStates                             obj/main/BETAFLIGHTF3/sensors/voltage.o (symbol from plugin)
voltageMeterADCtoIDMap                            obj/main/BETAFLIGHTF3/sensors/voltage.o (symbol from plugin)
                                                  obj/main/BETAFLIGHTF3/interface/msp.o (symbol from plugin)
voltageMeterESCInit                               obj/main/BETAFLIGHTF3/sensors/voltage.o (symbol from plugin)
                                                  obj/main/BETAFLIGHTF3/sensors/battery.o (symbol from plugin)
voltageMeterESCReadCombined                       obj/main/BETAFLIGHTF3/sensors/voltage.o (symbol from plugin)
                                                  obj/main/BETAFLIGHTF3/sensors/battery.o (symbol from plugin)
voltageMeterESCReadMotor                          obj/main/BETAFLIGHTF3/sensors/voltage.o (symbol from plugin)
voltageMeterESCRefresh                            obj/main/BETAFLIGHTF3/sensors/voltage.o (symbol from plugin)
                                                  obj/main/BETAFLIGHTF3/sensors/battery.o (symbol from plugin)
voltageMeterIds                                   obj/main/BETAFLIGHTF3/sensors/voltage.o (symbol from plugin)
                                                  obj/main/BETAFLIGHTF3/interface/msp.o (symbol from plugin)
voltageMeterRead                                  obj/main/BETAFLIGHTF3/sensors/voltage.o (symbol from plugin)
                                                  obj/main/BETAFLIGHTF3/interface/msp.o (symbol from plugin)
voltageMeterReset                                 obj/main/BETAFLIGHTF3/sensors/voltage.o (symbol from plugin)
                                                  obj/main/BETAFLIGHTF3/sensors/battery.o (symbol from plugin)
voltageSensorADCConfig_CopyArray                  obj/main/BETAFLIGHTF3/sensors/voltage.o (symbol from plugin)
voltageSensorADCConfig_Registry                   C:\cygwin64\tmp\ccTUqUH8.ltrans1.ltrans.o
                                                  obj/main/BETAFLIGHTF3/sensors/voltage.o (symbol from plugin)
voltageSensorADCConfig_SystemArray                C:\cygwin64\tmp\ccTUqUH8.ltrans1.ltrans.o
                                                  obj/main/BETAFLIGHTF3/sensors/voltage.o (symbol from plugin)
                                                  C:\cygwin64\tmp\ccTUqUH8.ltrans4.ltrans.o
                                                  obj/main/BETAFLIGHTF3/cms/cms_menu_misc.o (symbol from plugin)
                                                  obj/main/BETAFLIGHTF3/blackbox/blackbox.o (symbol from plugin)
                                                  obj/main/BETAFLIGHTF3/interface/msp.o (symbol from plugin)
voltageState.lto_priv.617                         C:\cygwin64\tmp\ccTUqUH8.ltrans4.ltrans.o
                                                  C:\cygwin64\tmp\ccTUqUH8.ltrans0.ltrans.o
vosRegValue.lto_priv.694                          C:\cygwin64\tmp\ccTUqUH8.ltrans6.ltrans.o
                                                  C:\cygwin64\tmp\ccTUqUH8.ltrans5.ltrans.o
vtx58BandLetter                                   C:\cygwin64\tmp\ccTUqUH8.ltrans2.ltrans.o
                                                  obj/main/BETAFLIGHTF3/io/vtx_string.o (symbol from plugin)
                                                  C:\cygwin64\tmp\ccTUqUH8.ltrans5.ltrans.o
                                                  obj/main/BETAFLIGHTF3/cms/cms_menu_vtx_tramp.o (symbol from plugin)
                                                  obj/main/BETAFLIGHTF3/io/osd.o (symbol from plugin)
vtx58BandNames                                    C:\cygwin64\tmp\ccTUqUH8.ltrans1.ltrans.o
                                                  obj/main/BETAFLIGHTF3/io/vtx_string.o (symbol from plugin)
                                                  C:\cygwin64\tmp\ccTUqUH8.ltrans4.ltrans.o
                                                  obj/main/BETAFLIGHTF3/io/vtx_tramp.o (symbol from plugin)
                                                  obj/main/BETAFLIGHTF3/io/vtx_smartaudio.o (symbol from plugin)
                                                  obj/main/BETAFLIGHTF3/cms/cms_menu_vtx_tramp.o (symbol from plugin)
                                                  obj/main/BETAFLIGHTF3/cms/cms_menu_vtx_smartaudio.o (symbol from plugin)
vtx58ChannelNames                                 C:\cygwin64\tmp\ccTUqUH8.ltrans2.ltrans.o
                                                  obj/main/BETAFLIGHTF3/io/vtx_string.o (symbol from plugin)
                                                  C:\cygwin64\tmp\ccTUqUH8.ltrans5.ltrans.o
                                                  C:\cygwin64\tmp\ccTUqUH8.ltrans4.ltrans.o
                                                  C:\cygwin64\tmp\ccTUqUH8.ltrans1.ltrans.o
                                                  obj/main/BETAFLIGHTF3/io/vtx_tramp.o (symbol from plugin)
                                                  obj/main/BETAFLIGHTF3/io/vtx_smartaudio.o (symbol from plugin)
                                                  obj/main/BETAFLIGHTF3/cms/cms_menu_vtx_tramp.o (symbol from plugin)
                                                  obj/main/BETAFLIGHTF3/cms/cms_menu_vtx_smartaudio.o (symbol from plugin)
                                                  obj/main/BETAFLIGHTF3/io/osd.o (symbol from plugin)
vtx58_Bandchan2Freq                               C:\cygwin64\tmp\ccTUqUH8.ltrans2.ltrans.o
                                                  obj/main/BETAFLIGHTF3/io/vtx_string.o (symbol from plugin)
                                                  C:\cygwin64\tmp\ccTUqUH8.ltrans4.ltrans.o
                                                  C:\cygwin64\tmp\ccTUqUH8.ltrans1.ltrans.o
                                                  obj/main/BETAFLIGHTF3/io/vtx_tramp.o (symbol from plugin)
                                                  obj/main/BETAFLIGHTF3/io/vtx_smartaudio.o (symbol from plugin)
                                                  obj/main/BETAFLIGHTF3/io/vtx.o (symbol from plugin)
                                                  obj/main/BETAFLIGHTF3/cms/cms_menu_vtx_tramp.o (symbol from plugin)
                                                  obj/main/BETAFLIGHTF3/cms/cms_menu_vtx_smartaudio.o (symbol from plugin)
                                                  obj/main/BETAFLIGHTF3/io/spektrum_vtx_control.o (symbol from plugin)
                                                  obj/main/BETAFLIGHTF3/interface/msp.o (symbol from plugin)
vtx58_Freq2Bandchan                               obj/main/BETAFLIGHTF3/io/vtx_string.o (symbol from plugin)
                                                  obj/main/BETAFLIGHTF3/io/vtx_tramp.o (symbol from plugin)
vtx58frequencyTable                               C:\cygwin64\tmp\ccTUqUH8.ltrans2.ltrans.o
                                                  obj/main/BETAFLIGHTF3/io/vtx_string.o (symbol from plugin)
                                                  C:\cygwin64\tmp\ccTUqUH8.ltrans1.ltrans.o
                                                  obj/main/BETAFLIGHTF3/io/ledstrip.o (symbol from plugin)
                                                  obj/main/BETAFLIGHTF3/cms/cms_menu_vtx_tramp.o (symbol from plugin)
                                                  obj/main/BETAFLIGHTF3/cms/cms_menu_vtx_smartaudio.o (symbol from plugin)
vtxCommonDeviceRegistered                         obj/main/BETAFLIGHTF3/drivers/vtx_common.o (symbol from plugin)
                                                  obj/main/BETAFLIGHTF3/io/vtx_control.o (symbol from plugin)
                                                  obj/main/BETAFLIGHTF3/io/vtx.o (symbol from plugin)
                                                  obj/main/BETAFLIGHTF3/io/ledstrip.o (symbol from plugin)
                                                  obj/main/BETAFLIGHTF3/io/spektrum_vtx_control.o (symbol from plugin)
                                                  obj/main/BETAFLIGHTF3/interface/msp.o (symbol from plugin)
vtxCommonGetBandAndChannel                        obj/main/BETAFLIGHTF3/drivers/vtx_common.o (symbol from plugin)
                                                  obj/main/BETAFLIGHTF3/io/vtx_control.o (symbol from plugin)
                                                  obj/main/BETAFLIGHTF3/io/vtx.o (symbol from plugin)
                                                  obj/main/BETAFLIGHTF3/io/ledstrip.o (symbol from plugin)
vtxCommonGetDeviceCapability                      obj/main/BETAFLIGHTF3/drivers/vtx_common.o (symbol from plugin)
                                                  obj/main/BETAFLIGHTF3/io/vtx_control.o (symbol from plugin)
vtxCommonGetDeviceType                            C:\cygwin64\tmp\ccTUqUH8.ltrans2.ltrans.o
                                                  obj/main/BETAFLIGHTF3/drivers/vtx_common.o (symbol from plugin)
                                                  C:\cygwin64\tmp\ccTUqUH8.ltrans4.ltrans.o
                                                  C:\cygwin64\tmp\ccTUqUH8.ltrans0.ltrans.o
                                                  obj/main/BETAFLIGHTF3/io/spektrum_vtx_control.o (symbol from plugin)
                                                  obj/main/BETAFLIGHTF3/interface/msp.o (symbol from plugin)
vtxCommonGetFrequency                             obj/main/BETAFLIGHTF3/drivers/vtx_common.o (symbol from plugin)
                                                  obj/main/BETAFLIGHTF3/io/vtx.o (symbol from plugin)
vtxCommonGetPitMode                               C:\cygwin64\tmp\ccTUqUH8.ltrans2.ltrans.o
                                                  obj/main/BETAFLIGHTF3/drivers/vtx_common.o (symbol from plugin)
                                                  C:\cygwin64\tmp\ccTUqUH8.ltrans4.ltrans.o
                                                  C:\cygwin64\tmp\ccTUqUH8.ltrans0.ltrans.o
                                                  obj/main/BETAFLIGHTF3/io/vtx.o (symbol from plugin)
                                                  obj/main/BETAFLIGHTF3/io/ledstrip.o (symbol from plugin)
                                                  obj/main/BETAFLIGHTF3/io/spektrum_vtx_control.o (symbol from plugin)
                                                  obj/main/BETAFLIGHTF3/interface/msp.o (symbol from plugin)
vtxCommonGetPowerIndex                            C:\cygwin64\tmp\ccTUqUH8.ltrans2.ltrans.o
                                                  obj/main/BETAFLIGHTF3/drivers/vtx_common.o (symbol from plugin)
                                                  C:\cygwin64\tmp\ccTUqUH8.ltrans5.ltrans.o
                                                  obj/main/BETAFLIGHTF3/io/vtx_control.o (symbol from plugin)
                                                  obj/main/BETAFLIGHTF3/io/vtx.o (symbol from plugin)
                                                  obj/main/BETAFLIGHTF3/io/ledstrip.o (symbol from plugin)
                                                  obj/main/BETAFLIGHTF3/io/osd.o (symbol from plugin)
vtxCommonInit                                     obj/main/BETAFLIGHTF3/drivers/vtx_common.o (symbol from plugin)
                                                  obj/main/BETAFLIGHTF3/fc/fc_init.o (symbol from plugin)
vtxCommonProcess                                  obj/main/BETAFLIGHTF3/drivers/vtx_common.o (symbol from plugin)
                                                  obj/main/BETAFLIGHTF3/io/vtx.o (symbol from plugin)
vtxCommonRegisterDevice                           obj/main/BETAFLIGHTF3/drivers/vtx_common.o (symbol from plugin)
                                                  obj/main/BETAFLIGHTF3/io/vtx_tramp.o (symbol from plugin)
                                                  obj/main/BETAFLIGHTF3/io/vtx_smartaudio.o (symbol from plugin)
vtxCommonSetBandAndChannel                        obj/main/BETAFLIGHTF3/drivers/vtx_common.o (symbol from plugin)
                                                  obj/main/BETAFLIGHTF3/io/vtx.o (symbol from plugin)
vtxCommonSetFrequency                             obj/main/BETAFLIGHTF3/drivers/vtx_common.o (symbol from plugin)
                                                  obj/main/BETAFLIGHTF3/io/vtx.o (symbol from plugin)
vtxCommonSetPitMode                               C:\cygwin64\tmp\ccTUqUH8.ltrans2.ltrans.o
                                                  obj/main/BETAFLIGHTF3/drivers/vtx_common.o (symbol from plugin)
                                                  C:\cygwin64\tmp\ccTUqUH8.ltrans4.ltrans.o
                                                  obj/main/BETAFLIGHTF3/io/vtx.o (symbol from plugin)
                                                  obj/main/BETAFLIGHTF3/io/spektrum_vtx_control.o (symbol from plugin)
                                                  obj/main/BETAFLIGHTF3/interface/msp.o (symbol from plugin)
vtxCommonSetPowerByIndex                          obj/main/BETAFLIGHTF3/drivers/vtx_common.o (symbol from plugin)
                                                  obj/main/BETAFLIGHTF3/io/vtx.o (symbol from plugin)
vtxConfig_Copy                                    obj/main/BETAFLIGHTF3/io/vtx_control.o (symbol from plugin)
                                                  obj/main/BETAFLIGHTF3/interface/cli.o (symbol from plugin)
vtxConfig_Registry                                C:\cygwin64\tmp\ccTUqUH8.ltrans3.ltrans.o
                                                  obj/main/BETAFLIGHTF3/io/vtx_control.o (symbol from plugin)
vtxConfig_System                                  C:\cygwin64\tmp\ccTUqUH8.ltrans3.ltrans.o
                                                  obj/main/BETAFLIGHTF3/io/vtx_control.o (symbol from plugin)
                                                  C:\cygwin64\tmp\ccTUqUH8.ltrans4.ltrans.o
                                                  C:\cygwin64\tmp\ccTUqUH8.ltrans0.ltrans.o
                                                  obj/main/BETAFLIGHTF3/io/vtx_tramp.o (symbol from plugin)
                                                  obj/main/BETAFLIGHTF3/io/vtx_smartaudio.o (symbol from plugin)
                                                  obj/main/BETAFLIGHTF3/interface/cli.o (symbol from plugin)
vtxControlInit                                    obj/main/BETAFLIGHTF3/io/vtx_control.o (symbol from plugin)
                                                  obj/main/BETAFLIGHTF3/fc/fc_init.o (symbol from plugin)
vtxControlInputPoll                               obj/main/BETAFLIGHTF3/io/vtx_control.o (symbol from plugin)
                                                  obj/main/BETAFLIGHTF3/io/vtx.o (symbol from plugin)
vtxControl_ipc.lto_priv.344                       C:\cygwin64\tmp\ccTUqUH8.ltrans2.ltrans.o
                                                  C:\cygwin64\tmp\ccTUqUH8.ltrans1.ltrans.o
vtxCycleBandOrChannel                             obj/main/BETAFLIGHTF3/io/vtx_control.o (symbol from plugin)
vtxCyclePower                                     obj/main/BETAFLIGHTF3/io/vtx_control.o (symbol from plugin)
vtxDecrementBand                                  obj/main/BETAFLIGHTF3/io/vtx_control.o (symbol from plugin)
                                                  obj/main/BETAFLIGHTF3/fc/rc_controls.o (symbol from plugin)
vtxDecrementChannel                               obj/main/BETAFLIGHTF3/io/vtx_control.o (symbol from plugin)
                                                  obj/main/BETAFLIGHTF3/fc/rc_controls.o (symbol from plugin)
vtxDevice                                         C:\cygwin64\tmp\ccTUqUH8.ltrans2.ltrans.o
                                                  obj/main/BETAFLIGHTF3/drivers/vtx_common.o (symbol from plugin)
                                                  C:\cygwin64\tmp\ccTUqUH8.ltrans4.ltrans.o
                                                  C:\cygwin64\tmp\ccTUqUH8.ltrans0.ltrans.o
vtxIncrementBand                                  obj/main/BETAFLIGHTF3/io/vtx_control.o (symbol from plugin)
                                                  obj/main/BETAFLIGHTF3/fc/rc_controls.o (symbol from plugin)
vtxIncrementChannel                               obj/main/BETAFLIGHTF3/io/vtx_control.o (symbol from plugin)
                                                  obj/main/BETAFLIGHTF3/fc/rc_controls.o (symbol from plugin)
vtxInit                                           obj/main/BETAFLIGHTF3/io/vtx.o (symbol from plugin)
                                                  obj/main/BETAFLIGHTF3/fc/fc_init.o (symbol from plugin)
vtxSAGetBandAndChannel                            C:\cygwin64\tmp\ccTUqUH8.ltrans2.ltrans.o
                                                  obj/main/BETAFLIGHTF3/io/vtx_smartaudio.o (symbol from plugin)
                                                  C:\cygwin64\tmp\ccTUqUH8.ltrans4.ltrans.o
vtxSAGetDeviceType                                C:\cygwin64\tmp\ccTUqUH8.ltrans2.ltrans.o
                                                  obj/main/BETAFLIGHTF3/io/vtx_smartaudio.o (symbol from plugin)
                                                  C:\cygwin64\tmp\ccTUqUH8.ltrans4.ltrans.o
vtxSAGetFreq                                      C:\cygwin64\tmp\ccTUqUH8.ltrans2.ltrans.o
                                                  obj/main/BETAFLIGHTF3/io/vtx_smartaudio.o (symbol from plugin)
                                                  C:\cygwin64\tmp\ccTUqUH8.ltrans4.ltrans.o
vtxSAGetPitMode                                   C:\cygwin64\tmp\ccTUqUH8.ltrans2.ltrans.o
                                                  obj/main/BETAFLIGHTF3/io/vtx_smartaudio.o (symbol from plugin)
                                                  C:\cygwin64\tmp\ccTUqUH8.ltrans4.ltrans.o
vtxSAGetPowerIndex                                C:\cygwin64\tmp\ccTUqUH8.ltrans2.ltrans.o
                                                  obj/main/BETAFLIGHTF3/io/vtx_smartaudio.o (symbol from plugin)
                                                  C:\cygwin64\tmp\ccTUqUH8.ltrans4.ltrans.o
vtxSAIsReady                                      C:\cygwin64\tmp\ccTUqUH8.ltrans2.ltrans.o
                                                  obj/main/BETAFLIGHTF3/io/vtx_smartaudio.o (symbol from plugin)
                                                  C:\cygwin64\tmp\ccTUqUH8.ltrans4.ltrans.o
vtxSAProcess                                      C:\cygwin64\tmp\ccTUqUH8.ltrans2.ltrans.o
                                                  obj/main/BETAFLIGHTF3/io/vtx_smartaudio.o (symbol from plugin)
                                                  C:\cygwin64\tmp\ccTUqUH8.ltrans4.ltrans.o
vtxSASetBandAndChannel                            C:\cygwin64\tmp\ccTUqUH8.ltrans2.ltrans.o
                                                  obj/main/BETAFLIGHTF3/io/vtx_smartaudio.o (symbol from plugin)
                                                  C:\cygwin64\tmp\ccTUqUH8.ltrans4.ltrans.o
vtxSASetFreq                                      C:\cygwin64\tmp\ccTUqUH8.ltrans2.ltrans.o
                                                  obj/main/BETAFLIGHTF3/io/vtx_smartaudio.o (symbol from plugin)
                                                  C:\cygwin64\tmp\ccTUqUH8.ltrans4.ltrans.o
vtxSASetPitMode                                   C:\cygwin64\tmp\ccTUqUH8.ltrans2.ltrans.o
                                                  obj/main/BETAFLIGHTF3/io/vtx_smartaudio.o (symbol from plugin)
                                                  C:\cygwin64\tmp\ccTUqUH8.ltrans4.ltrans.o
vtxSASetPowerByIndex                              C:\cygwin64\tmp\ccTUqUH8.ltrans2.ltrans.o
                                                  obj/main/BETAFLIGHTF3/io/vtx_smartaudio.o (symbol from plugin)
                                                  C:\cygwin64\tmp\ccTUqUH8.ltrans4.ltrans.o
vtxSaPi                                           obj/main/BETAFLIGHTF3/io/spektrum_vtx_control.o (symbol from plugin)
vtxSettingsConfig_Copy                            obj/main/BETAFLIGHTF3/io/vtx.o (symbol from plugin)
vtxSettingsConfig_Registry                        C:\cygwin64\tmp\ccTUqUH8.ltrans2.ltrans.o
                                                  obj/main/BETAFLIGHTF3/io/vtx.o (symbol from plugin)
vtxSettingsConfig_System                          C:\cygwin64\tmp\ccTUqUH8.ltrans2.ltrans.o
                                                  obj/main/BETAFLIGHTF3/io/vtx.o (symbol from plugin)
                                                  C:\cygwin64\tmp\ccTUqUH8.ltrans5.ltrans.o
                                                  C:\cygwin64\tmp\ccTUqUH8.ltrans4.ltrans.o
                                                  C:\cygwin64\tmp\ccTUqUH8.ltrans1.ltrans.o
                                                  C:\cygwin64\tmp\ccTUqUH8.ltrans0.ltrans.o
                                                  obj/main/BETAFLIGHTF3/io/vtx_control.o (symbol from plugin)
                                                  obj/main/BETAFLIGHTF3/cms/cms_menu_vtx_tramp.o (symbol from plugin)
                                                  obj/main/BETAFLIGHTF3/cms/cms_menu_vtx_smartaudio.o (symbol from plugin)
                                                  obj/main/BETAFLIGHTF3/io/spektrum_vtx_control.o (symbol from plugin)
                                                  obj/main/BETAFLIGHTF3/interface/msp.o (symbol from plugin)
                                                  obj/main/BETAFLIGHTF3/io/osd.o (symbol from plugin)
vtxSmartAudioInit                                 obj/main/BETAFLIGHTF3/io/vtx_smartaudio.o (symbol from plugin)
                                                  obj/main/BETAFLIGHTF3/fc/fc_init.o (symbol from plugin)
vtxTrampGetBandAndChannel                         C:\cygwin64\tmp\ccTUqUH8.ltrans2.ltrans.o
                                                  obj/main/BETAFLIGHTF3/io/vtx_tramp.o (symbol from plugin)
                                                  C:\cygwin64\tmp\ccTUqUH8.ltrans4.ltrans.o
vtxTrampGetDeviceType                             C:\cygwin64\tmp\ccTUqUH8.ltrans2.ltrans.o
                                                  obj/main/BETAFLIGHTF3/io/vtx_tramp.o (symbol from plugin)
                                                  C:\cygwin64\tmp\ccTUqUH8.ltrans4.ltrans.o
vtxTrampGetFreq                                   C:\cygwin64\tmp\ccTUqUH8.ltrans2.ltrans.o
                                                  obj/main/BETAFLIGHTF3/io/vtx_tramp.o (symbol from plugin)
                                                  C:\cygwin64\tmp\ccTUqUH8.ltrans4.ltrans.o
vtxTrampGetPitMode                                C:\cygwin64\tmp\ccTUqUH8.ltrans2.ltrans.o
                                                  obj/main/BETAFLIGHTF3/io/vtx_tramp.o (symbol from plugin)
                                                  C:\cygwin64\tmp\ccTUqUH8.ltrans4.ltrans.o
vtxTrampGetPowerIndex                             C:\cygwin64\tmp\ccTUqUH8.ltrans2.ltrans.o
                                                  obj/main/BETAFLIGHTF3/io/vtx_tramp.o (symbol from plugin)
                                                  C:\cygwin64\tmp\ccTUqUH8.ltrans4.ltrans.o
vtxTrampInit                                      obj/main/BETAFLIGHTF3/io/vtx_tramp.o (symbol from plugin)
                                                  obj/main/BETAFLIGHTF3/fc/fc_init.o (symbol from plugin)
vtxTrampIsReady                                   C:\cygwin64\tmp\ccTUqUH8.ltrans2.ltrans.o
                                                  obj/main/BETAFLIGHTF3/io/vtx_tramp.o (symbol from plugin)
                                                  C:\cygwin64\tmp\ccTUqUH8.ltrans4.ltrans.o
vtxTrampPi                                        obj/main/BETAFLIGHTF3/io/spektrum_vtx_control.o (symbol from plugin)
vtxTrampProcess                                   C:\cygwin64\tmp\ccTUqUH8.ltrans2.ltrans.o
                                                  obj/main/BETAFLIGHTF3/io/vtx_tramp.o (symbol from plugin)
                                                  C:\cygwin64\tmp\ccTUqUH8.ltrans4.ltrans.o
vtxTrampSetBandAndChannel                         C:\cygwin64\tmp\ccTUqUH8.ltrans2.ltrans.o
                                                  obj/main/BETAFLIGHTF3/io/vtx_tramp.o (symbol from plugin)
                                                  C:\cygwin64\tmp\ccTUqUH8.ltrans4.ltrans.o
vtxTrampSetFreq                                   C:\cygwin64\tmp\ccTUqUH8.ltrans2.ltrans.o
                                                  obj/main/BETAFLIGHTF3/io/vtx_tramp.o (symbol from plugin)
                                                  C:\cygwin64\tmp\ccTUqUH8.ltrans4.ltrans.o
vtxTrampSetPitMode                                C:\cygwin64\tmp\ccTUqUH8.ltrans2.ltrans.o
                                                  obj/main/BETAFLIGHTF3/io/vtx_tramp.o (symbol from plugin)
                                                  C:\cygwin64\tmp\ccTUqUH8.ltrans4.ltrans.o
vtxTrampSetPowerByIndex                           C:\cygwin64\tmp\ccTUqUH8.ltrans2.ltrans.o
                                                  obj/main/BETAFLIGHTF3/io/vtx_tramp.o (symbol from plugin)
                                                  C:\cygwin64\tmp\ccTUqUH8.ltrans4.ltrans.o
vtxUpdate                                         C:\cygwin64\tmp\ccTUqUH8.ltrans2.ltrans.o
                                                  obj/main/BETAFLIGHTF3/io/vtx.o (symbol from plugin)
                                                  C:\cygwin64\tmp\ccTUqUH8.ltrans3.ltrans.o
                                                  obj/main/BETAFLIGHTF3/fc/fc_tasks.o (symbol from plugin)
vtxUpdateActivatedChannel                         obj/main/BETAFLIGHTF3/io/vtx_control.o (symbol from plugin)
                                                  obj/main/BETAFLIGHTF3/fc/fc_core.o (symbol from plugin)
vtxUpdateBandAndChannel.lto_priv.674              C:\cygwin64\tmp\ccTUqUH8.ltrans2.ltrans.o
                                                  C:\cygwin64\tmp\ccTUqUH8.ltrans0.ltrans.o
wCNTR                                             obj/main/BETAFLIGHTF3/vcp/usb_istr.o (symbol from plugin)
wInterrupt_Mask                                   obj/main/BETAFLIGHTF3/usb_init.o (symbol from plugin)
                                                  obj/main/BETAFLIGHTF3/vcp/usb_pwr.o (symbol from plugin)
                                                  obj/main/BETAFLIGHTF3/vcp/usb_istr.o (symbol from plugin)
                                                  obj/main/BETAFLIGHTF3/usb_sil.o (symbol from plugin)
wIstr                                             obj/main/BETAFLIGHTF3/vcp/usb_istr.o (symbol from plugin)
                                                  obj/main/BETAFLIGHTF3/usb_int.o (symbol from plugin)
waitForSerialPortToFinishTransmitting             C:\cygwin64\tmp\ccTUqUH8.ltrans4.ltrans.o
                                                  obj/main/BETAFLIGHTF3/io/serial.o (symbol from plugin)
                                                  C:\cygwin64\tmp\ccTUqUH8.ltrans6.ltrans.o
                                                  C:\cygwin64\tmp\ccTUqUH8.ltrans3.ltrans.o
                                                  C:\cygwin64\tmp\ccTUqUH8.ltrans0.ltrans.o
                                                  obj/main/BETAFLIGHTF3/interface/cli.o (symbol from plugin)
                                                  obj/main/BETAFLIGHTF3/msp/msp_serial.o (symbol from plugin)
warningLedDisable                                 obj/main/BETAFLIGHTF3/io/statusindicator.o (symbol from plugin)
                                                  obj/main/BETAFLIGHTF3/fc/fc_core.o (symbol from plugin)
                                                  obj/main/BETAFLIGHTF3/io/beeper.o (symbol from plugin)
warningLedEnable                                  obj/main/BETAFLIGHTF3/io/statusindicator.o (symbol from plugin)
                                                  obj/main/BETAFLIGHTF3/io/beeper.o (symbol from plugin)
warningLedFlash                                   obj/main/BETAFLIGHTF3/io/statusindicator.o (symbol from plugin)
                                                  obj/main/BETAFLIGHTF3/fc/fc_core.o (symbol from plugin)
warningLedRefresh                                 C:\cygwin64\tmp\ccTUqUH8.ltrans4.ltrans.o
                                                  obj/main/BETAFLIGHTF3/io/statusindicator.o (symbol from plugin)
                                                  C:\cygwin64\tmp\ccTUqUH8.ltrans3.ltrans.o
                                                  obj/main/BETAFLIGHTF3/io/beeper.o (symbol from plugin)
warningLedResetTimer                              obj/main/BETAFLIGHTF3/io/statusindicator.o (symbol from plugin)
warningLedState.lto_priv.485                      C:\cygwin64\tmp\ccTUqUH8.ltrans3.ltrans.o
                                                  C:\cygwin64\tmp\ccTUqUH8.ltrans4.ltrans.o
warningLedTimer.lto_priv.486                      C:\cygwin64\tmp\ccTUqUH8.ltrans3.ltrans.o
                                                  C:\cygwin64\tmp\ccTUqUH8.ltrans4.ltrans.o
warningLedUpdate                                  obj/main/BETAFLIGHTF3/io/statusindicator.o (symbol from plugin)
                                                  obj/main/BETAFLIGHTF3/fc/fc_core.o (symbol from plugin)
workAroundForHottTelemetryOnUsart.isra.4.lto_priv.670 C:\cygwin64\tmp\ccTUqUH8.ltrans2.ltrans.o
                                                  C:\cygwin64\tmp\ccTUqUH8.ltrans0.ltrans.o
writeChar.lto_priv.284                            C:\cygwin64\tmp\ccTUqUH8.ltrans2.ltrans.o
                                                  C:\cygwin64\tmp\ccTUqUH8.ltrans6.ltrans.o
writeChar.lto_priv.520                            C:\cygwin64\tmp\ccTUqUH8.ltrans2.ltrans.o
                                                  C:\cygwin64\tmp\ccTUqUH8.ltrans4.ltrans.o
writeConfigToEEPROM                               C:\cygwin64\tmp\ccTUqUH8.ltrans5.ltrans.o
                                                  obj/main/BETAFLIGHTF3/config/config_eeprom.o (symbol from plugin)
                                                  C:\cygwin64\tmp\ccTUqUH8.ltrans0.ltrans.o
                                                  obj/main/BETAFLIGHTF3/fc/config.o (symbol from plugin)
writeEEPROM                                       C:\cygwin64\tmp\ccTUqUH8.ltrans0.ltrans.o
                                                  obj/main/BETAFLIGHTF3/fc/config.o (symbol from plugin)
                                                  C:\cygwin64\tmp\ccTUqUH8.ltrans4.ltrans.o
                                                  C:\cygwin64\tmp\ccTUqUH8.ltrans3.ltrans.o
                                                  obj/main/BETAFLIGHTF3/interface/cli.o (symbol from plugin)
                                                  obj/main/BETAFLIGHTF3/interface/msp.o (symbol from plugin)
writeMotors                                       obj/main/BETAFLIGHTF3/flight/mixer.o (symbol from plugin)
                                                  obj/main/BETAFLIGHTF3/fc/fc_core.o (symbol from plugin)
writeServos                                       obj/main/BETAFLIGHTF3/flight/servos.o (symbol from plugin)
                                                  obj/main/BETAFLIGHTF3/fc/fc_core.o (symbol from plugin)
writeString.lto_priv.283                          C:\cygwin64\tmp\ccTUqUH8.ltrans2.ltrans.o
                                                  C:\cygwin64\tmp\ccTUqUH8.ltrans6.ltrans.o
writeString.lto_priv.519                          C:\cygwin64\tmp\ccTUqUH8.ltrans2.ltrans.o
                                                  C:\cygwin64\tmp\ccTUqUH8.ltrans4.ltrans.o
ws2811Initialised                                 C:\cygwin64\tmp\ccTUqUH8.ltrans1.ltrans.o
                                                  obj/main/BETAFLIGHTF3/drivers/light_ws2811strip_stdperiph.o (symbol from plugin)
                                                  C:\cygwin64\tmp\ccTUqUH8.ltrans5.ltrans.o
ws2811LedDataTransferInProgress                   C:\cygwin64\tmp\ccTUqUH8.ltrans2.ltrans.o
                                                  obj/main/BETAFLIGHTF3/drivers/light_ws2811strip.o (symbol from plugin)
                                                  C:\cygwin64\tmp\ccTUqUH8.ltrans5.ltrans.o
                                                  C:\cygwin64\tmp\ccTUqUH8.ltrans1.ltrans.o
                                                  obj/main/BETAFLIGHTF3/drivers/light_ws2811strip_stdperiph.o (symbol from plugin)
ws2811LedStripDMAEnable                           obj/main/BETAFLIGHTF3/drivers/light_ws2811strip_stdperiph.o (symbol from plugin)
                                                  obj/main/BETAFLIGHTF3/drivers/light_ws2811strip.o (symbol from plugin)
ws2811LedStripHardwareInit                        C:\cygwin64\tmp\ccTUqUH8.ltrans5.ltrans.o
                                                  obj/main/BETAFLIGHTF3/drivers/light_ws2811strip_stdperiph.o (symbol from plugin)
                                                  C:\cygwin64\tmp\ccTUqUH8.ltrans2.ltrans.o
                                                  obj/main/BETAFLIGHTF3/drivers/light_ws2811strip.o (symbol from plugin)
ws2811LedStripInit                                obj/main/BETAFLIGHTF3/drivers/light_ws2811strip.o (symbol from plugin)
                                                  obj/main/BETAFLIGHTF3/io/ledstrip.o (symbol from plugin)
ws2811UpdateStrip                                 C:\cygwin64\tmp\ccTUqUH8.ltrans1.ltrans.o
                                                  obj/main/BETAFLIGHTF3/drivers/light_ws2811strip.o (symbol from plugin)
                                                  C:\cygwin64\tmp\ccTUqUH8.ltrans2.ltrans.o
                                                  obj/main/BETAFLIGHTF3/io/ledstrip.o (symbol from plugin)
xBusInit                                          obj/main/BETAFLIGHTF3/rx/xbus.o (symbol from plugin)
                                                  obj/main/BETAFLIGHTF3/rx/rx.o (symbol from plugin)
xmitState.lto_priv.466                            C:\cygwin64\tmp\ccTUqUH8.ltrans1.ltrans.o
                                                  C:\cygwin64\tmp\ccTUqUH8.ltrans4.ltrans.o
zigzagEncode                                      obj/main/BETAFLIGHTF3/common/encoding.o (symbol from plugin)
                                                  obj/main/BETAFLIGHTF3/blackbox/blackbox_encoding.o (symbol from plugin)
